
Waveform_Generator.elf:     file format elf32-littlearm
Waveform_Generator.elf
architecture: arm, flags 0x00000112:
EXEC_P, HAS_SYMS, D_PAGED
start address 0x08003221

Program Header:
    LOAD off    0x00010000 vaddr 0x08000000 paddr 0x08000000 align 2**16
         filesz 0x00006638 memsz 0x00006638 flags r-x
    LOAD off    0x00020000 vaddr 0x20000000 paddr 0x08006638 align 2**16
         filesz 0x00000084 memsz 0x000002d4 flags rw-
private flags = 5000200: [Version5 EABI] [soft-float ABI]

Sections:
Idx Name          Size      VMA       LMA       File off  Algn
  0 .text         00006638  08000000  08000000  00010000  2**3
                  CONTENTS, ALLOC, LOAD, READONLY, CODE
  1 .data         00000084  20000000  08006638  00020000  2**2
                  CONTENTS, ALLOC, LOAD, DATA
  2 .bss          00000250  20000084  080066bc  00020084  2**2
                  ALLOC
  3 .comment      0000007f  00000000  00000000  00020084  2**0
                  CONTENTS, READONLY
  4 .ARM.attributes 00000035  00000000  00000000  00020103  2**0
                  CONTENTS, READONLY
  5 .debug_frame  00000774  00000000  00000000  00020138  2**2
                  CONTENTS, READONLY, DEBUGGING
SYMBOL TABLE:
08000000 l    d  .text	00000000 .text
20000000 l    d  .data	00000000 .data
20000084 l    d  .bss	00000000 .bss
00000000 l    d  .comment	00000000 .comment
00000000 l    d  .ARM.attributes	00000000 .ARM.attributes
00000000 l    d  .debug_frame	00000000 .debug_frame
00000000 l    df *ABS*	00000000 Waveform_Generator.c
08000184 l     F .text	00000034 __NVIC_EnableIRQ
0800618c l     O .text	00000012 dev
20000000 l     O .data	0000000c usb_strings
08006244 l     O .text	0000000f comm_endp
08006254 l     O .text	0000001e data_endp
08006274 l     O .text	00000013 cdcacm_functional_descriptors
08006288 l     O .text	00000015 comm_iface
080062a0 l     O .text	00000015 data_iface
080062b8 l     O .text	00000020 ifaces
080062d8 l     O .text	0000000d config
080003a0 l     F .text	00000032 cdcacm_control_request
080003d4 l     F .text	00000058 cdcacm_set_config
0800042c l     F .text	000004bc cdcacm_data_rx_cb
00000000 l    df *ABS*	00000000 usb.c
00000000 l    df *ABS*	00000000 usb_standard.c
08001374 l     F .text	0000035a build_config_descriptor
080016ce l     F .text	00000016 usb_descriptor_type
080016e4 l     F .text	00000014 usb_descriptor_index
080016f8 l     F .text	0000017a usb_standard_get_descriptor
08001872 l     F .text	0000005c usb_standard_set_address
080018ce l     F .text	00000144 usb_standard_set_configuration
08001a12 l     F .text	00000056 usb_standard_get_configuration
08001a68 l     F .text	000000b6 usb_standard_set_interface
08001b1e l     F .text	0000006e usb_standard_get_interface
08001b8c l     F .text	00000032 usb_standard_device_get_status
08001bbe l     F .text	00000032 usb_standard_interface_get_status
08001bf0 l     F .text	00000050 usb_standard_endpoint_get_status
08001c40 l     F .text	00000028 usb_standard_endpoint_stall
08001c68 l     F .text	00000028 usb_standard_endpoint_unstall
00000000 l    df *ABS*	00000000 usb_control.c
08001ed6 l     F .text	00000020 stall_transaction
08001ef6 l     F .text	0000004a needs_zlp
08001fae l     F .text	0000009a usb_control_send_chunk
08002048 l     F .text	00000072 usb_control_recv_chunk
080020ba l     F .text	000000aa usb_control_request_dispatch
08002164 l     F .text	0000007e usb_control_setup_read
080021e2 l     F .text	00000060 usb_control_setup_write
00000000 l    df *ABS*	00000000 usb_dwc_common.c
08002c52 l     F .text	000000ca dwc_flush_txfifo
00000000 l    df *ABS*	00000000 usb_f107.c
200001c8 l     O .bss	000000fc usbd_dev
080030c8 l     F .text	00000100 stm32f107_usbd_init
00000000 l    df *ABS*	00000000 system_stm32f4xx.c
00000000 l    df *ABS*	00000000 s_sin.c
00000000 l    df *ABS*	00000000 w_pow.c
00000000 l    df *ABS*	00000000 e_pow.c
00000000 l    df *ABS*	00000000 e_rem_pio2.c
08006450 l     O .text	00000080 npio2_hw
080064d0 l     O .text	00000108 two_over_pi
00000000 l    df *ABS*	00000000 e_sqrt.c
00000000 l    df *ABS*	00000000 k_cos.c
00000000 l    df *ABS*	00000000 k_rem_pio2.c
080065d8 l     O .text	00000040 PIo2
08006618 l     O .text	00000010 init_jk
00000000 l    df *ABS*	00000000 k_sin.c
00000000 l    df *ABS*	00000000 s_fabs.c
00000000 l    df *ABS*	00000000 s_finite.c
00000000 l    df *ABS*	00000000 s_floor.c
00000000 l    df *ABS*	00000000 s_matherr.c
00000000 l    df *ABS*	00000000 s_nan.c
00000000 l    df *ABS*	00000000 s_rint.c
08006628 l     O .text	00000010 TWO52
00000000 l    df *ABS*	00000000 s_scalbn.c
00000000 l    df *ABS*	00000000 s_copysign.c
00000000 l    df *ABS*	00000000 errno.c
00000000 l    df *ABS*	00000000 memcpy-stub.c
00000000 l    df *ABS*	00000000 rand.c
00000000 l    df *ABS*	00000000 lib_a-strlen.o
00000000 l    df *ABS*	00000000 malloc.c
00000000 l    df *ABS*	00000000 nano-mallocr.c
00000000 l    df *ABS*	00000000 sbrkr.c
00000000 l    df *ABS*	00000000 mlock.c
00000000 l    df *ABS*	00000000 sbrk.c
200002cc l     O .bss	00000004 heap_end.5377
00000000 l    df *ABS*	00000000 _arm_addsubdf3.o
00000000 l    df *ABS*	00000000 _arm_muldivdf3.o
00000000 l    df *ABS*	00000000 _arm_cmpdf2.o
00000000 l    df *ABS*	00000000 _arm_unorddf2.o
00000000 l    df *ABS*	00000000 _arm_fixdfsi.o
00000000 l    df *ABS*	00000000 _arm_fixunsdfsi.o
00000000 l    df *ABS*	00000000 s_lib_ver.c
00000000 l    df *ABS*	00000000 impure.c
20000024 l     O .data	00000060 impure_data
00000000 l    df *ABS*	00000000 reent.c
080060d0 g     F .text	0000002c .hidden __aeabi_dcmpun
08006094 g     F .text	00000012 .hidden __aeabi_dcmple
08005fd0 g     F .text	0000007a .hidden __cmpdf2
08005334 g     F .text	00000008 fabs
0800229c g     F .text	000000d2 _usbd_control_out
08005fd0 g     F .text	0000007a .hidden __eqdf2
0800243c g     F .text	000002f2 dwc_ep_setup
20000000 g       .data	00000000 __data_start__
080008e8 g     F .text	00000040 print
08001232 g     F .text	00000034 usbd_ep_write_packet
08005b40 g     F .text	0000005a .hidden __floatdidf
0800129a g     F .text	0000002e usbd_ep_stall_set
080029c2 g     F .text	00000066 dwc_ep_stall_get
080001c4 g     F .text	00000084 Systick_Handler
08005806 g     F .text	00000002 __malloc_unlock
20000085 g     O .bss	00000001 process
20000086 g     O .bss	00000002 x
20000134 g     O .bss	00000007 frequency
08001e6c g     F .text	0000006a _usbd_standard_request
080012f0 g     F .text	0000002e usbd_ep_nak_set
20000140 g     O .bss	00000006 max_freq_string
08005fc0 g     F .text	0000008a .hidden __gtdf2
08005684 g     F .text	0000000c __errno
08006638 g       .text	00000000 __etext
08002d1c g     F .text	00000352 dwc_poll
20000130 g     O .bss	00000001 waveform
200002d0 g     O .bss	00000004 errno
08005348 g     F .text	00000100 floor
0800605c g     F .text	00000010 .hidden __aeabi_cdcmple
08003284 g     F .text	000000bc set_sysclk_to_168
080063fc g     O .text	00000018 m10
080041b0 g     F .text	00000444 __ieee754_rem_pio2
08005690 g     F .text	00000016 memcpy
0800604c g     F .text	00000020 .hidden __aeabi_cdrcmple
08005ac8 g     F .text	00000022 .hidden __floatsidf
08005fc8 g     F .text	00000082 .hidden __ltdf2
20000010 g     O .data	00000004 frequency_int
08005720 g     F .text	00000010 malloc
08004778 g     F .text	0000024c __kernel_cos
0800614c g     F .text	00000040 .hidden __fixunsdfsi
0800272e g     F .text	000000c2 dwc_endpoints_reset
200002d4 g       .comment	00000000 __HeapLimit
20000084 g       .bss	00000000 __bss_start__
08005aa8 g     F .text	0000001e .hidden __aeabi_ui2d
0800131e g     F .text	00000056 usbd_register_set_config_callback
0800635c g     O .text	00000020 m4
08005824 g     F .text	00000000 .hidden __aeabi_drsub
080057e4 g     F .text	00000020 _sbrk_r
08006320 g     O .text	00000022 m2
08006080 g     F .text	00000012 .hidden __aeabi_dcmplt
080051c8 g     F .text	0000016c __kernel_sin
08005aec g     F .text	00000042 .hidden __extendsfdf2
08005df0 g     F .text	000001d0 .hidden __aeabi_ddiv
08005830 g     F .text	00000276 .hidden __adddf3
2000013c g     O .bss	00000004 amplitude
08005b9c g     F .text	00000254 .hidden __aeabi_dmul
2000001c g     O .data	00000001 __fdlib_version
20000018 g     O .data	00000004 max_freq
080001b8 g     F .text	0000000a rcc_periph_clock_enable
08006388 g     O .text	00000025 m6
08001188 g     F .text	0000004e _usbd_reset
08005aa8 g     F .text	0000001e .hidden __floatunsidf
08005808 g     F .text	0000001c _sbrk
0800236e g     F .text	00000094 _usbd_control_in
08006414 g     O .text	00000034 stm32f107_usb_driver
080049c8 g     F .text	000007fc __kernel_rem_pio2
08005458 g     F .text	0000011c rint
080011f0 g     F .text	00000042 usbd_ep_setup
08003220 g     F .text	00000024 Reset_Handler
08001f40 g     F .text	0000006e usbd_register_control_callback
08001266 g     F .text	00000034 usbd_ep_read_packet
080060fc g     F .text	0000004e .hidden __fixdfsi
08005830 g     F .text	00000276 .hidden __aeabi_dadd
08005fc8 g     F .text	00000082 .hidden __ledf2
080002fc g     F .text	0000004c init_systick
08000000 g     O .text	00000184 vector_table
08005b30 g     F .text	0000006a .hidden __aeabi_ul2d
200002d4 g       .comment	00000000 end
200000ef g     O .bss	00000001 mode
20000084 g       .data	00000000 __data_end__
2000000c g     O .data	00000001 i
080060bc g     F .text	00000012 .hidden __aeabi_dcmpgt
200002d4 g       .bss	00000000 __bss_end__
080060a8 g     F .text	00000012 .hidden __aeabi_dcmpge
0800582c g     F .text	0000027a .hidden __aeabi_dsub
080001c2 g     F .text	00000002 Default_Handler
200000ec g     O .bss	00000001 request
200000ed g     O .bss	00000001 request_1
08003340 g     F .text	00000088 sin
08005b30 g     F .text	0000006a .hidden __floatundidf
080056a8 g     F .text	00000068 rand
08000928 g     F .text	0000002e prints
080012c8 g     F .text	00000028 usbd_ep_stall_get
08003708 g     F .text	00000aa8 __ieee754_pow
080033c8 g     F .text	0000033c pow
0800306e g     F .text	0000005a dwc_disconnect
08005ac8 g     F .text	00000022 .hidden __aeabi_i2d
080027f0 g     F .text	000001d2 dwc_ep_stall_set
08002242 g     F .text	0000005a _usbd_control_setup
08005df0 g     F .text	000001d0 .hidden __divdf3
080063c0 g     O .text	0000001b m8
08005b9c g     F .text	00000254 .hidden __muldf3
20000084 g     O .bss	00000001 counter
08002402 g     F .text	0000003a dwc_set_address
08000956 g     F .text	0000002e printm
08005804 g     F .text	00000002 __malloc_lock
08000984 g     F .text	0000077c main
08001100 g     F .text	00000088 usbd_init
0800637c g     O .text	00000009 m5
08005448 g     F .text	00000004 matherr
20000014 g     O .data	00000004 amplitude_int
08005730 g     F .text	000000b4 _malloc_r
08005b40 g     F .text	0000005a .hidden __aeabi_l2d
200002d4 g       .comment	00000000 __end__
08002a28 g     F .text	0000009a dwc_ep_nak_set
08003244 g     F .text	00000040 reset_clock
0800533c g     F .text	0000000c finite
08005674 g     F .text	0000000e copysign
08005fd0 g     F .text	0000007a .hidden __nedf2
080011d6 g     F .text	0000001a usbd_poll
08002ac2 g     F .text	000000d4 dwc_ep_write_packet
200000ee g     O .bss	00000001 request_2
080031c8 g     F .text	00000058 _init_data
20020000 g       .bss	00000000 __StackTop
08001d34 g     F .text	0000008c _usbd_standard_request_interface
20000020 g     O .data	00000004 _impure_ptr
08001dc0 g     F .text	000000ac _usbd_standard_request_endpoint
08005578 g     F .text	000000fc scalbn
200000f0 g     O .bss	00000040 buf
20000088 g     O .bss	00000064 Signal
20000148 g     O .bss	00000080 usbd_control_buffer
080062e8 g     O .text	00000037 m1
0800614c g     F .text	00000040 .hidden __aeabi_d2uiz
0800544c g     F .text	0000000c nan
080045f4 g     F .text	00000180 __ieee754_sqrt
20020000 g       *ABS*	00000000 __stack
0800606c g     F .text	00000012 .hidden __aeabi_dcmpeq
08001c90 g     F .text	000000a4 _usbd_standard_request_device
20020000 g       *ABS*	00000000 __StackLimit
08000248 g     F .text	000000b4 tim2_handler
080060fc g     F .text	0000004e .hidden __aeabi_d2iz
080060d0 g     F .text	0000002c .hidden __unorddf2
08005710 g     F .text	00000010 strlen
0800605c g     F .text	00000010 .hidden __aeabi_cdcmpeq
08005fc0 g     F .text	0000008a .hidden __gedf2
200002c8 g     O .bss	00000004 __malloc_sbrk_start
08005aec g     F .text	00000042 .hidden __aeabi_f2d
200002c4 g     O .bss	00000004 __malloc_free_list
0800582c g     F .text	0000027a .hidden __subdf3
08006344 g     O .text	00000018 m3
08000348 g     F .text	00000058 init_timer2
080063dc g     O .text	00000020 m9
08002b96 g     F .text	000000bc dwc_ep_read_packet
080063b0 g     O .text	00000010 m7



Disassembly of section .text:

08000000 <vector_table>:
 8000000:	00 00 02 20 21 32 00 08 c3 01 00 08 c3 01 00 08     ... !2..........
 8000010:	c3 01 00 08 c3 01 00 08 c3 01 00 08 00 00 00 00     ................
	...
 800002c:	c3 01 00 08 c3 01 00 08 00 00 00 00 c3 01 00 08     ................
 800003c:	c5 01 00 08 00 00 00 00 00 00 00 00 00 00 00 00     ................
	...
 80000b0:	49 02 00 08 00 00 00 00 00 00 00 00 00 00 00 00     I...............
	...

08000184 <__NVIC_EnableIRQ>:
 8000184:	b082      	sub	sp, #8
 8000186:	4603      	mov	r3, r0
 8000188:	f88d 3007 	strb.w	r3, [sp, #7]
 800018c:	f99d 3007 	ldrsb.w	r3, [sp, #7]
 8000190:	2b00      	cmp	r3, #0
 8000192:	db0c      	blt.n	80001ae <__NVIC_EnableIRQ+0x2a>
 8000194:	f89d 3007 	ldrb.w	r3, [sp, #7]
 8000198:	f003 021f 	and.w	r2, r3, #31
 800019c:	4905      	ldr	r1, [pc, #20]	; (80001b4 <__NVIC_EnableIRQ+0x30>)
 800019e:	f99d 3007 	ldrsb.w	r3, [sp, #7]
 80001a2:	095b      	lsrs	r3, r3, #5
 80001a4:	2001      	movs	r0, #1
 80001a6:	fa00 f202 	lsl.w	r2, r0, r2
 80001aa:	f841 2023 	str.w	r2, [r1, r3, lsl #2]
 80001ae:	bf00      	nop
 80001b0:	b002      	add	sp, #8
 80001b2:	4770      	bx	lr
 80001b4:	e000e100 	.word	0xe000e100

080001b8 <rcc_periph_clock_enable>:
 80001b8:	b082      	sub	sp, #8
 80001ba:	9001      	str	r0, [sp, #4]
 80001bc:	bf00      	nop
 80001be:	b002      	add	sp, #8
 80001c0:	4770      	bx	lr

080001c2 <Default_Handler>:
 80001c2:	e7fe      	b.n	80001c2 <Default_Handler>

080001c4 <Systick_Handler>:
 80001c4:	b508      	push	{r3, lr}
 80001c6:	4b1c      	ldr	r3, [pc, #112]	; (8000238 <Systick_Handler+0x74>)
 80001c8:	781b      	ldrb	r3, [r3, #0]
 80001ca:	f083 0301 	eor.w	r3, r3, #1
 80001ce:	b2db      	uxtb	r3, r3
 80001d0:	2b00      	cmp	r3, #0
 80001d2:	d020      	beq.n	8000216 <Systick_Handler+0x52>
 80001d4:	4b19      	ldr	r3, [pc, #100]	; (800023c <Systick_Handler+0x78>)
 80001d6:	781b      	ldrb	r3, [r3, #0]
 80001d8:	b29b      	uxth	r3, r3
 80001da:	031b      	lsls	r3, r3, #12
 80001dc:	b29a      	uxth	r2, r3
 80001de:	4b18      	ldr	r3, [pc, #96]	; (8000240 <Systick_Handler+0x7c>)
 80001e0:	615a      	str	r2, [r3, #20]
 80001e2:	4b16      	ldr	r3, [pc, #88]	; (800023c <Systick_Handler+0x78>)
 80001e4:	781b      	ldrb	r3, [r3, #0]
 80001e6:	2bf0      	cmp	r3, #240	; 0xf0
 80001e8:	d106      	bne.n	80001f8 <Systick_Handler+0x34>
 80001ea:	2101      	movs	r1, #1
 80001ec:	4815      	ldr	r0, [pc, #84]	; (8000244 <Systick_Handler+0x80>)
 80001ee:	f000 f885 	bl	80002fc <init_systick>
 80001f2:	4b12      	ldr	r3, [pc, #72]	; (800023c <Systick_Handler+0x78>)
 80001f4:	2201      	movs	r2, #1
 80001f6:	701a      	strb	r2, [r3, #0]
 80001f8:	4b10      	ldr	r3, [pc, #64]	; (800023c <Systick_Handler+0x78>)
 80001fa:	781b      	ldrb	r3, [r3, #0]
 80001fc:	2b08      	cmp	r3, #8
 80001fe:	d103      	bne.n	8000208 <Systick_Handler+0x44>
 8000200:	4b0e      	ldr	r3, [pc, #56]	; (800023c <Systick_Handler+0x78>)
 8000202:	2201      	movs	r2, #1
 8000204:	701a      	strb	r2, [r3, #0]
 8000206:	e015      	b.n	8000234 <Systick_Handler+0x70>
 8000208:	4b0c      	ldr	r3, [pc, #48]	; (800023c <Systick_Handler+0x78>)
 800020a:	781b      	ldrb	r3, [r3, #0]
 800020c:	005b      	lsls	r3, r3, #1
 800020e:	b2da      	uxtb	r2, r3
 8000210:	4b0a      	ldr	r3, [pc, #40]	; (800023c <Systick_Handler+0x78>)
 8000212:	701a      	strb	r2, [r3, #0]
 8000214:	e00e      	b.n	8000234 <Systick_Handler+0x70>
 8000216:	4b08      	ldr	r3, [pc, #32]	; (8000238 <Systick_Handler+0x74>)
 8000218:	781b      	ldrb	r3, [r3, #0]
 800021a:	2b00      	cmp	r3, #0
 800021c:	d00a      	beq.n	8000234 <Systick_Handler+0x70>
 800021e:	4b08      	ldr	r3, [pc, #32]	; (8000240 <Systick_Handler+0x7c>)
 8000220:	695b      	ldr	r3, [r3, #20]
 8000222:	4a06      	ldr	r2, [pc, #24]	; (800023c <Systick_Handler+0x78>)
 8000224:	7812      	ldrb	r2, [r2, #0]
 8000226:	b292      	uxth	r2, r2
 8000228:	0312      	lsls	r2, r2, #12
 800022a:	b292      	uxth	r2, r2
 800022c:	4611      	mov	r1, r2
 800022e:	4a04      	ldr	r2, [pc, #16]	; (8000240 <Systick_Handler+0x7c>)
 8000230:	404b      	eors	r3, r1
 8000232:	6153      	str	r3, [r2, #20]
 8000234:	bf00      	nop
 8000236:	bd08      	pop	{r3, pc}
 8000238:	200000ef 	.word	0x200000ef
 800023c:	2000000c 	.word	0x2000000c
 8000240:	40020c00 	.word	0x40020c00
 8000244:	00501bd0 	.word	0x00501bd0

08000248 <tim2_handler>:
 8000248:	b510      	push	{r4, lr}
 800024a:	f04f 4380 	mov.w	r3, #1073741824	; 0x40000000
 800024e:	f64f 72fe 	movw	r2, #65534	; 0xfffe
 8000252:	611a      	str	r2, [r3, #16]
 8000254:	4b23      	ldr	r3, [pc, #140]	; (80002e4 <tim2_handler+0x9c>)
 8000256:	781b      	ldrb	r3, [r3, #0]
 8000258:	2b31      	cmp	r3, #49	; 0x31
 800025a:	d00b      	beq.n	8000274 <tim2_handler+0x2c>
 800025c:	4b21      	ldr	r3, [pc, #132]	; (80002e4 <tim2_handler+0x9c>)
 800025e:	781b      	ldrb	r3, [r3, #0]
 8000260:	2b32      	cmp	r3, #50	; 0x32
 8000262:	d007      	beq.n	8000274 <tim2_handler+0x2c>
 8000264:	4b1f      	ldr	r3, [pc, #124]	; (80002e4 <tim2_handler+0x9c>)
 8000266:	781b      	ldrb	r3, [r3, #0]
 8000268:	2b33      	cmp	r3, #51	; 0x33
 800026a:	d003      	beq.n	8000274 <tim2_handler+0x2c>
 800026c:	4b1d      	ldr	r3, [pc, #116]	; (80002e4 <tim2_handler+0x9c>)
 800026e:	781b      	ldrb	r3, [r3, #0]
 8000270:	2b34      	cmp	r3, #52	; 0x34
 8000272:	d11b      	bne.n	80002ac <tim2_handler+0x64>
 8000274:	4b1c      	ldr	r3, [pc, #112]	; (80002e8 <tim2_handler+0xa0>)
 8000276:	881b      	ldrh	r3, [r3, #0]
 8000278:	2b31      	cmp	r3, #49	; 0x31
 800027a:	d902      	bls.n	8000282 <tim2_handler+0x3a>
 800027c:	4b1a      	ldr	r3, [pc, #104]	; (80002e8 <tim2_handler+0xa0>)
 800027e:	2200      	movs	r2, #0
 8000280:	801a      	strh	r2, [r3, #0]
 8000282:	4b19      	ldr	r3, [pc, #100]	; (80002e8 <tim2_handler+0xa0>)
 8000284:	881b      	ldrh	r3, [r3, #0]
 8000286:	461a      	mov	r2, r3
 8000288:	4b18      	ldr	r3, [pc, #96]	; (80002ec <tim2_handler+0xa4>)
 800028a:	f833 2012 	ldrh.w	r2, [r3, r2, lsl #1]
 800028e:	4b18      	ldr	r3, [pc, #96]	; (80002f0 <tim2_handler+0xa8>)
 8000290:	609a      	str	r2, [r3, #8]
 8000292:	4b17      	ldr	r3, [pc, #92]	; (80002f0 <tim2_handler+0xa8>)
 8000294:	685b      	ldr	r3, [r3, #4]
 8000296:	4a16      	ldr	r2, [pc, #88]	; (80002f0 <tim2_handler+0xa8>)
 8000298:	f043 0301 	orr.w	r3, r3, #1
 800029c:	6053      	str	r3, [r2, #4]
 800029e:	4b12      	ldr	r3, [pc, #72]	; (80002e8 <tim2_handler+0xa0>)
 80002a0:	881b      	ldrh	r3, [r3, #0]
 80002a2:	3301      	adds	r3, #1
 80002a4:	b29a      	uxth	r2, r3
 80002a6:	4b10      	ldr	r3, [pc, #64]	; (80002e8 <tim2_handler+0xa0>)
 80002a8:	801a      	strh	r2, [r3, #0]
 80002aa:	e018      	b.n	80002de <tim2_handler+0x96>
 80002ac:	4b0d      	ldr	r3, [pc, #52]	; (80002e4 <tim2_handler+0x9c>)
 80002ae:	781b      	ldrb	r3, [r3, #0]
 80002b0:	2b35      	cmp	r3, #53	; 0x35
 80002b2:	d114      	bne.n	80002de <tim2_handler+0x96>
 80002b4:	4b0f      	ldr	r3, [pc, #60]	; (80002f4 <tim2_handler+0xac>)
 80002b6:	681b      	ldr	r3, [r3, #0]
 80002b8:	031b      	lsls	r3, r3, #12
 80002ba:	089b      	lsrs	r3, r3, #2
 80002bc:	4a0e      	ldr	r2, [pc, #56]	; (80002f8 <tim2_handler+0xb0>)
 80002be:	fba2 2303 	umull	r2, r3, r2, r3
 80002c2:	095c      	lsrs	r4, r3, #5
 80002c4:	f005 f9f0 	bl	80056a8 <rand>
 80002c8:	4603      	mov	r3, r0
 80002ca:	4a09      	ldr	r2, [pc, #36]	; (80002f0 <tim2_handler+0xa8>)
 80002cc:	fb03 f304 	mul.w	r3, r3, r4
 80002d0:	6093      	str	r3, [r2, #8]
 80002d2:	4b07      	ldr	r3, [pc, #28]	; (80002f0 <tim2_handler+0xa8>)
 80002d4:	685b      	ldr	r3, [r3, #4]
 80002d6:	4a06      	ldr	r2, [pc, #24]	; (80002f0 <tim2_handler+0xa8>)
 80002d8:	f043 0301 	orr.w	r3, r3, #1
 80002dc:	6053      	str	r3, [r2, #4]
 80002de:	bf00      	nop
 80002e0:	bd10      	pop	{r4, pc}
 80002e2:	bf00      	nop
 80002e4:	20000130 	.word	0x20000130
 80002e8:	20000086 	.word	0x20000086
 80002ec:	20000088 	.word	0x20000088
 80002f0:	40007400 	.word	0x40007400
 80002f4:	20000014 	.word	0x20000014
 80002f8:	09ee009f 	.word	0x09ee009f

080002fc <init_systick>:
 80002fc:	b082      	sub	sp, #8
 80002fe:	9001      	str	r0, [sp, #4]
 8000300:	460b      	mov	r3, r1
 8000302:	f88d 3003 	strb.w	r3, [sp, #3]
 8000306:	4b0f      	ldr	r3, [pc, #60]	; (8000344 <init_systick+0x48>)
 8000308:	2200      	movs	r2, #0
 800030a:	601a      	str	r2, [r3, #0]
 800030c:	4b0d      	ldr	r3, [pc, #52]	; (8000344 <init_systick+0x48>)
 800030e:	4a0d      	ldr	r2, [pc, #52]	; (8000344 <init_systick+0x48>)
 8000310:	681b      	ldr	r3, [r3, #0]
 8000312:	6013      	str	r3, [r2, #0]
 8000314:	4b0b      	ldr	r3, [pc, #44]	; (8000344 <init_systick+0x48>)
 8000316:	681a      	ldr	r2, [r3, #0]
 8000318:	f89d 3003 	ldrb.w	r3, [sp, #3]
 800031c:	005b      	lsls	r3, r3, #1
 800031e:	4909      	ldr	r1, [pc, #36]	; (8000344 <init_systick+0x48>)
 8000320:	4313      	orrs	r3, r2
 8000322:	600b      	str	r3, [r1, #0]
 8000324:	4a07      	ldr	r2, [pc, #28]	; (8000344 <init_systick+0x48>)
 8000326:	9b01      	ldr	r3, [sp, #4]
 8000328:	6053      	str	r3, [r2, #4]
 800032a:	4b06      	ldr	r3, [pc, #24]	; (8000344 <init_systick+0x48>)
 800032c:	2200      	movs	r2, #0
 800032e:	609a      	str	r2, [r3, #8]
 8000330:	4b04      	ldr	r3, [pc, #16]	; (8000344 <init_systick+0x48>)
 8000332:	681b      	ldr	r3, [r3, #0]
 8000334:	4a03      	ldr	r2, [pc, #12]	; (8000344 <init_systick+0x48>)
 8000336:	f043 0301 	orr.w	r3, r3, #1
 800033a:	6013      	str	r3, [r2, #0]
 800033c:	bf00      	nop
 800033e:	b002      	add	sp, #8
 8000340:	4770      	bx	lr
 8000342:	bf00      	nop
 8000344:	e000e010 	.word	0xe000e010

08000348 <init_timer2>:
 8000348:	b500      	push	{lr}
 800034a:	b083      	sub	sp, #12
 800034c:	9001      	str	r0, [sp, #4]
 800034e:	9100      	str	r1, [sp, #0]
 8000350:	4b12      	ldr	r3, [pc, #72]	; (800039c <init_timer2+0x54>)
 8000352:	6c1b      	ldr	r3, [r3, #64]	; 0x40
 8000354:	4a11      	ldr	r2, [pc, #68]	; (800039c <init_timer2+0x54>)
 8000356:	f043 0301 	orr.w	r3, r3, #1
 800035a:	6413      	str	r3, [r2, #64]	; 0x40
 800035c:	f04f 4280 	mov.w	r2, #1073741824	; 0x40000000
 8000360:	9b01      	ldr	r3, [sp, #4]
 8000362:	3b01      	subs	r3, #1
 8000364:	6293      	str	r3, [r2, #40]	; 0x28
 8000366:	f04f 4280 	mov.w	r2, #1073741824	; 0x40000000
 800036a:	9b00      	ldr	r3, [sp, #0]
 800036c:	62d3      	str	r3, [r2, #44]	; 0x2c
 800036e:	f04f 4380 	mov.w	r3, #1073741824	; 0x40000000
 8000372:	68db      	ldr	r3, [r3, #12]
 8000374:	f04f 4280 	mov.w	r2, #1073741824	; 0x40000000
 8000378:	f043 0301 	orr.w	r3, r3, #1
 800037c:	60d3      	str	r3, [r2, #12]
 800037e:	201c      	movs	r0, #28
 8000380:	f7ff ff00 	bl	8000184 <__NVIC_EnableIRQ>
 8000384:	f04f 4380 	mov.w	r3, #1073741824	; 0x40000000
 8000388:	681b      	ldr	r3, [r3, #0]
 800038a:	f04f 4280 	mov.w	r2, #1073741824	; 0x40000000
 800038e:	f043 0301 	orr.w	r3, r3, #1
 8000392:	6013      	str	r3, [r2, #0]
 8000394:	bf00      	nop
 8000396:	b003      	add	sp, #12
 8000398:	f85d fb04 	ldr.w	pc, [sp], #4
 800039c:	40023800 	.word	0x40023800

080003a0 <cdcacm_control_request>:
 80003a0:	b084      	sub	sp, #16
 80003a2:	9003      	str	r0, [sp, #12]
 80003a4:	9102      	str	r1, [sp, #8]
 80003a6:	9201      	str	r2, [sp, #4]
 80003a8:	9300      	str	r3, [sp, #0]
 80003aa:	9b02      	ldr	r3, [sp, #8]
 80003ac:	785b      	ldrb	r3, [r3, #1]
 80003ae:	2b20      	cmp	r3, #32
 80003b0:	d003      	beq.n	80003ba <cdcacm_control_request+0x1a>
 80003b2:	2b22      	cmp	r3, #34	; 0x22
 80003b4:	d109      	bne.n	80003ca <cdcacm_control_request+0x2a>
 80003b6:	2301      	movs	r3, #1
 80003b8:	e008      	b.n	80003cc <cdcacm_control_request+0x2c>
 80003ba:	9b00      	ldr	r3, [sp, #0]
 80003bc:	881b      	ldrh	r3, [r3, #0]
 80003be:	2b06      	cmp	r3, #6
 80003c0:	d801      	bhi.n	80003c6 <cdcacm_control_request+0x26>
 80003c2:	2300      	movs	r3, #0
 80003c4:	e002      	b.n	80003cc <cdcacm_control_request+0x2c>
 80003c6:	2301      	movs	r3, #1
 80003c8:	e000      	b.n	80003cc <cdcacm_control_request+0x2c>
 80003ca:	2300      	movs	r3, #0
 80003cc:	4618      	mov	r0, r3
 80003ce:	b004      	add	sp, #16
 80003d0:	4770      	bx	lr
	...

080003d4 <cdcacm_set_config>:
 80003d4:	b500      	push	{lr}
 80003d6:	b085      	sub	sp, #20
 80003d8:	9003      	str	r0, [sp, #12]
 80003da:	460b      	mov	r3, r1
 80003dc:	f8ad 300a 	strh.w	r3, [sp, #10]
 80003e0:	4b10      	ldr	r3, [pc, #64]	; (8000424 <cdcacm_set_config+0x50>)
 80003e2:	9300      	str	r3, [sp, #0]
 80003e4:	2340      	movs	r3, #64	; 0x40
 80003e6:	2202      	movs	r2, #2
 80003e8:	2101      	movs	r1, #1
 80003ea:	9803      	ldr	r0, [sp, #12]
 80003ec:	f000 ff00 	bl	80011f0 <usbd_ep_setup>
 80003f0:	2300      	movs	r3, #0
 80003f2:	9300      	str	r3, [sp, #0]
 80003f4:	2340      	movs	r3, #64	; 0x40
 80003f6:	2202      	movs	r2, #2
 80003f8:	2182      	movs	r1, #130	; 0x82
 80003fa:	9803      	ldr	r0, [sp, #12]
 80003fc:	f000 fef8 	bl	80011f0 <usbd_ep_setup>
 8000400:	2300      	movs	r3, #0
 8000402:	9300      	str	r3, [sp, #0]
 8000404:	2310      	movs	r3, #16
 8000406:	2203      	movs	r2, #3
 8000408:	2183      	movs	r1, #131	; 0x83
 800040a:	9803      	ldr	r0, [sp, #12]
 800040c:	f000 fef0 	bl	80011f0 <usbd_ep_setup>
 8000410:	4b05      	ldr	r3, [pc, #20]	; (8000428 <cdcacm_set_config+0x54>)
 8000412:	227f      	movs	r2, #127	; 0x7f
 8000414:	2121      	movs	r1, #33	; 0x21
 8000416:	9803      	ldr	r0, [sp, #12]
 8000418:	f001 fd92 	bl	8001f40 <usbd_register_control_callback>
 800041c:	bf00      	nop
 800041e:	b005      	add	sp, #20
 8000420:	f85d fb04 	ldr.w	pc, [sp], #4
 8000424:	0800042d 	.word	0x0800042d
 8000428:	080003a1 	.word	0x080003a1

0800042c <cdcacm_data_rx_cb>:
 800042c:	b530      	push	{r4, r5, lr}
 800042e:	b085      	sub	sp, #20
 8000430:	9001      	str	r0, [sp, #4]
 8000432:	460b      	mov	r3, r1
 8000434:	f88d 3003 	strb.w	r3, [sp, #3]
 8000438:	2301      	movs	r3, #1
 800043a:	4a99      	ldr	r2, [pc, #612]	; (80006a0 <cdcacm_data_rx_cb+0x274>)
 800043c:	2101      	movs	r1, #1
 800043e:	9801      	ldr	r0, [sp, #4]
 8000440:	f000 ff11 	bl	8001266 <usbd_ep_read_packet>
 8000444:	4603      	mov	r3, r0
 8000446:	9302      	str	r3, [sp, #8]
 8000448:	bf00      	nop
 800044a:	2301      	movs	r3, #1
 800044c:	4a94      	ldr	r2, [pc, #592]	; (80006a0 <cdcacm_data_rx_cb+0x274>)
 800044e:	2182      	movs	r1, #130	; 0x82
 8000450:	9801      	ldr	r0, [sp, #4]
 8000452:	f000 feee 	bl	8001232 <usbd_ep_write_packet>
 8000456:	4603      	mov	r3, r0
 8000458:	2b00      	cmp	r3, #0
 800045a:	d0f6      	beq.n	800044a <cdcacm_data_rx_cb+0x1e>
 800045c:	4b91      	ldr	r3, [pc, #580]	; (80006a4 <cdcacm_data_rx_cb+0x278>)
 800045e:	781b      	ldrb	r3, [r3, #0]
 8000460:	2b00      	cmp	r3, #0
 8000462:	d148      	bne.n	80004f6 <cdcacm_data_rx_cb+0xca>
 8000464:	4b90      	ldr	r3, [pc, #576]	; (80006a8 <cdcacm_data_rx_cb+0x27c>)
 8000466:	781b      	ldrb	r3, [r3, #0]
 8000468:	2b00      	cmp	r3, #0
 800046a:	d122      	bne.n	80004b2 <cdcacm_data_rx_cb+0x86>
 800046c:	4b8f      	ldr	r3, [pc, #572]	; (80006ac <cdcacm_data_rx_cb+0x280>)
 800046e:	781b      	ldrb	r3, [r3, #0]
 8000470:	2b00      	cmp	r3, #0
 8000472:	d01e      	beq.n	80004b2 <cdcacm_data_rx_cb+0x86>
 8000474:	4b8a      	ldr	r3, [pc, #552]	; (80006a0 <cdcacm_data_rx_cb+0x274>)
 8000476:	781a      	ldrb	r2, [r3, #0]
 8000478:	4b8b      	ldr	r3, [pc, #556]	; (80006a8 <cdcacm_data_rx_cb+0x27c>)
 800047a:	701a      	strb	r2, [r3, #0]
 800047c:	4b8a      	ldr	r3, [pc, #552]	; (80006a8 <cdcacm_data_rx_cb+0x27c>)
 800047e:	781b      	ldrb	r3, [r3, #0]
 8000480:	2b35      	cmp	r3, #53	; 0x35
 8000482:	d809      	bhi.n	8000498 <cdcacm_data_rx_cb+0x6c>
 8000484:	4b88      	ldr	r3, [pc, #544]	; (80006a8 <cdcacm_data_rx_cb+0x27c>)
 8000486:	781b      	ldrb	r3, [r3, #0]
 8000488:	2b30      	cmp	r3, #48	; 0x30
 800048a:	d905      	bls.n	8000498 <cdcacm_data_rx_cb+0x6c>
 800048c:	2217      	movs	r2, #23
 800048e:	4988      	ldr	r1, [pc, #544]	; (80006b0 <cdcacm_data_rx_cb+0x284>)
 8000490:	9801      	ldr	r0, [sp, #4]
 8000492:	f000 fa60 	bl	8000956 <printm>
 8000496:	e00c      	b.n	80004b2 <cdcacm_data_rx_cb+0x86>
 8000498:	221f      	movs	r2, #31
 800049a:	4986      	ldr	r1, [pc, #536]	; (80006b4 <cdcacm_data_rx_cb+0x288>)
 800049c:	9801      	ldr	r0, [sp, #4]
 800049e:	f000 fa5a 	bl	8000956 <printm>
 80004a2:	2208      	movs	r2, #8
 80004a4:	4984      	ldr	r1, [pc, #528]	; (80006b8 <cdcacm_data_rx_cb+0x28c>)
 80004a6:	9801      	ldr	r0, [sp, #4]
 80004a8:	f000 fa55 	bl	8000956 <printm>
 80004ac:	4b7e      	ldr	r3, [pc, #504]	; (80006a8 <cdcacm_data_rx_cb+0x27c>)
 80004ae:	2200      	movs	r2, #0
 80004b0:	701a      	strb	r2, [r3, #0]
 80004b2:	4b7e      	ldr	r3, [pc, #504]	; (80006ac <cdcacm_data_rx_cb+0x280>)
 80004b4:	781b      	ldrb	r3, [r3, #0]
 80004b6:	f083 0301 	eor.w	r3, r3, #1
 80004ba:	b2db      	uxtb	r3, r3
 80004bc:	2b00      	cmp	r3, #0
 80004be:	d00d      	beq.n	80004dc <cdcacm_data_rx_cb+0xb0>
 80004c0:	9801      	ldr	r0, [sp, #4]
 80004c2:	f000 fa11 	bl	80008e8 <print>
 80004c6:	2208      	movs	r2, #8
 80004c8:	497b      	ldr	r1, [pc, #492]	; (80006b8 <cdcacm_data_rx_cb+0x28c>)
 80004ca:	9801      	ldr	r0, [sp, #4]
 80004cc:	f000 fa43 	bl	8000956 <printm>
 80004d0:	4b76      	ldr	r3, [pc, #472]	; (80006ac <cdcacm_data_rx_cb+0x280>)
 80004d2:	2201      	movs	r2, #1
 80004d4:	701a      	strb	r2, [r3, #0]
 80004d6:	4b72      	ldr	r3, [pc, #456]	; (80006a0 <cdcacm_data_rx_cb+0x274>)
 80004d8:	2200      	movs	r2, #0
 80004da:	701a      	strb	r2, [r3, #0]
 80004dc:	4b70      	ldr	r3, [pc, #448]	; (80006a0 <cdcacm_data_rx_cb+0x274>)
 80004de:	781b      	ldrb	r3, [r3, #0]
 80004e0:	2b0d      	cmp	r3, #13
 80004e2:	d108      	bne.n	80004f6 <cdcacm_data_rx_cb+0xca>
 80004e4:	4b6f      	ldr	r3, [pc, #444]	; (80006a4 <cdcacm_data_rx_cb+0x278>)
 80004e6:	781b      	ldrb	r3, [r3, #0]
 80004e8:	3301      	adds	r3, #1
 80004ea:	b2da      	uxtb	r2, r3
 80004ec:	4b6d      	ldr	r3, [pc, #436]	; (80006a4 <cdcacm_data_rx_cb+0x278>)
 80004ee:	701a      	strb	r2, [r3, #0]
 80004f0:	4b6b      	ldr	r3, [pc, #428]	; (80006a0 <cdcacm_data_rx_cb+0x274>)
 80004f2:	2200      	movs	r2, #0
 80004f4:	701a      	strb	r2, [r3, #0]
 80004f6:	4b6b      	ldr	r3, [pc, #428]	; (80006a4 <cdcacm_data_rx_cb+0x278>)
 80004f8:	781b      	ldrb	r3, [r3, #0]
 80004fa:	2b01      	cmp	r3, #1
 80004fc:	f040 8102 	bne.w	8000704 <cdcacm_data_rx_cb+0x2d8>
 8000500:	4b6e      	ldr	r3, [pc, #440]	; (80006bc <cdcacm_data_rx_cb+0x290>)
 8000502:	781b      	ldrb	r3, [r3, #0]
 8000504:	2b05      	cmp	r3, #5
 8000506:	d815      	bhi.n	8000534 <cdcacm_data_rx_cb+0x108>
 8000508:	4b6d      	ldr	r3, [pc, #436]	; (80006c0 <cdcacm_data_rx_cb+0x294>)
 800050a:	781b      	ldrb	r3, [r3, #0]
 800050c:	2b00      	cmp	r3, #0
 800050e:	d022      	beq.n	8000556 <cdcacm_data_rx_cb+0x12a>
 8000510:	4b63      	ldr	r3, [pc, #396]	; (80006a0 <cdcacm_data_rx_cb+0x274>)
 8000512:	781b      	ldrb	r3, [r3, #0]
 8000514:	2b0d      	cmp	r3, #13
 8000516:	d01e      	beq.n	8000556 <cdcacm_data_rx_cb+0x12a>
 8000518:	4b68      	ldr	r3, [pc, #416]	; (80006bc <cdcacm_data_rx_cb+0x290>)
 800051a:	781b      	ldrb	r3, [r3, #0]
 800051c:	461a      	mov	r2, r3
 800051e:	4b60      	ldr	r3, [pc, #384]	; (80006a0 <cdcacm_data_rx_cb+0x274>)
 8000520:	7819      	ldrb	r1, [r3, #0]
 8000522:	4b68      	ldr	r3, [pc, #416]	; (80006c4 <cdcacm_data_rx_cb+0x298>)
 8000524:	5499      	strb	r1, [r3, r2]
 8000526:	4b65      	ldr	r3, [pc, #404]	; (80006bc <cdcacm_data_rx_cb+0x290>)
 8000528:	781b      	ldrb	r3, [r3, #0]
 800052a:	3301      	adds	r3, #1
 800052c:	b2da      	uxtb	r2, r3
 800052e:	4b63      	ldr	r3, [pc, #396]	; (80006bc <cdcacm_data_rx_cb+0x290>)
 8000530:	701a      	strb	r2, [r3, #0]
 8000532:	e010      	b.n	8000556 <cdcacm_data_rx_cb+0x12a>
 8000534:	4b5a      	ldr	r3, [pc, #360]	; (80006a0 <cdcacm_data_rx_cb+0x274>)
 8000536:	781b      	ldrb	r3, [r3, #0]
 8000538:	2b0d      	cmp	r3, #13
 800053a:	d00c      	beq.n	8000556 <cdcacm_data_rx_cb+0x12a>
 800053c:	4b5f      	ldr	r3, [pc, #380]	; (80006bc <cdcacm_data_rx_cb+0x290>)
 800053e:	2200      	movs	r2, #0
 8000540:	701a      	strb	r2, [r3, #0]
 8000542:	2224      	movs	r2, #36	; 0x24
 8000544:	4960      	ldr	r1, [pc, #384]	; (80006c8 <cdcacm_data_rx_cb+0x29c>)
 8000546:	9801      	ldr	r0, [sp, #4]
 8000548:	f000 fa05 	bl	8000956 <printm>
 800054c:	2208      	movs	r2, #8
 800054e:	495a      	ldr	r1, [pc, #360]	; (80006b8 <cdcacm_data_rx_cb+0x28c>)
 8000550:	9801      	ldr	r0, [sp, #4]
 8000552:	f000 fa00 	bl	8000956 <printm>
 8000556:	4b5a      	ldr	r3, [pc, #360]	; (80006c0 <cdcacm_data_rx_cb+0x294>)
 8000558:	781b      	ldrb	r3, [r3, #0]
 800055a:	f083 0301 	eor.w	r3, r3, #1
 800055e:	b2db      	uxtb	r3, r3
 8000560:	2b00      	cmp	r3, #0
 8000562:	d021      	beq.n	80005a8 <cdcacm_data_rx_cb+0x17c>
 8000564:	220f      	movs	r2, #15
 8000566:	4959      	ldr	r1, [pc, #356]	; (80006cc <cdcacm_data_rx_cb+0x2a0>)
 8000568:	9801      	ldr	r0, [sp, #4]
 800056a:	f000 f9f4 	bl	8000956 <printm>
 800056e:	2207      	movs	r2, #7
 8000570:	4957      	ldr	r1, [pc, #348]	; (80006d0 <cdcacm_data_rx_cb+0x2a4>)
 8000572:	9801      	ldr	r0, [sp, #4]
 8000574:	f000 f9d8 	bl	8000928 <prints>
 8000578:	2206      	movs	r2, #6
 800057a:	4956      	ldr	r1, [pc, #344]	; (80006d4 <cdcacm_data_rx_cb+0x2a8>)
 800057c:	9801      	ldr	r0, [sp, #4]
 800057e:	f000 f9ea 	bl	8000956 <printm>
 8000582:	2202      	movs	r2, #2
 8000584:	4954      	ldr	r1, [pc, #336]	; (80006d8 <cdcacm_data_rx_cb+0x2ac>)
 8000586:	9801      	ldr	r0, [sp, #4]
 8000588:	f000 f9ce 	bl	8000928 <prints>
 800058c:	2208      	movs	r2, #8
 800058e:	494a      	ldr	r1, [pc, #296]	; (80006b8 <cdcacm_data_rx_cb+0x28c>)
 8000590:	9801      	ldr	r0, [sp, #4]
 8000592:	f000 f9e0 	bl	8000956 <printm>
 8000596:	4b4a      	ldr	r3, [pc, #296]	; (80006c0 <cdcacm_data_rx_cb+0x294>)
 8000598:	2201      	movs	r2, #1
 800059a:	701a      	strb	r2, [r3, #0]
 800059c:	4b47      	ldr	r3, [pc, #284]	; (80006bc <cdcacm_data_rx_cb+0x290>)
 800059e:	2200      	movs	r2, #0
 80005a0:	701a      	strb	r2, [r3, #0]
 80005a2:	4b3f      	ldr	r3, [pc, #252]	; (80006a0 <cdcacm_data_rx_cb+0x274>)
 80005a4:	2200      	movs	r2, #0
 80005a6:	701a      	strb	r2, [r3, #0]
 80005a8:	4b3d      	ldr	r3, [pc, #244]	; (80006a0 <cdcacm_data_rx_cb+0x274>)
 80005aa:	781b      	ldrb	r3, [r3, #0]
 80005ac:	2b0d      	cmp	r3, #13
 80005ae:	f040 80a9 	bne.w	8000704 <cdcacm_data_rx_cb+0x2d8>
 80005b2:	4b42      	ldr	r3, [pc, #264]	; (80006bc <cdcacm_data_rx_cb+0x290>)
 80005b4:	781b      	ldrb	r3, [r3, #0]
 80005b6:	2b01      	cmp	r3, #1
 80005b8:	f240 8098 	bls.w	80006ec <cdcacm_data_rx_cb+0x2c0>
 80005bc:	4b47      	ldr	r3, [pc, #284]	; (80006dc <cdcacm_data_rx_cb+0x2b0>)
 80005be:	2200      	movs	r2, #0
 80005c0:	601a      	str	r2, [r3, #0]
 80005c2:	4b3e      	ldr	r3, [pc, #248]	; (80006bc <cdcacm_data_rx_cb+0x290>)
 80005c4:	781b      	ldrb	r3, [r3, #0]
 80005c6:	f88d 300f 	strb.w	r3, [sp, #15]
 80005ca:	e03f      	b.n	800064c <cdcacm_data_rx_cb+0x220>
 80005cc:	f89d 300f 	ldrb.w	r3, [sp, #15]
 80005d0:	3b01      	subs	r3, #1
 80005d2:	4618      	mov	r0, r3
 80005d4:	f005 fa78 	bl	8005ac8 <__aeabi_i2d>
 80005d8:	4603      	mov	r3, r0
 80005da:	460c      	mov	r4, r1
 80005dc:	461a      	mov	r2, r3
 80005de:	4623      	mov	r3, r4
 80005e0:	f04f 0000 	mov.w	r0, #0
 80005e4:	493e      	ldr	r1, [pc, #248]	; (80006e0 <cdcacm_data_rx_cb+0x2b4>)
 80005e6:	f002 feef 	bl	80033c8 <pow>
 80005ea:	4604      	mov	r4, r0
 80005ec:	460d      	mov	r5, r1
 80005ee:	4b33      	ldr	r3, [pc, #204]	; (80006bc <cdcacm_data_rx_cb+0x290>)
 80005f0:	781b      	ldrb	r3, [r3, #0]
 80005f2:	461a      	mov	r2, r3
 80005f4:	f89d 300f 	ldrb.w	r3, [sp, #15]
 80005f8:	1ad3      	subs	r3, r2, r3
 80005fa:	4a32      	ldr	r2, [pc, #200]	; (80006c4 <cdcacm_data_rx_cb+0x298>)
 80005fc:	5cd3      	ldrb	r3, [r2, r3]
 80005fe:	3b30      	subs	r3, #48	; 0x30
 8000600:	4618      	mov	r0, r3
 8000602:	f005 fa61 	bl	8005ac8 <__aeabi_i2d>
 8000606:	4602      	mov	r2, r0
 8000608:	460b      	mov	r3, r1
 800060a:	4620      	mov	r0, r4
 800060c:	4629      	mov	r1, r5
 800060e:	f005 fac5 	bl	8005b9c <__aeabi_dmul>
 8000612:	4603      	mov	r3, r0
 8000614:	460c      	mov	r4, r1
 8000616:	4625      	mov	r5, r4
 8000618:	461c      	mov	r4, r3
 800061a:	4b30      	ldr	r3, [pc, #192]	; (80006dc <cdcacm_data_rx_cb+0x2b0>)
 800061c:	681b      	ldr	r3, [r3, #0]
 800061e:	4618      	mov	r0, r3
 8000620:	f005 fa42 	bl	8005aa8 <__aeabi_ui2d>
 8000624:	4602      	mov	r2, r0
 8000626:	460b      	mov	r3, r1
 8000628:	4620      	mov	r0, r4
 800062a:	4629      	mov	r1, r5
 800062c:	f005 f900 	bl	8005830 <__adddf3>
 8000630:	4603      	mov	r3, r0
 8000632:	460c      	mov	r4, r1
 8000634:	4618      	mov	r0, r3
 8000636:	4621      	mov	r1, r4
 8000638:	f005 fd88 	bl	800614c <__aeabi_d2uiz>
 800063c:	4602      	mov	r2, r0
 800063e:	4b27      	ldr	r3, [pc, #156]	; (80006dc <cdcacm_data_rx_cb+0x2b0>)
 8000640:	601a      	str	r2, [r3, #0]
 8000642:	f89d 300f 	ldrb.w	r3, [sp, #15]
 8000646:	3b01      	subs	r3, #1
 8000648:	f88d 300f 	strb.w	r3, [sp, #15]
 800064c:	f89d 300f 	ldrb.w	r3, [sp, #15]
 8000650:	2b00      	cmp	r3, #0
 8000652:	d1bb      	bne.n	80005cc <cdcacm_data_rx_cb+0x1a0>
 8000654:	4b21      	ldr	r3, [pc, #132]	; (80006dc <cdcacm_data_rx_cb+0x2b0>)
 8000656:	681a      	ldr	r2, [r3, #0]
 8000658:	4b22      	ldr	r3, [pc, #136]	; (80006e4 <cdcacm_data_rx_cb+0x2b8>)
 800065a:	681b      	ldr	r3, [r3, #0]
 800065c:	429a      	cmp	r2, r3
 800065e:	d80c      	bhi.n	800067a <cdcacm_data_rx_cb+0x24e>
 8000660:	4b10      	ldr	r3, [pc, #64]	; (80006a4 <cdcacm_data_rx_cb+0x278>)
 8000662:	781b      	ldrb	r3, [r3, #0]
 8000664:	3301      	adds	r3, #1
 8000666:	b2da      	uxtb	r2, r3
 8000668:	4b0e      	ldr	r3, [pc, #56]	; (80006a4 <cdcacm_data_rx_cb+0x278>)
 800066a:	701a      	strb	r2, [r3, #0]
 800066c:	4b13      	ldr	r3, [pc, #76]	; (80006bc <cdcacm_data_rx_cb+0x290>)
 800066e:	2200      	movs	r2, #0
 8000670:	701a      	strb	r2, [r3, #0]
 8000672:	4b0b      	ldr	r3, [pc, #44]	; (80006a0 <cdcacm_data_rx_cb+0x274>)
 8000674:	2200      	movs	r2, #0
 8000676:	701a      	strb	r2, [r3, #0]
 8000678:	e044      	b.n	8000704 <cdcacm_data_rx_cb+0x2d8>
 800067a:	221a      	movs	r2, #26
 800067c:	491a      	ldr	r1, [pc, #104]	; (80006e8 <cdcacm_data_rx_cb+0x2bc>)
 800067e:	9801      	ldr	r0, [sp, #4]
 8000680:	f000 f969 	bl	8000956 <printm>
 8000684:	2208      	movs	r2, #8
 8000686:	490c      	ldr	r1, [pc, #48]	; (80006b8 <cdcacm_data_rx_cb+0x28c>)
 8000688:	9801      	ldr	r0, [sp, #4]
 800068a:	f000 f964 	bl	8000956 <printm>
 800068e:	4b13      	ldr	r3, [pc, #76]	; (80006dc <cdcacm_data_rx_cb+0x2b0>)
 8000690:	f44f 727a 	mov.w	r2, #1000	; 0x3e8
 8000694:	601a      	str	r2, [r3, #0]
 8000696:	4b09      	ldr	r3, [pc, #36]	; (80006bc <cdcacm_data_rx_cb+0x290>)
 8000698:	2200      	movs	r2, #0
 800069a:	701a      	strb	r2, [r3, #0]
 800069c:	e032      	b.n	8000704 <cdcacm_data_rx_cb+0x2d8>
 800069e:	bf00      	nop
 80006a0:	200000f0 	.word	0x200000f0
 80006a4:	20000085 	.word	0x20000085
 80006a8:	20000130 	.word	0x20000130
 80006ac:	200000ec 	.word	0x200000ec
 80006b0:	08006344 	.word	0x08006344
 80006b4:	0800635c 	.word	0x0800635c
 80006b8:	0800637c 	.word	0x0800637c
 80006bc:	20000084 	.word	0x20000084
 80006c0:	200000ed 	.word	0x200000ed
 80006c4:	20000134 	.word	0x20000134
 80006c8:	08006388 	.word	0x08006388
 80006cc:	080063b0 	.word	0x080063b0
 80006d0:	080061cc 	.word	0x080061cc
 80006d4:	20000140 	.word	0x20000140
 80006d8:	080061d4 	.word	0x080061d4
 80006dc:	20000010 	.word	0x20000010
 80006e0:	40240000 	.word	0x40240000
 80006e4:	20000018 	.word	0x20000018
 80006e8:	080063c0 	.word	0x080063c0
 80006ec:	4b70      	ldr	r3, [pc, #448]	; (80008b0 <cdcacm_data_rx_cb+0x484>)
 80006ee:	781b      	ldrb	r3, [r3, #0]
 80006f0:	3301      	adds	r3, #1
 80006f2:	b2da      	uxtb	r2, r3
 80006f4:	4b6e      	ldr	r3, [pc, #440]	; (80008b0 <cdcacm_data_rx_cb+0x484>)
 80006f6:	701a      	strb	r2, [r3, #0]
 80006f8:	4b6e      	ldr	r3, [pc, #440]	; (80008b4 <cdcacm_data_rx_cb+0x488>)
 80006fa:	2200      	movs	r2, #0
 80006fc:	701a      	strb	r2, [r3, #0]
 80006fe:	4b6e      	ldr	r3, [pc, #440]	; (80008b8 <cdcacm_data_rx_cb+0x48c>)
 8000700:	2200      	movs	r2, #0
 8000702:	701a      	strb	r2, [r3, #0]
 8000704:	4b6a      	ldr	r3, [pc, #424]	; (80008b0 <cdcacm_data_rx_cb+0x484>)
 8000706:	781b      	ldrb	r3, [r3, #0]
 8000708:	2b02      	cmp	r3, #2
 800070a:	f040 80ce 	bne.w	80008aa <cdcacm_data_rx_cb+0x47e>
 800070e:	4b69      	ldr	r3, [pc, #420]	; (80008b4 <cdcacm_data_rx_cb+0x488>)
 8000710:	781b      	ldrb	r3, [r3, #0]
 8000712:	2b03      	cmp	r3, #3
 8000714:	d815      	bhi.n	8000742 <cdcacm_data_rx_cb+0x316>
 8000716:	4b69      	ldr	r3, [pc, #420]	; (80008bc <cdcacm_data_rx_cb+0x490>)
 8000718:	781b      	ldrb	r3, [r3, #0]
 800071a:	2b00      	cmp	r3, #0
 800071c:	d022      	beq.n	8000764 <cdcacm_data_rx_cb+0x338>
 800071e:	4b66      	ldr	r3, [pc, #408]	; (80008b8 <cdcacm_data_rx_cb+0x48c>)
 8000720:	781b      	ldrb	r3, [r3, #0]
 8000722:	2b0d      	cmp	r3, #13
 8000724:	d01e      	beq.n	8000764 <cdcacm_data_rx_cb+0x338>
 8000726:	4b63      	ldr	r3, [pc, #396]	; (80008b4 <cdcacm_data_rx_cb+0x488>)
 8000728:	781b      	ldrb	r3, [r3, #0]
 800072a:	461a      	mov	r2, r3
 800072c:	4b62      	ldr	r3, [pc, #392]	; (80008b8 <cdcacm_data_rx_cb+0x48c>)
 800072e:	7819      	ldrb	r1, [r3, #0]
 8000730:	4b63      	ldr	r3, [pc, #396]	; (80008c0 <cdcacm_data_rx_cb+0x494>)
 8000732:	5499      	strb	r1, [r3, r2]
 8000734:	4b5f      	ldr	r3, [pc, #380]	; (80008b4 <cdcacm_data_rx_cb+0x488>)
 8000736:	781b      	ldrb	r3, [r3, #0]
 8000738:	3301      	adds	r3, #1
 800073a:	b2da      	uxtb	r2, r3
 800073c:	4b5d      	ldr	r3, [pc, #372]	; (80008b4 <cdcacm_data_rx_cb+0x488>)
 800073e:	701a      	strb	r2, [r3, #0]
 8000740:	e010      	b.n	8000764 <cdcacm_data_rx_cb+0x338>
 8000742:	4b5d      	ldr	r3, [pc, #372]	; (80008b8 <cdcacm_data_rx_cb+0x48c>)
 8000744:	781b      	ldrb	r3, [r3, #0]
 8000746:	2b0d      	cmp	r3, #13
 8000748:	d00c      	beq.n	8000764 <cdcacm_data_rx_cb+0x338>
 800074a:	4b5a      	ldr	r3, [pc, #360]	; (80008b4 <cdcacm_data_rx_cb+0x488>)
 800074c:	2200      	movs	r2, #0
 800074e:	701a      	strb	r2, [r3, #0]
 8000750:	2224      	movs	r2, #36	; 0x24
 8000752:	495c      	ldr	r1, [pc, #368]	; (80008c4 <cdcacm_data_rx_cb+0x498>)
 8000754:	9801      	ldr	r0, [sp, #4]
 8000756:	f000 f8fe 	bl	8000956 <printm>
 800075a:	2208      	movs	r2, #8
 800075c:	495a      	ldr	r1, [pc, #360]	; (80008c8 <cdcacm_data_rx_cb+0x49c>)
 800075e:	9801      	ldr	r0, [sp, #4]
 8000760:	f000 f8f9 	bl	8000956 <printm>
 8000764:	4b55      	ldr	r3, [pc, #340]	; (80008bc <cdcacm_data_rx_cb+0x490>)
 8000766:	781b      	ldrb	r3, [r3, #0]
 8000768:	f083 0301 	eor.w	r3, r3, #1
 800076c:	b2db      	uxtb	r3, r3
 800076e:	2b00      	cmp	r3, #0
 8000770:	d00f      	beq.n	8000792 <cdcacm_data_rx_cb+0x366>
 8000772:	221f      	movs	r2, #31
 8000774:	4955      	ldr	r1, [pc, #340]	; (80008cc <cdcacm_data_rx_cb+0x4a0>)
 8000776:	9801      	ldr	r0, [sp, #4]
 8000778:	f000 f8ed 	bl	8000956 <printm>
 800077c:	2208      	movs	r2, #8
 800077e:	4952      	ldr	r1, [pc, #328]	; (80008c8 <cdcacm_data_rx_cb+0x49c>)
 8000780:	9801      	ldr	r0, [sp, #4]
 8000782:	f000 f8e8 	bl	8000956 <printm>
 8000786:	4b4d      	ldr	r3, [pc, #308]	; (80008bc <cdcacm_data_rx_cb+0x490>)
 8000788:	2201      	movs	r2, #1
 800078a:	701a      	strb	r2, [r3, #0]
 800078c:	4b49      	ldr	r3, [pc, #292]	; (80008b4 <cdcacm_data_rx_cb+0x488>)
 800078e:	2200      	movs	r2, #0
 8000790:	701a      	strb	r2, [r3, #0]
 8000792:	4b49      	ldr	r3, [pc, #292]	; (80008b8 <cdcacm_data_rx_cb+0x48c>)
 8000794:	781b      	ldrb	r3, [r3, #0]
 8000796:	2b0d      	cmp	r3, #13
 8000798:	f040 8087 	bne.w	80008aa <cdcacm_data_rx_cb+0x47e>
 800079c:	4b45      	ldr	r3, [pc, #276]	; (80008b4 <cdcacm_data_rx_cb+0x488>)
 800079e:	781b      	ldrb	r3, [r3, #0]
 80007a0:	2b01      	cmp	r3, #1
 80007a2:	d973      	bls.n	800088c <cdcacm_data_rx_cb+0x460>
 80007a4:	4b4a      	ldr	r3, [pc, #296]	; (80008d0 <cdcacm_data_rx_cb+0x4a4>)
 80007a6:	2200      	movs	r2, #0
 80007a8:	601a      	str	r2, [r3, #0]
 80007aa:	4b42      	ldr	r3, [pc, #264]	; (80008b4 <cdcacm_data_rx_cb+0x488>)
 80007ac:	781b      	ldrb	r3, [r3, #0]
 80007ae:	f88d 300e 	strb.w	r3, [sp, #14]
 80007b2:	e03f      	b.n	8000834 <cdcacm_data_rx_cb+0x408>
 80007b4:	f89d 300e 	ldrb.w	r3, [sp, #14]
 80007b8:	3b01      	subs	r3, #1
 80007ba:	4618      	mov	r0, r3
 80007bc:	f005 f984 	bl	8005ac8 <__aeabi_i2d>
 80007c0:	4603      	mov	r3, r0
 80007c2:	460c      	mov	r4, r1
 80007c4:	461a      	mov	r2, r3
 80007c6:	4623      	mov	r3, r4
 80007c8:	f04f 0000 	mov.w	r0, #0
 80007cc:	4941      	ldr	r1, [pc, #260]	; (80008d4 <cdcacm_data_rx_cb+0x4a8>)
 80007ce:	f002 fdfb 	bl	80033c8 <pow>
 80007d2:	4604      	mov	r4, r0
 80007d4:	460d      	mov	r5, r1
 80007d6:	4b37      	ldr	r3, [pc, #220]	; (80008b4 <cdcacm_data_rx_cb+0x488>)
 80007d8:	781b      	ldrb	r3, [r3, #0]
 80007da:	461a      	mov	r2, r3
 80007dc:	f89d 300e 	ldrb.w	r3, [sp, #14]
 80007e0:	1ad3      	subs	r3, r2, r3
 80007e2:	4a37      	ldr	r2, [pc, #220]	; (80008c0 <cdcacm_data_rx_cb+0x494>)
 80007e4:	5cd3      	ldrb	r3, [r2, r3]
 80007e6:	3b30      	subs	r3, #48	; 0x30
 80007e8:	4618      	mov	r0, r3
 80007ea:	f005 f96d 	bl	8005ac8 <__aeabi_i2d>
 80007ee:	4602      	mov	r2, r0
 80007f0:	460b      	mov	r3, r1
 80007f2:	4620      	mov	r0, r4
 80007f4:	4629      	mov	r1, r5
 80007f6:	f005 f9d1 	bl	8005b9c <__aeabi_dmul>
 80007fa:	4603      	mov	r3, r0
 80007fc:	460c      	mov	r4, r1
 80007fe:	4625      	mov	r5, r4
 8000800:	461c      	mov	r4, r3
 8000802:	4b33      	ldr	r3, [pc, #204]	; (80008d0 <cdcacm_data_rx_cb+0x4a4>)
 8000804:	681b      	ldr	r3, [r3, #0]
 8000806:	4618      	mov	r0, r3
 8000808:	f005 f94e 	bl	8005aa8 <__aeabi_ui2d>
 800080c:	4602      	mov	r2, r0
 800080e:	460b      	mov	r3, r1
 8000810:	4620      	mov	r0, r4
 8000812:	4629      	mov	r1, r5
 8000814:	f005 f80c 	bl	8005830 <__adddf3>
 8000818:	4603      	mov	r3, r0
 800081a:	460c      	mov	r4, r1
 800081c:	4618      	mov	r0, r3
 800081e:	4621      	mov	r1, r4
 8000820:	f005 fc94 	bl	800614c <__aeabi_d2uiz>
 8000824:	4602      	mov	r2, r0
 8000826:	4b2a      	ldr	r3, [pc, #168]	; (80008d0 <cdcacm_data_rx_cb+0x4a4>)
 8000828:	601a      	str	r2, [r3, #0]
 800082a:	f89d 300e 	ldrb.w	r3, [sp, #14]
 800082e:	3b01      	subs	r3, #1
 8000830:	f88d 300e 	strb.w	r3, [sp, #14]
 8000834:	f89d 300e 	ldrb.w	r3, [sp, #14]
 8000838:	2b00      	cmp	r3, #0
 800083a:	d1bb      	bne.n	80007b4 <cdcacm_data_rx_cb+0x388>
 800083c:	4b24      	ldr	r3, [pc, #144]	; (80008d0 <cdcacm_data_rx_cb+0x4a4>)
 800083e:	681b      	ldr	r3, [r3, #0]
 8000840:	f640 32b8 	movw	r2, #3000	; 0xbb8
 8000844:	4293      	cmp	r3, r2
 8000846:	d80f      	bhi.n	8000868 <cdcacm_data_rx_cb+0x43c>
 8000848:	4b23      	ldr	r3, [pc, #140]	; (80008d8 <cdcacm_data_rx_cb+0x4ac>)
 800084a:	695b      	ldr	r3, [r3, #20]
 800084c:	f403 4270 	and.w	r2, r3, #61440	; 0xf000
 8000850:	4b21      	ldr	r3, [pc, #132]	; (80008d8 <cdcacm_data_rx_cb+0x4ac>)
 8000852:	695b      	ldr	r3, [r3, #20]
 8000854:	4920      	ldr	r1, [pc, #128]	; (80008d8 <cdcacm_data_rx_cb+0x4ac>)
 8000856:	4053      	eors	r3, r2
 8000858:	614b      	str	r3, [r1, #20]
 800085a:	4b20      	ldr	r3, [pc, #128]	; (80008dc <cdcacm_data_rx_cb+0x4b0>)
 800085c:	220f      	movs	r2, #15
 800085e:	701a      	strb	r2, [r3, #0]
 8000860:	4b1f      	ldr	r3, [pc, #124]	; (80008e0 <cdcacm_data_rx_cb+0x4b4>)
 8000862:	2201      	movs	r2, #1
 8000864:	701a      	strb	r2, [r3, #0]
 8000866:	e020      	b.n	80008aa <cdcacm_data_rx_cb+0x47e>
 8000868:	221a      	movs	r2, #26
 800086a:	491e      	ldr	r1, [pc, #120]	; (80008e4 <cdcacm_data_rx_cb+0x4b8>)
 800086c:	9801      	ldr	r0, [sp, #4]
 800086e:	f000 f872 	bl	8000956 <printm>
 8000872:	2208      	movs	r2, #8
 8000874:	4914      	ldr	r1, [pc, #80]	; (80008c8 <cdcacm_data_rx_cb+0x49c>)
 8000876:	9801      	ldr	r0, [sp, #4]
 8000878:	f000 f86d 	bl	8000956 <printm>
 800087c:	4b14      	ldr	r3, [pc, #80]	; (80008d0 <cdcacm_data_rx_cb+0x4a4>)
 800087e:	f44f 62fa 	mov.w	r2, #2000	; 0x7d0
 8000882:	601a      	str	r2, [r3, #0]
 8000884:	4b0b      	ldr	r3, [pc, #44]	; (80008b4 <cdcacm_data_rx_cb+0x488>)
 8000886:	2200      	movs	r2, #0
 8000888:	701a      	strb	r2, [r3, #0]
 800088a:	e00e      	b.n	80008aa <cdcacm_data_rx_cb+0x47e>
 800088c:	4b12      	ldr	r3, [pc, #72]	; (80008d8 <cdcacm_data_rx_cb+0x4ac>)
 800088e:	695b      	ldr	r3, [r3, #20]
 8000890:	f403 4270 	and.w	r2, r3, #61440	; 0xf000
 8000894:	4b10      	ldr	r3, [pc, #64]	; (80008d8 <cdcacm_data_rx_cb+0x4ac>)
 8000896:	695b      	ldr	r3, [r3, #20]
 8000898:	490f      	ldr	r1, [pc, #60]	; (80008d8 <cdcacm_data_rx_cb+0x4ac>)
 800089a:	4053      	eors	r3, r2
 800089c:	614b      	str	r3, [r1, #20]
 800089e:	4b0f      	ldr	r3, [pc, #60]	; (80008dc <cdcacm_data_rx_cb+0x4b0>)
 80008a0:	220f      	movs	r2, #15
 80008a2:	701a      	strb	r2, [r3, #0]
 80008a4:	4b0e      	ldr	r3, [pc, #56]	; (80008e0 <cdcacm_data_rx_cb+0x4b4>)
 80008a6:	2201      	movs	r2, #1
 80008a8:	701a      	strb	r2, [r3, #0]
 80008aa:	bf00      	nop
 80008ac:	b005      	add	sp, #20
 80008ae:	bd30      	pop	{r4, r5, pc}
 80008b0:	20000085 	.word	0x20000085
 80008b4:	20000084 	.word	0x20000084
 80008b8:	200000f0 	.word	0x200000f0
 80008bc:	200000ee 	.word	0x200000ee
 80008c0:	2000013c 	.word	0x2000013c
 80008c4:	08006388 	.word	0x08006388
 80008c8:	0800637c 	.word	0x0800637c
 80008cc:	080063dc 	.word	0x080063dc
 80008d0:	20000014 	.word	0x20000014
 80008d4:	40240000 	.word	0x40240000
 80008d8:	40020c00 	.word	0x40020c00
 80008dc:	2000000c 	.word	0x2000000c
 80008e0:	200000ef 	.word	0x200000ef
 80008e4:	080063c0 	.word	0x080063c0

080008e8 <print>:
 80008e8:	b500      	push	{lr}
 80008ea:	b083      	sub	sp, #12
 80008ec:	9001      	str	r0, [sp, #4]
 80008ee:	bf00      	nop
 80008f0:	2336      	movs	r3, #54	; 0x36
 80008f2:	4a0b      	ldr	r2, [pc, #44]	; (8000920 <print+0x38>)
 80008f4:	2182      	movs	r1, #130	; 0x82
 80008f6:	9801      	ldr	r0, [sp, #4]
 80008f8:	f000 fc9b 	bl	8001232 <usbd_ep_write_packet>
 80008fc:	4603      	mov	r3, r0
 80008fe:	2b00      	cmp	r3, #0
 8000900:	d0f6      	beq.n	80008f0 <print+0x8>
 8000902:	bf00      	nop
 8000904:	2323      	movs	r3, #35	; 0x23
 8000906:	4a07      	ldr	r2, [pc, #28]	; (8000924 <print+0x3c>)
 8000908:	2182      	movs	r1, #130	; 0x82
 800090a:	9801      	ldr	r0, [sp, #4]
 800090c:	f000 fc91 	bl	8001232 <usbd_ep_write_packet>
 8000910:	4603      	mov	r3, r0
 8000912:	2b00      	cmp	r3, #0
 8000914:	d0f6      	beq.n	8000904 <print+0x1c>
 8000916:	bf00      	nop
 8000918:	b003      	add	sp, #12
 800091a:	f85d fb04 	ldr.w	pc, [sp], #4
 800091e:	bf00      	nop
 8000920:	080062e8 	.word	0x080062e8
 8000924:	08006320 	.word	0x08006320

08000928 <prints>:
 8000928:	b500      	push	{lr}
 800092a:	b085      	sub	sp, #20
 800092c:	9003      	str	r0, [sp, #12]
 800092e:	9102      	str	r1, [sp, #8]
 8000930:	4613      	mov	r3, r2
 8000932:	f88d 3007 	strb.w	r3, [sp, #7]
 8000936:	bf00      	nop
 8000938:	f89d 3007 	ldrb.w	r3, [sp, #7]
 800093c:	b29b      	uxth	r3, r3
 800093e:	9a02      	ldr	r2, [sp, #8]
 8000940:	2182      	movs	r1, #130	; 0x82
 8000942:	9803      	ldr	r0, [sp, #12]
 8000944:	f000 fc75 	bl	8001232 <usbd_ep_write_packet>
 8000948:	4603      	mov	r3, r0
 800094a:	2b00      	cmp	r3, #0
 800094c:	d0f4      	beq.n	8000938 <prints+0x10>
 800094e:	bf00      	nop
 8000950:	b005      	add	sp, #20
 8000952:	f85d fb04 	ldr.w	pc, [sp], #4

08000956 <printm>:
 8000956:	b500      	push	{lr}
 8000958:	b085      	sub	sp, #20
 800095a:	9003      	str	r0, [sp, #12]
 800095c:	9102      	str	r1, [sp, #8]
 800095e:	4613      	mov	r3, r2
 8000960:	f88d 3007 	strb.w	r3, [sp, #7]
 8000964:	bf00      	nop
 8000966:	f89d 3007 	ldrb.w	r3, [sp, #7]
 800096a:	b29b      	uxth	r3, r3
 800096c:	9a02      	ldr	r2, [sp, #8]
 800096e:	2182      	movs	r1, #130	; 0x82
 8000970:	9803      	ldr	r0, [sp, #12]
 8000972:	f000 fc5e 	bl	8001232 <usbd_ep_write_packet>
 8000976:	4603      	mov	r3, r0
 8000978:	2b00      	cmp	r3, #0
 800097a:	d0f4      	beq.n	8000966 <printm+0x10>
 800097c:	bf00      	nop
 800097e:	b005      	add	sp, #20
 8000980:	f85d fb04 	ldr.w	pc, [sp], #4

08000984 <main>:
 8000984:	b530      	push	{r4, r5, lr}
 8000986:	b097      	sub	sp, #92	; 0x5c
 8000988:	f002 fc7c 	bl	8003284 <set_sysclk_to_168>
 800098c:	2101      	movs	r1, #1
 800098e:	48a8      	ldr	r0, [pc, #672]	; (8000c30 <main+0x2ac>)
 8000990:	f7ff fcb4 	bl	80002fc <init_systick>
 8000994:	4ba7      	ldr	r3, [pc, #668]	; (8000c34 <main+0x2b0>)
 8000996:	6b1b      	ldr	r3, [r3, #48]	; 0x30
 8000998:	4aa6      	ldr	r2, [pc, #664]	; (8000c34 <main+0x2b0>)
 800099a:	f043 0308 	orr.w	r3, r3, #8
 800099e:	6313      	str	r3, [r2, #48]	; 0x30
 80009a0:	4ba5      	ldr	r3, [pc, #660]	; (8000c38 <main+0x2b4>)
 80009a2:	681b      	ldr	r3, [r3, #0]
 80009a4:	4aa4      	ldr	r2, [pc, #656]	; (8000c38 <main+0x2b4>)
 80009a6:	f023 437f 	bic.w	r3, r3, #4278190080	; 0xff000000
 80009aa:	6013      	str	r3, [r2, #0]
 80009ac:	4ba2      	ldr	r3, [pc, #648]	; (8000c38 <main+0x2b4>)
 80009ae:	681b      	ldr	r3, [r3, #0]
 80009b0:	4aa1      	ldr	r2, [pc, #644]	; (8000c38 <main+0x2b4>)
 80009b2:	f043 43aa 	orr.w	r3, r3, #1426063360	; 0x55000000
 80009b6:	6013      	str	r3, [r2, #0]
 80009b8:	4b9f      	ldr	r3, [pc, #636]	; (8000c38 <main+0x2b4>)
 80009ba:	695b      	ldr	r3, [r3, #20]
 80009bc:	4a9e      	ldr	r2, [pc, #632]	; (8000c38 <main+0x2b4>)
 80009be:	f443 4370 	orr.w	r3, r3, #61440	; 0xf000
 80009c2:	6153      	str	r3, [r2, #20]
 80009c4:	4b9b      	ldr	r3, [pc, #620]	; (8000c34 <main+0x2b0>)
 80009c6:	6b1b      	ldr	r3, [r3, #48]	; 0x30
 80009c8:	4a9a      	ldr	r2, [pc, #616]	; (8000c34 <main+0x2b0>)
 80009ca:	f043 0301 	orr.w	r3, r3, #1
 80009ce:	6313      	str	r3, [r2, #48]	; 0x30
 80009d0:	4b98      	ldr	r3, [pc, #608]	; (8000c34 <main+0x2b0>)
 80009d2:	6b5b      	ldr	r3, [r3, #52]	; 0x34
 80009d4:	4a97      	ldr	r2, [pc, #604]	; (8000c34 <main+0x2b0>)
 80009d6:	f043 0380 	orr.w	r3, r3, #128	; 0x80
 80009da:	6353      	str	r3, [r2, #52]	; 0x34
 80009dc:	4b97      	ldr	r3, [pc, #604]	; (8000c3c <main+0x2b8>)
 80009de:	681b      	ldr	r3, [r3, #0]
 80009e0:	4a96      	ldr	r2, [pc, #600]	; (8000c3c <main+0x2b8>)
 80009e2:	f023 7373 	bic.w	r3, r3, #63700992	; 0x3cc0000
 80009e6:	6013      	str	r3, [r2, #0]
 80009e8:	4b94      	ldr	r3, [pc, #592]	; (8000c3c <main+0x2b8>)
 80009ea:	681b      	ldr	r3, [r3, #0]
 80009ec:	4a93      	ldr	r2, [pc, #588]	; (8000c3c <main+0x2b8>)
 80009ee:	f023 0303 	bic.w	r3, r3, #3
 80009f2:	6013      	str	r3, [r2, #0]
 80009f4:	4b91      	ldr	r3, [pc, #580]	; (8000c3c <main+0x2b8>)
 80009f6:	681b      	ldr	r3, [r3, #0]
 80009f8:	4a90      	ldr	r2, [pc, #576]	; (8000c3c <main+0x2b8>)
 80009fa:	f443 2300 	orr.w	r3, r3, #524288	; 0x80000
 80009fe:	6013      	str	r3, [r2, #0]
 8000a00:	4b8e      	ldr	r3, [pc, #568]	; (8000c3c <main+0x2b8>)
 8000a02:	681b      	ldr	r3, [r3, #0]
 8000a04:	4a8d      	ldr	r2, [pc, #564]	; (8000c3c <main+0x2b8>)
 8000a06:	f443 0300 	orr.w	r3, r3, #8388608	; 0x800000
 8000a0a:	6013      	str	r3, [r2, #0]
 8000a0c:	4b8b      	ldr	r3, [pc, #556]	; (8000c3c <main+0x2b8>)
 8000a0e:	681b      	ldr	r3, [r3, #0]
 8000a10:	4a8a      	ldr	r2, [pc, #552]	; (8000c3c <main+0x2b8>)
 8000a12:	f043 7300 	orr.w	r3, r3, #33554432	; 0x2000000
 8000a16:	6013      	str	r3, [r2, #0]
 8000a18:	4b88      	ldr	r3, [pc, #544]	; (8000c3c <main+0x2b8>)
 8000a1a:	6a5b      	ldr	r3, [r3, #36]	; 0x24
 8000a1c:	4a87      	ldr	r2, [pc, #540]	; (8000c3c <main+0x2b8>)
 8000a1e:	f043 03a0 	orr.w	r3, r3, #160	; 0xa0
 8000a22:	6253      	str	r3, [r2, #36]	; 0x24
 8000a24:	4b85      	ldr	r3, [pc, #532]	; (8000c3c <main+0x2b8>)
 8000a26:	6a5b      	ldr	r3, [r3, #36]	; 0x24
 8000a28:	4a84      	ldr	r2, [pc, #528]	; (8000c3c <main+0x2b8>)
 8000a2a:	f443 4320 	orr.w	r3, r3, #40960	; 0xa000
 8000a2e:	6253      	str	r3, [r2, #36]	; 0x24
 8000a30:	4b82      	ldr	r3, [pc, #520]	; (8000c3c <main+0x2b8>)
 8000a32:	6a5b      	ldr	r3, [r3, #36]	; 0x24
 8000a34:	4a81      	ldr	r2, [pc, #516]	; (8000c3c <main+0x2b8>)
 8000a36:	f443 2320 	orr.w	r3, r3, #655360	; 0xa0000
 8000a3a:	6253      	str	r3, [r2, #36]	; 0x24
 8000a3c:	4b7d      	ldr	r3, [pc, #500]	; (8000c34 <main+0x2b0>)
 8000a3e:	6b1b      	ldr	r3, [r3, #48]	; 0x30
 8000a40:	4a7c      	ldr	r2, [pc, #496]	; (8000c34 <main+0x2b0>)
 8000a42:	f043 0301 	orr.w	r3, r3, #1
 8000a46:	6313      	str	r3, [r2, #48]	; 0x30
 8000a48:	4b7c      	ldr	r3, [pc, #496]	; (8000c3c <main+0x2b8>)
 8000a4a:	681b      	ldr	r3, [r3, #0]
 8000a4c:	4a7b      	ldr	r2, [pc, #492]	; (8000c3c <main+0x2b8>)
 8000a4e:	f423 7340 	bic.w	r3, r3, #768	; 0x300
 8000a52:	6013      	str	r3, [r2, #0]
 8000a54:	4b79      	ldr	r3, [pc, #484]	; (8000c3c <main+0x2b8>)
 8000a56:	681b      	ldr	r3, [r3, #0]
 8000a58:	4a78      	ldr	r2, [pc, #480]	; (8000c3c <main+0x2b8>)
 8000a5a:	f443 7340 	orr.w	r3, r3, #768	; 0x300
 8000a5e:	6013      	str	r3, [r2, #0]
 8000a60:	4b74      	ldr	r3, [pc, #464]	; (8000c34 <main+0x2b0>)
 8000a62:	6c1b      	ldr	r3, [r3, #64]	; 0x40
 8000a64:	4a73      	ldr	r2, [pc, #460]	; (8000c34 <main+0x2b0>)
 8000a66:	f043 5300 	orr.w	r3, r3, #536870912	; 0x20000000
 8000a6a:	6413      	str	r3, [r2, #64]	; 0x40
 8000a6c:	4b74      	ldr	r3, [pc, #464]	; (8000c40 <main+0x2bc>)
 8000a6e:	681b      	ldr	r3, [r3, #0]
 8000a70:	4a73      	ldr	r2, [pc, #460]	; (8000c40 <main+0x2bc>)
 8000a72:	f043 0301 	orr.w	r3, r3, #1
 8000a76:	6013      	str	r3, [r2, #0]
 8000a78:	4b71      	ldr	r3, [pc, #452]	; (8000c40 <main+0x2bc>)
 8000a7a:	4a71      	ldr	r2, [pc, #452]	; (8000c40 <main+0x2bc>)
 8000a7c:	681b      	ldr	r3, [r3, #0]
 8000a7e:	6013      	str	r3, [r2, #0]
 8000a80:	4b6f      	ldr	r3, [pc, #444]	; (8000c40 <main+0x2bc>)
 8000a82:	681b      	ldr	r3, [r3, #0]
 8000a84:	4a6e      	ldr	r2, [pc, #440]	; (8000c40 <main+0x2bc>)
 8000a86:	f043 0304 	orr.w	r3, r3, #4
 8000a8a:	6013      	str	r3, [r2, #0]
 8000a8c:	4b6c      	ldr	r3, [pc, #432]	; (8000c40 <main+0x2bc>)
 8000a8e:	681b      	ldr	r3, [r3, #0]
 8000a90:	4a6b      	ldr	r2, [pc, #428]	; (8000c40 <main+0x2bc>)
 8000a92:	f043 0338 	orr.w	r3, r3, #56	; 0x38
 8000a96:	6013      	str	r3, [r2, #0]
 8000a98:	4b69      	ldr	r3, [pc, #420]	; (8000c40 <main+0x2bc>)
 8000a9a:	f640 72ff 	movw	r2, #4095	; 0xfff
 8000a9e:	609a      	str	r2, [r3, #8]
 8000aa0:	4b67      	ldr	r3, [pc, #412]	; (8000c40 <main+0x2bc>)
 8000aa2:	685b      	ldr	r3, [r3, #4]
 8000aa4:	4a66      	ldr	r2, [pc, #408]	; (8000c40 <main+0x2bc>)
 8000aa6:	f043 0301 	orr.w	r3, r3, #1
 8000aaa:	6053      	str	r3, [r2, #4]
 8000aac:	2380      	movs	r3, #128	; 0x80
 8000aae:	9302      	str	r3, [sp, #8]
 8000ab0:	4b64      	ldr	r3, [pc, #400]	; (8000c44 <main+0x2c0>)
 8000ab2:	9301      	str	r3, [sp, #4]
 8000ab4:	2303      	movs	r3, #3
 8000ab6:	9300      	str	r3, [sp, #0]
 8000ab8:	4b63      	ldr	r3, [pc, #396]	; (8000c48 <main+0x2c4>)
 8000aba:	4a64      	ldr	r2, [pc, #400]	; (8000c4c <main+0x2c8>)
 8000abc:	4964      	ldr	r1, [pc, #400]	; (8000c50 <main+0x2cc>)
 8000abe:	4865      	ldr	r0, [pc, #404]	; (8000c54 <main+0x2d0>)
 8000ac0:	f000 fb1e 	bl	8001100 <usbd_init>
 8000ac4:	900c      	str	r0, [sp, #48]	; 0x30
 8000ac6:	4964      	ldr	r1, [pc, #400]	; (8000c58 <main+0x2d4>)
 8000ac8:	980c      	ldr	r0, [sp, #48]	; 0x30
 8000aca:	f000 fc28 	bl	800131e <usbd_register_set_config_callback>
 8000ace:	4b63      	ldr	r3, [pc, #396]	; (8000c5c <main+0x2d8>)
 8000ad0:	681b      	ldr	r3, [r3, #0]
 8000ad2:	9315      	str	r3, [sp, #84]	; 0x54
 8000ad4:	2300      	movs	r3, #0
 8000ad6:	9314      	str	r3, [sp, #80]	; 0x50
 8000ad8:	e02e      	b.n	8000b38 <main+0x1b4>
 8000ada:	9b14      	ldr	r3, [sp, #80]	; 0x50
 8000adc:	f1c3 0305 	rsb	r3, r3, #5
 8000ae0:	4618      	mov	r0, r3
 8000ae2:	f004 fff1 	bl	8005ac8 <__aeabi_i2d>
 8000ae6:	4603      	mov	r3, r0
 8000ae8:	460c      	mov	r4, r1
 8000aea:	461a      	mov	r2, r3
 8000aec:	4623      	mov	r3, r4
 8000aee:	f04f 0000 	mov.w	r0, #0
 8000af2:	495b      	ldr	r1, [pc, #364]	; (8000c60 <main+0x2dc>)
 8000af4:	f002 fc68 	bl	80033c8 <pow>
 8000af8:	4603      	mov	r3, r0
 8000afa:	460c      	mov	r4, r1
 8000afc:	4618      	mov	r0, r3
 8000afe:	4621      	mov	r1, r4
 8000b00:	f005 fb24 	bl	800614c <__aeabi_d2uiz>
 8000b04:	4603      	mov	r3, r0
 8000b06:	9306      	str	r3, [sp, #24]
 8000b08:	9a15      	ldr	r2, [sp, #84]	; 0x54
 8000b0a:	9b06      	ldr	r3, [sp, #24]
 8000b0c:	fbb2 f3f3 	udiv	r3, r2, r3
 8000b10:	b2db      	uxtb	r3, r3
 8000b12:	3330      	adds	r3, #48	; 0x30
 8000b14:	b2d9      	uxtb	r1, r3
 8000b16:	4a53      	ldr	r2, [pc, #332]	; (8000c64 <main+0x2e0>)
 8000b18:	9b14      	ldr	r3, [sp, #80]	; 0x50
 8000b1a:	4413      	add	r3, r2
 8000b1c:	460a      	mov	r2, r1
 8000b1e:	701a      	strb	r2, [r3, #0]
 8000b20:	9b15      	ldr	r3, [sp, #84]	; 0x54
 8000b22:	9a06      	ldr	r2, [sp, #24]
 8000b24:	fbb3 f2f2 	udiv	r2, r3, r2
 8000b28:	9906      	ldr	r1, [sp, #24]
 8000b2a:	fb01 f202 	mul.w	r2, r1, r2
 8000b2e:	1a9b      	subs	r3, r3, r2
 8000b30:	9315      	str	r3, [sp, #84]	; 0x54
 8000b32:	9b14      	ldr	r3, [sp, #80]	; 0x50
 8000b34:	3301      	adds	r3, #1
 8000b36:	9314      	str	r3, [sp, #80]	; 0x50
 8000b38:	9b14      	ldr	r3, [sp, #80]	; 0x50
 8000b3a:	2b05      	cmp	r3, #5
 8000b3c:	ddcd      	ble.n	8000ada <main+0x156>
 8000b3e:	980c      	ldr	r0, [sp, #48]	; 0x30
 8000b40:	f000 fb49 	bl	80011d6 <usbd_poll>
 8000b44:	4b48      	ldr	r3, [pc, #288]	; (8000c68 <main+0x2e4>)
 8000b46:	781b      	ldrb	r3, [r3, #0]
 8000b48:	2b00      	cmp	r3, #0
 8000b4a:	d100      	bne.n	8000b4e <main+0x1ca>
 8000b4c:	e7f7      	b.n	8000b3e <main+0x1ba>
 8000b4e:	bf00      	nop
 8000b50:	4b46      	ldr	r3, [pc, #280]	; (8000c6c <main+0x2e8>)
 8000b52:	781b      	ldrb	r3, [r3, #0]
 8000b54:	2b31      	cmp	r3, #49	; 0x31
 8000b56:	d15f      	bne.n	8000c18 <main+0x294>
 8000b58:	220d      	movs	r2, #13
 8000b5a:	4945      	ldr	r1, [pc, #276]	; (8000c70 <main+0x2ec>)
 8000b5c:	980c      	ldr	r0, [sp, #48]	; 0x30
 8000b5e:	f7ff fee3 	bl	8000928 <prints>
 8000b62:	2300      	movs	r3, #0
 8000b64:	9313      	str	r3, [sp, #76]	; 0x4c
 8000b66:	e053      	b.n	8000c10 <main+0x28c>
 8000b68:	4b42      	ldr	r3, [pc, #264]	; (8000c74 <main+0x2f0>)
 8000b6a:	681b      	ldr	r3, [r3, #0]
 8000b6c:	f640 72b9 	movw	r2, #4025	; 0xfb9
 8000b70:	fb02 f303 	mul.w	r3, r2, r3
 8000b74:	ee07 3a90 	vmov	s15, r3
 8000b78:	eef8 7a67 	vcvt.f32.u32	s15, s15
 8000b7c:	ed9f 7a3e 	vldr	s14, [pc, #248]	; 8000c78 <main+0x2f4>
 8000b80:	eec7 6a87 	vdiv.f32	s13, s15, s14
 8000b84:	ee16 0a90 	vmov	r0, s13
 8000b88:	f004 ffb0 	bl	8005aec <__aeabi_f2d>
 8000b8c:	4604      	mov	r4, r0
 8000b8e:	460d      	mov	r5, r1
 8000b90:	9b13      	ldr	r3, [sp, #76]	; 0x4c
 8000b92:	ee07 3a90 	vmov	s15, r3
 8000b96:	eef8 7ae7 	vcvt.f32.s32	s15, s15
 8000b9a:	ed9f 7a38 	vldr	s14, [pc, #224]	; 8000c7c <main+0x2f8>
 8000b9e:	ee67 7a87 	vmul.f32	s15, s15, s14
 8000ba2:	ee17 0a90 	vmov	r0, s15
 8000ba6:	f004 ffa1 	bl	8005aec <__aeabi_f2d>
 8000baa:	4602      	mov	r2, r0
 8000bac:	460b      	mov	r3, r1
 8000bae:	4610      	mov	r0, r2
 8000bb0:	4619      	mov	r1, r3
 8000bb2:	f002 fbc5 	bl	8003340 <sin>
 8000bb6:	f04f 0200 	mov.w	r2, #0
 8000bba:	4b31      	ldr	r3, [pc, #196]	; (8000c80 <main+0x2fc>)
 8000bbc:	f004 fe38 	bl	8005830 <__adddf3>
 8000bc0:	4602      	mov	r2, r0
 8000bc2:	460b      	mov	r3, r1
 8000bc4:	4620      	mov	r0, r4
 8000bc6:	4629      	mov	r1, r5
 8000bc8:	f004 ffe8 	bl	8005b9c <__aeabi_dmul>
 8000bcc:	4603      	mov	r3, r0
 8000bce:	460c      	mov	r4, r1
 8000bd0:	4618      	mov	r0, r3
 8000bd2:	4621      	mov	r1, r4
 8000bd4:	f04f 0200 	mov.w	r2, #0
 8000bd8:	f04f 4380 	mov.w	r3, #1073741824	; 0x40000000
 8000bdc:	f005 f908 	bl	8005df0 <__aeabi_ddiv>
 8000be0:	4603      	mov	r3, r0
 8000be2:	460c      	mov	r4, r1
 8000be4:	4618      	mov	r0, r3
 8000be6:	4621      	mov	r1, r4
 8000be8:	f04f 0200 	mov.w	r2, #0
 8000bec:	4b25      	ldr	r3, [pc, #148]	; (8000c84 <main+0x300>)
 8000bee:	f004 fe1f 	bl	8005830 <__adddf3>
 8000bf2:	4603      	mov	r3, r0
 8000bf4:	460c      	mov	r4, r1
 8000bf6:	4618      	mov	r0, r3
 8000bf8:	4621      	mov	r1, r4
 8000bfa:	f005 faa7 	bl	800614c <__aeabi_d2uiz>
 8000bfe:	4603      	mov	r3, r0
 8000c00:	b299      	uxth	r1, r3
 8000c02:	4a21      	ldr	r2, [pc, #132]	; (8000c88 <main+0x304>)
 8000c04:	9b13      	ldr	r3, [sp, #76]	; 0x4c
 8000c06:	f822 1013 	strh.w	r1, [r2, r3, lsl #1]
 8000c0a:	9b13      	ldr	r3, [sp, #76]	; 0x4c
 8000c0c:	3301      	adds	r3, #1
 8000c0e:	9313      	str	r3, [sp, #76]	; 0x4c
 8000c10:	9b13      	ldr	r3, [sp, #76]	; 0x4c
 8000c12:	2b31      	cmp	r3, #49	; 0x31
 8000c14:	dda8      	ble.n	8000b68 <main+0x1e4>
 8000c16:	e111      	b.n	8000e3c <main+0x4b8>
 8000c18:	4b14      	ldr	r3, [pc, #80]	; (8000c6c <main+0x2e8>)
 8000c1a:	781b      	ldrb	r3, [r3, #0]
 8000c1c:	2b32      	cmp	r3, #50	; 0x32
 8000c1e:	d167      	bne.n	8000cf0 <main+0x36c>
 8000c20:	220f      	movs	r2, #15
 8000c22:	491a      	ldr	r1, [pc, #104]	; (8000c8c <main+0x308>)
 8000c24:	980c      	ldr	r0, [sp, #48]	; 0x30
 8000c26:	f7ff fe7f 	bl	8000928 <prints>
 8000c2a:	2300      	movs	r3, #0
 8000c2c:	9312      	str	r3, [sp, #72]	; 0x48
 8000c2e:	e037      	b.n	8000ca0 <main+0x31c>
 8000c30:	0280de80 	.word	0x0280de80
 8000c34:	40023800 	.word	0x40023800
 8000c38:	40020c00 	.word	0x40020c00
 8000c3c:	40020000 	.word	0x40020000
 8000c40:	40007400 	.word	0x40007400
 8000c44:	20000148 	.word	0x20000148
 8000c48:	20000000 	.word	0x20000000
 8000c4c:	080062d8 	.word	0x080062d8
 8000c50:	0800618c 	.word	0x0800618c
 8000c54:	08006414 	.word	0x08006414
 8000c58:	080003d5 	.word	0x080003d5
 8000c5c:	20000018 	.word	0x20000018
 8000c60:	40240000 	.word	0x40240000
 8000c64:	20000140 	.word	0x20000140
 8000c68:	200000ef 	.word	0x200000ef
 8000c6c:	20000130 	.word	0x20000130
 8000c70:	080061d8 	.word	0x080061d8
 8000c74:	20000014 	.word	0x20000014
 8000c78:	453b8000 	.word	0x453b8000
 8000c7c:	3e00adfd 	.word	0x3e00adfd
 8000c80:	3ff00000 	.word	0x3ff00000
 8000c84:	40518000 	.word	0x40518000
 8000c88:	20000088 	.word	0x20000088
 8000c8c:	080061e8 	.word	0x080061e8
 8000c90:	4a6c      	ldr	r2, [pc, #432]	; (8000e44 <main+0x4c0>)
 8000c92:	9b12      	ldr	r3, [sp, #72]	; 0x48
 8000c94:	2146      	movs	r1, #70	; 0x46
 8000c96:	f822 1013 	strh.w	r1, [r2, r3, lsl #1]
 8000c9a:	9b12      	ldr	r3, [sp, #72]	; 0x48
 8000c9c:	3301      	adds	r3, #1
 8000c9e:	9312      	str	r3, [sp, #72]	; 0x48
 8000ca0:	9b12      	ldr	r3, [sp, #72]	; 0x48
 8000ca2:	2b18      	cmp	r3, #24
 8000ca4:	ddf4      	ble.n	8000c90 <main+0x30c>
 8000ca6:	2319      	movs	r3, #25
 8000ca8:	9311      	str	r3, [sp, #68]	; 0x44
 8000caa:	e01d      	b.n	8000ce8 <main+0x364>
 8000cac:	4b66      	ldr	r3, [pc, #408]	; (8000e48 <main+0x4c4>)
 8000cae:	681b      	ldr	r3, [r3, #0]
 8000cb0:	f640 72b9 	movw	r2, #4025	; 0xfb9
 8000cb4:	fb02 f303 	mul.w	r3, r2, r3
 8000cb8:	ee07 3a90 	vmov	s15, r3
 8000cbc:	eeb8 7a67 	vcvt.f32.u32	s14, s15
 8000cc0:	eddf 6a62 	vldr	s13, [pc, #392]	; 8000e4c <main+0x4c8>
 8000cc4:	eec7 7a26 	vdiv.f32	s15, s14, s13
 8000cc8:	ed9f 7a61 	vldr	s14, [pc, #388]	; 8000e50 <main+0x4cc>
 8000ccc:	ee77 7a87 	vadd.f32	s15, s15, s14
 8000cd0:	eefc 7ae7 	vcvt.u32.f32	s15, s15
 8000cd4:	ee17 3a90 	vmov	r3, s15
 8000cd8:	b299      	uxth	r1, r3
 8000cda:	4a5a      	ldr	r2, [pc, #360]	; (8000e44 <main+0x4c0>)
 8000cdc:	9b11      	ldr	r3, [sp, #68]	; 0x44
 8000cde:	f822 1013 	strh.w	r1, [r2, r3, lsl #1]
 8000ce2:	9b11      	ldr	r3, [sp, #68]	; 0x44
 8000ce4:	3301      	adds	r3, #1
 8000ce6:	9311      	str	r3, [sp, #68]	; 0x44
 8000ce8:	9b11      	ldr	r3, [sp, #68]	; 0x44
 8000cea:	2b31      	cmp	r3, #49	; 0x31
 8000cec:	ddde      	ble.n	8000cac <main+0x328>
 8000cee:	e0a5      	b.n	8000e3c <main+0x4b8>
 8000cf0:	4b58      	ldr	r3, [pc, #352]	; (8000e54 <main+0x4d0>)
 8000cf2:	781b      	ldrb	r3, [r3, #0]
 8000cf4:	2b33      	cmp	r3, #51	; 0x33
 8000cf6:	d138      	bne.n	8000d6a <main+0x3e6>
 8000cf8:	2211      	movs	r2, #17
 8000cfa:	4957      	ldr	r1, [pc, #348]	; (8000e58 <main+0x4d4>)
 8000cfc:	980c      	ldr	r0, [sp, #48]	; 0x30
 8000cfe:	f7ff fe13 	bl	8000928 <prints>
 8000d02:	4b51      	ldr	r3, [pc, #324]	; (8000e48 <main+0x4c4>)
 8000d04:	681b      	ldr	r3, [r3, #0]
 8000d06:	f640 72b9 	movw	r2, #4025	; 0xfb9
 8000d0a:	fb02 f303 	mul.w	r3, r2, r3
 8000d0e:	ee07 3a90 	vmov	s15, r3
 8000d12:	eef8 7a67 	vcvt.f32.u32	s15, s15
 8000d16:	eddf 6a4d 	vldr	s13, [pc, #308]	; 8000e4c <main+0x4c8>
 8000d1a:	ee87 7aa6 	vdiv.f32	s14, s15, s13
 8000d1e:	eddf 6a4f 	vldr	s13, [pc, #316]	; 8000e5c <main+0x4d8>
 8000d22:	eec7 7a26 	vdiv.f32	s15, s14, s13
 8000d26:	edcd 7a0a 	vstr	s15, [sp, #40]	; 0x28
 8000d2a:	2300      	movs	r3, #0
 8000d2c:	9310      	str	r3, [sp, #64]	; 0x40
 8000d2e:	e018      	b.n	8000d62 <main+0x3de>
 8000d30:	9b10      	ldr	r3, [sp, #64]	; 0x40
 8000d32:	ee07 3a90 	vmov	s15, r3
 8000d36:	eeb8 7ae7 	vcvt.f32.s32	s14, s15
 8000d3a:	eddd 7a0a 	vldr	s15, [sp, #40]	; 0x28
 8000d3e:	ee67 7a27 	vmul.f32	s15, s14, s15
 8000d42:	ed9f 7a43 	vldr	s14, [pc, #268]	; 8000e50 <main+0x4cc>
 8000d46:	ee77 7a87 	vadd.f32	s15, s15, s14
 8000d4a:	eefc 7ae7 	vcvt.u32.f32	s15, s15
 8000d4e:	ee17 3a90 	vmov	r3, s15
 8000d52:	b299      	uxth	r1, r3
 8000d54:	4a3b      	ldr	r2, [pc, #236]	; (8000e44 <main+0x4c0>)
 8000d56:	9b10      	ldr	r3, [sp, #64]	; 0x40
 8000d58:	f822 1013 	strh.w	r1, [r2, r3, lsl #1]
 8000d5c:	9b10      	ldr	r3, [sp, #64]	; 0x40
 8000d5e:	3301      	adds	r3, #1
 8000d60:	9310      	str	r3, [sp, #64]	; 0x40
 8000d62:	9b10      	ldr	r3, [sp, #64]	; 0x40
 8000d64:	2b31      	cmp	r3, #49	; 0x31
 8000d66:	dde3      	ble.n	8000d30 <main+0x3ac>
 8000d68:	e068      	b.n	8000e3c <main+0x4b8>
 8000d6a:	4b3a      	ldr	r3, [pc, #232]	; (8000e54 <main+0x4d0>)
 8000d6c:	781b      	ldrb	r3, [r3, #0]
 8000d6e:	2b34      	cmp	r3, #52	; 0x34
 8000d70:	d15b      	bne.n	8000e2a <main+0x4a6>
 8000d72:	2213      	movs	r2, #19
 8000d74:	493a      	ldr	r1, [pc, #232]	; (8000e60 <main+0x4dc>)
 8000d76:	980c      	ldr	r0, [sp, #48]	; 0x30
 8000d78:	f7ff fdd6 	bl	8000928 <prints>
 8000d7c:	4b32      	ldr	r3, [pc, #200]	; (8000e48 <main+0x4c4>)
 8000d7e:	681b      	ldr	r3, [r3, #0]
 8000d80:	f640 72b9 	movw	r2, #4025	; 0xfb9
 8000d84:	fb02 f303 	mul.w	r3, r2, r3
 8000d88:	ee07 3a90 	vmov	s15, r3
 8000d8c:	eeb8 7a67 	vcvt.f32.u32	s14, s15
 8000d90:	eddf 6a2e 	vldr	s13, [pc, #184]	; 8000e4c <main+0x4c8>
 8000d94:	eec7 7a26 	vdiv.f32	s15, s14, s13
 8000d98:	ee37 7aa7 	vadd.f32	s14, s15, s15
 8000d9c:	eddf 6a2f 	vldr	s13, [pc, #188]	; 8000e5c <main+0x4d8>
 8000da0:	eec7 7a26 	vdiv.f32	s15, s14, s13
 8000da4:	edcd 7a0b 	vstr	s15, [sp, #44]	; 0x2c
 8000da8:	2300      	movs	r3, #0
 8000daa:	930f      	str	r3, [sp, #60]	; 0x3c
 8000dac:	e018      	b.n	8000de0 <main+0x45c>
 8000dae:	9b0f      	ldr	r3, [sp, #60]	; 0x3c
 8000db0:	ee07 3a90 	vmov	s15, r3
 8000db4:	eeb8 7ae7 	vcvt.f32.s32	s14, s15
 8000db8:	eddd 7a0b 	vldr	s15, [sp, #44]	; 0x2c
 8000dbc:	ee67 7a27 	vmul.f32	s15, s14, s15
 8000dc0:	ed9f 7a23 	vldr	s14, [pc, #140]	; 8000e50 <main+0x4cc>
 8000dc4:	ee77 7a87 	vadd.f32	s15, s15, s14
 8000dc8:	eefc 7ae7 	vcvt.u32.f32	s15, s15
 8000dcc:	ee17 3a90 	vmov	r3, s15
 8000dd0:	b299      	uxth	r1, r3
 8000dd2:	4a1c      	ldr	r2, [pc, #112]	; (8000e44 <main+0x4c0>)
 8000dd4:	9b0f      	ldr	r3, [sp, #60]	; 0x3c
 8000dd6:	f822 1013 	strh.w	r1, [r2, r3, lsl #1]
 8000dda:	9b0f      	ldr	r3, [sp, #60]	; 0x3c
 8000ddc:	3301      	adds	r3, #1
 8000dde:	930f      	str	r3, [sp, #60]	; 0x3c
 8000de0:	9b0f      	ldr	r3, [sp, #60]	; 0x3c
 8000de2:	2b18      	cmp	r3, #24
 8000de4:	dde3      	ble.n	8000dae <main+0x42a>
 8000de6:	2319      	movs	r3, #25
 8000de8:	930e      	str	r3, [sp, #56]	; 0x38
 8000dea:	e01a      	b.n	8000e22 <main+0x49e>
 8000dec:	9b0e      	ldr	r3, [sp, #56]	; 0x38
 8000dee:	ee07 3a90 	vmov	s15, r3
 8000df2:	eeb8 7ae7 	vcvt.f32.s32	s14, s15
 8000df6:	eddd 7a0b 	vldr	s15, [sp, #44]	; 0x2c
 8000dfa:	ee67 7a27 	vmul.f32	s15, s14, s15
 8000dfe:	ed9f 7a14 	vldr	s14, [pc, #80]	; 8000e50 <main+0x4cc>
 8000e02:	ee77 7a87 	vadd.f32	s15, s15, s14
 8000e06:	9b0e      	ldr	r3, [sp, #56]	; 0x38
 8000e08:	f1c3 0332 	rsb	r3, r3, #50	; 0x32
 8000e0c:	eefc 7ae7 	vcvt.u32.f32	s15, s15
 8000e10:	ee17 2a90 	vmov	r2, s15
 8000e14:	b291      	uxth	r1, r2
 8000e16:	4a0b      	ldr	r2, [pc, #44]	; (8000e44 <main+0x4c0>)
 8000e18:	f822 1013 	strh.w	r1, [r2, r3, lsl #1]
 8000e1c:	9b0e      	ldr	r3, [sp, #56]	; 0x38
 8000e1e:	3b01      	subs	r3, #1
 8000e20:	930e      	str	r3, [sp, #56]	; 0x38
 8000e22:	9b0e      	ldr	r3, [sp, #56]	; 0x38
 8000e24:	2b00      	cmp	r3, #0
 8000e26:	dae1      	bge.n	8000dec <main+0x468>
 8000e28:	e008      	b.n	8000e3c <main+0x4b8>
 8000e2a:	4b0a      	ldr	r3, [pc, #40]	; (8000e54 <main+0x4d0>)
 8000e2c:	781b      	ldrb	r3, [r3, #0]
 8000e2e:	2b35      	cmp	r3, #53	; 0x35
 8000e30:	d104      	bne.n	8000e3c <main+0x4b8>
 8000e32:	220f      	movs	r2, #15
 8000e34:	490b      	ldr	r1, [pc, #44]	; (8000e64 <main+0x4e0>)
 8000e36:	980c      	ldr	r0, [sp, #48]	; 0x30
 8000e38:	f7ff fd76 	bl	8000928 <prints>
 8000e3c:	2300      	movs	r3, #0
 8000e3e:	f8ad 3036 	strh.w	r3, [sp, #54]	; 0x36
 8000e42:	e120      	b.n	8001086 <main+0x702>
 8000e44:	20000088 	.word	0x20000088
 8000e48:	20000014 	.word	0x20000014
 8000e4c:	453b8000 	.word	0x453b8000
 8000e50:	428c0000 	.word	0x428c0000
 8000e54:	20000130 	.word	0x20000130
 8000e58:	080061f8 	.word	0x080061f8
 8000e5c:	42480000 	.word	0x42480000
 8000e60:	0800620c 	.word	0x0800620c
 8000e64:	08006220 	.word	0x08006220
 8000e68:	f8bd 3036 	ldrh.w	r3, [sp, #54]	; 0x36
 8000e6c:	4a9a      	ldr	r2, [pc, #616]	; (80010d8 <main+0x754>)
 8000e6e:	f832 3013 	ldrh.w	r3, [r2, r3, lsl #1]
 8000e72:	f8ad 301e 	strh.w	r3, [sp, #30]
 8000e76:	f8bd 301e 	ldrh.w	r3, [sp, #30]
 8000e7a:	4a98      	ldr	r2, [pc, #608]	; (80010dc <main+0x758>)
 8000e7c:	fba2 2303 	umull	r2, r3, r2, r3
 8000e80:	099b      	lsrs	r3, r3, #6
 8000e82:	b29b      	uxth	r3, r3
 8000e84:	b2db      	uxtb	r3, r3
 8000e86:	f88d 3017 	strb.w	r3, [sp, #23]
 8000e8a:	f89d 3017 	ldrb.w	r3, [sp, #23]
 8000e8e:	3330      	adds	r3, #48	; 0x30
 8000e90:	b2db      	uxtb	r3, r3
 8000e92:	f88d 3017 	strb.w	r3, [sp, #23]
 8000e96:	f8bd 301e 	ldrh.w	r3, [sp, #30]
 8000e9a:	4a90      	ldr	r2, [pc, #576]	; (80010dc <main+0x758>)
 8000e9c:	fba2 1203 	umull	r1, r2, r2, r3
 8000ea0:	0992      	lsrs	r2, r2, #6
 8000ea2:	f44f 717a 	mov.w	r1, #1000	; 0x3e8
 8000ea6:	fb01 f202 	mul.w	r2, r1, r2
 8000eaa:	1a9b      	subs	r3, r3, r2
 8000eac:	f8ad 301e 	strh.w	r3, [sp, #30]
 8000eb0:	f8bd 301e 	ldrh.w	r3, [sp, #30]
 8000eb4:	4a8a      	ldr	r2, [pc, #552]	; (80010e0 <main+0x75c>)
 8000eb6:	fba2 2303 	umull	r2, r3, r2, r3
 8000eba:	095b      	lsrs	r3, r3, #5
 8000ebc:	b29b      	uxth	r3, r3
 8000ebe:	b2db      	uxtb	r3, r3
 8000ec0:	f88d 3016 	strb.w	r3, [sp, #22]
 8000ec4:	f89d 3016 	ldrb.w	r3, [sp, #22]
 8000ec8:	3330      	adds	r3, #48	; 0x30
 8000eca:	b2db      	uxtb	r3, r3
 8000ecc:	f88d 3016 	strb.w	r3, [sp, #22]
 8000ed0:	f8bd 301e 	ldrh.w	r3, [sp, #30]
 8000ed4:	4a82      	ldr	r2, [pc, #520]	; (80010e0 <main+0x75c>)
 8000ed6:	fba2 1203 	umull	r1, r2, r2, r3
 8000eda:	0952      	lsrs	r2, r2, #5
 8000edc:	2164      	movs	r1, #100	; 0x64
 8000ede:	fb01 f202 	mul.w	r2, r1, r2
 8000ee2:	1a9b      	subs	r3, r3, r2
 8000ee4:	f8ad 301e 	strh.w	r3, [sp, #30]
 8000ee8:	f8bd 301e 	ldrh.w	r3, [sp, #30]
 8000eec:	4a7d      	ldr	r2, [pc, #500]	; (80010e4 <main+0x760>)
 8000eee:	fba2 2303 	umull	r2, r3, r2, r3
 8000ef2:	08db      	lsrs	r3, r3, #3
 8000ef4:	b29b      	uxth	r3, r3
 8000ef6:	b2db      	uxtb	r3, r3
 8000ef8:	f88d 3015 	strb.w	r3, [sp, #21]
 8000efc:	f89d 3015 	ldrb.w	r3, [sp, #21]
 8000f00:	3330      	adds	r3, #48	; 0x30
 8000f02:	b2db      	uxtb	r3, r3
 8000f04:	f88d 3015 	strb.w	r3, [sp, #21]
 8000f08:	f8bd 201e 	ldrh.w	r2, [sp, #30]
 8000f0c:	4b75      	ldr	r3, [pc, #468]	; (80010e4 <main+0x760>)
 8000f0e:	fba3 1302 	umull	r1, r3, r3, r2
 8000f12:	08d9      	lsrs	r1, r3, #3
 8000f14:	460b      	mov	r3, r1
 8000f16:	009b      	lsls	r3, r3, #2
 8000f18:	440b      	add	r3, r1
 8000f1a:	005b      	lsls	r3, r3, #1
 8000f1c:	1ad3      	subs	r3, r2, r3
 8000f1e:	f8ad 301e 	strh.w	r3, [sp, #30]
 8000f22:	f8bd 301e 	ldrh.w	r3, [sp, #30]
 8000f26:	b2db      	uxtb	r3, r3
 8000f28:	3330      	adds	r3, #48	; 0x30
 8000f2a:	b2db      	uxtb	r3, r3
 8000f2c:	f88d 3014 	strb.w	r3, [sp, #20]
 8000f30:	f8bd 3036 	ldrh.w	r3, [sp, #54]	; 0x36
 8000f34:	f8ad 301c 	strh.w	r3, [sp, #28]
 8000f38:	f8bd 301c 	ldrh.w	r3, [sp, #28]
 8000f3c:	4a67      	ldr	r2, [pc, #412]	; (80010dc <main+0x758>)
 8000f3e:	fba2 2303 	umull	r2, r3, r2, r3
 8000f42:	099b      	lsrs	r3, r3, #6
 8000f44:	b29b      	uxth	r3, r3
 8000f46:	b2db      	uxtb	r3, r3
 8000f48:	f88d 3013 	strb.w	r3, [sp, #19]
 8000f4c:	f89d 3013 	ldrb.w	r3, [sp, #19]
 8000f50:	3330      	adds	r3, #48	; 0x30
 8000f52:	b2db      	uxtb	r3, r3
 8000f54:	f88d 3013 	strb.w	r3, [sp, #19]
 8000f58:	f8bd 301c 	ldrh.w	r3, [sp, #28]
 8000f5c:	4a5f      	ldr	r2, [pc, #380]	; (80010dc <main+0x758>)
 8000f5e:	fba2 1203 	umull	r1, r2, r2, r3
 8000f62:	0992      	lsrs	r2, r2, #6
 8000f64:	f44f 717a 	mov.w	r1, #1000	; 0x3e8
 8000f68:	fb01 f202 	mul.w	r2, r1, r2
 8000f6c:	1a9b      	subs	r3, r3, r2
 8000f6e:	f8ad 301c 	strh.w	r3, [sp, #28]
 8000f72:	f8bd 301c 	ldrh.w	r3, [sp, #28]
 8000f76:	4a5a      	ldr	r2, [pc, #360]	; (80010e0 <main+0x75c>)
 8000f78:	fba2 2303 	umull	r2, r3, r2, r3
 8000f7c:	095b      	lsrs	r3, r3, #5
 8000f7e:	b29b      	uxth	r3, r3
 8000f80:	b2db      	uxtb	r3, r3
 8000f82:	f88d 3012 	strb.w	r3, [sp, #18]
 8000f86:	f89d 3012 	ldrb.w	r3, [sp, #18]
 8000f8a:	3330      	adds	r3, #48	; 0x30
 8000f8c:	b2db      	uxtb	r3, r3
 8000f8e:	f88d 3012 	strb.w	r3, [sp, #18]
 8000f92:	f8bd 301c 	ldrh.w	r3, [sp, #28]
 8000f96:	4a52      	ldr	r2, [pc, #328]	; (80010e0 <main+0x75c>)
 8000f98:	fba2 1203 	umull	r1, r2, r2, r3
 8000f9c:	0952      	lsrs	r2, r2, #5
 8000f9e:	2164      	movs	r1, #100	; 0x64
 8000fa0:	fb01 f202 	mul.w	r2, r1, r2
 8000fa4:	1a9b      	subs	r3, r3, r2
 8000fa6:	f8ad 301c 	strh.w	r3, [sp, #28]
 8000faa:	f8bd 301c 	ldrh.w	r3, [sp, #28]
 8000fae:	4a4d      	ldr	r2, [pc, #308]	; (80010e4 <main+0x760>)
 8000fb0:	fba2 2303 	umull	r2, r3, r2, r3
 8000fb4:	08db      	lsrs	r3, r3, #3
 8000fb6:	b29b      	uxth	r3, r3
 8000fb8:	b2db      	uxtb	r3, r3
 8000fba:	f88d 3011 	strb.w	r3, [sp, #17]
 8000fbe:	f89d 3011 	ldrb.w	r3, [sp, #17]
 8000fc2:	3330      	adds	r3, #48	; 0x30
 8000fc4:	b2db      	uxtb	r3, r3
 8000fc6:	f88d 3011 	strb.w	r3, [sp, #17]
 8000fca:	f8bd 201c 	ldrh.w	r2, [sp, #28]
 8000fce:	4b45      	ldr	r3, [pc, #276]	; (80010e4 <main+0x760>)
 8000fd0:	fba3 1302 	umull	r1, r3, r3, r2
 8000fd4:	08d9      	lsrs	r1, r3, #3
 8000fd6:	460b      	mov	r3, r1
 8000fd8:	009b      	lsls	r3, r3, #2
 8000fda:	440b      	add	r3, r1
 8000fdc:	005b      	lsls	r3, r3, #1
 8000fde:	1ad3      	subs	r3, r2, r3
 8000fe0:	f8ad 301c 	strh.w	r3, [sp, #28]
 8000fe4:	f8bd 301c 	ldrh.w	r3, [sp, #28]
 8000fe8:	b2db      	uxtb	r3, r3
 8000fea:	3330      	adds	r3, #48	; 0x30
 8000fec:	b2db      	uxtb	r3, r3
 8000fee:	f88d 3010 	strb.w	r3, [sp, #16]
 8000ff2:	2203      	movs	r2, #3
 8000ff4:	493c      	ldr	r1, [pc, #240]	; (80010e8 <main+0x764>)
 8000ff6:	980c      	ldr	r0, [sp, #48]	; 0x30
 8000ff8:	f7ff fc96 	bl	8000928 <prints>
 8000ffc:	2207      	movs	r2, #7
 8000ffe:	493b      	ldr	r1, [pc, #236]	; (80010ec <main+0x768>)
 8001000:	980c      	ldr	r0, [sp, #48]	; 0x30
 8001002:	f7ff fc91 	bl	8000928 <prints>
 8001006:	f10d 0313 	add.w	r3, sp, #19
 800100a:	2201      	movs	r2, #1
 800100c:	4619      	mov	r1, r3
 800100e:	980c      	ldr	r0, [sp, #48]	; 0x30
 8001010:	f7ff fc8a 	bl	8000928 <prints>
 8001014:	f10d 0312 	add.w	r3, sp, #18
 8001018:	2201      	movs	r2, #1
 800101a:	4619      	mov	r1, r3
 800101c:	980c      	ldr	r0, [sp, #48]	; 0x30
 800101e:	f7ff fc83 	bl	8000928 <prints>
 8001022:	f10d 0311 	add.w	r3, sp, #17
 8001026:	2201      	movs	r2, #1
 8001028:	4619      	mov	r1, r3
 800102a:	980c      	ldr	r0, [sp, #48]	; 0x30
 800102c:	f7ff fc7c 	bl	8000928 <prints>
 8001030:	ab04      	add	r3, sp, #16
 8001032:	2201      	movs	r2, #1
 8001034:	4619      	mov	r1, r3
 8001036:	980c      	ldr	r0, [sp, #48]	; 0x30
 8001038:	f7ff fc76 	bl	8000928 <prints>
 800103c:	2204      	movs	r2, #4
 800103e:	492c      	ldr	r1, [pc, #176]	; (80010f0 <main+0x76c>)
 8001040:	980c      	ldr	r0, [sp, #48]	; 0x30
 8001042:	f7ff fc71 	bl	8000928 <prints>
 8001046:	f10d 0317 	add.w	r3, sp, #23
 800104a:	2201      	movs	r2, #1
 800104c:	4619      	mov	r1, r3
 800104e:	980c      	ldr	r0, [sp, #48]	; 0x30
 8001050:	f7ff fc81 	bl	8000956 <printm>
 8001054:	f10d 0316 	add.w	r3, sp, #22
 8001058:	2201      	movs	r2, #1
 800105a:	4619      	mov	r1, r3
 800105c:	980c      	ldr	r0, [sp, #48]	; 0x30
 800105e:	f7ff fc7a 	bl	8000956 <printm>
 8001062:	f10d 0315 	add.w	r3, sp, #21
 8001066:	2201      	movs	r2, #1
 8001068:	4619      	mov	r1, r3
 800106a:	980c      	ldr	r0, [sp, #48]	; 0x30
 800106c:	f7ff fc73 	bl	8000956 <printm>
 8001070:	ab05      	add	r3, sp, #20
 8001072:	2201      	movs	r2, #1
 8001074:	4619      	mov	r1, r3
 8001076:	980c      	ldr	r0, [sp, #48]	; 0x30
 8001078:	f7ff fc6d 	bl	8000956 <printm>
 800107c:	f8bd 3036 	ldrh.w	r3, [sp, #54]	; 0x36
 8001080:	3301      	adds	r3, #1
 8001082:	f8ad 3036 	strh.w	r3, [sp, #54]	; 0x36
 8001086:	f8bd 3036 	ldrh.w	r3, [sp, #54]	; 0x36
 800108a:	2b31      	cmp	r3, #49	; 0x31
 800108c:	f67f aeec 	bls.w	8000e68 <main+0x4e4>
 8001090:	2217      	movs	r2, #23
 8001092:	4918      	ldr	r1, [pc, #96]	; (80010f4 <main+0x770>)
 8001094:	980c      	ldr	r0, [sp, #48]	; 0x30
 8001096:	f7ff fc5e 	bl	8000956 <printm>
 800109a:	4b17      	ldr	r3, [pc, #92]	; (80010f8 <main+0x774>)
 800109c:	681b      	ldr	r3, [r3, #0]
 800109e:	2232      	movs	r2, #50	; 0x32
 80010a0:	fb02 f303 	mul.w	r3, r2, r3
 80010a4:	2201      	movs	r2, #1
 80010a6:	fbb2 f3f3 	udiv	r3, r2, r3
 80010aa:	ee07 3a90 	vmov	s15, r3
 80010ae:	eef8 7a67 	vcvt.f32.u32	s15, s15
 80010b2:	edcd 7a09 	vstr	s15, [sp, #36]	; 0x24
 80010b6:	4b10      	ldr	r3, [pc, #64]	; (80010f8 <main+0x774>)
 80010b8:	681b      	ldr	r3, [r3, #0]
 80010ba:	2232      	movs	r2, #50	; 0x32
 80010bc:	fb02 f303 	mul.w	r3, r2, r3
 80010c0:	4a0e      	ldr	r2, [pc, #56]	; (80010fc <main+0x778>)
 80010c2:	fbb2 f3f3 	udiv	r3, r2, r3
 80010c6:	9308      	str	r3, [sp, #32]
 80010c8:	2101      	movs	r1, #1
 80010ca:	9808      	ldr	r0, [sp, #32]
 80010cc:	f7ff f93c 	bl	8000348 <init_timer2>
 80010d0:	2300      	movs	r3, #0
 80010d2:	4618      	mov	r0, r3
 80010d4:	b017      	add	sp, #92	; 0x5c
 80010d6:	bd30      	pop	{r4, r5, pc}
 80010d8:	20000088 	.word	0x20000088
 80010dc:	10624dd3 	.word	0x10624dd3
 80010e0:	51eb851f 	.word	0x51eb851f
 80010e4:	cccccccd 	.word	0xcccccccd
 80010e8:	08006230 	.word	0x08006230
 80010ec:	08006234 	.word	0x08006234
 80010f0:	0800623c 	.word	0x0800623c
 80010f4:	080063fc 	.word	0x080063fc
 80010f8:	20000010 	.word	0x20000010
 80010fc:	0280de80 	.word	0x0280de80

08001100 <usbd_init>:
 8001100:	b500      	push	{lr}
 8001102:	b087      	sub	sp, #28
 8001104:	9003      	str	r0, [sp, #12]
 8001106:	9102      	str	r1, [sp, #8]
 8001108:	9201      	str	r2, [sp, #4]
 800110a:	9300      	str	r3, [sp, #0]
 800110c:	9b03      	ldr	r3, [sp, #12]
 800110e:	681b      	ldr	r3, [r3, #0]
 8001110:	4798      	blx	r3
 8001112:	9004      	str	r0, [sp, #16]
 8001114:	9b04      	ldr	r3, [sp, #16]
 8001116:	9a03      	ldr	r2, [sp, #12]
 8001118:	f8c3 20dc 	str.w	r2, [r3, #220]	; 0xdc
 800111c:	9b04      	ldr	r3, [sp, #16]
 800111e:	9a02      	ldr	r2, [sp, #8]
 8001120:	601a      	str	r2, [r3, #0]
 8001122:	9b04      	ldr	r3, [sp, #16]
 8001124:	9a01      	ldr	r2, [sp, #4]
 8001126:	605a      	str	r2, [r3, #4]
 8001128:	9b04      	ldr	r3, [sp, #16]
 800112a:	9a00      	ldr	r2, [sp, #0]
 800112c:	609a      	str	r2, [r3, #8]
 800112e:	9b04      	ldr	r3, [sp, #16]
 8001130:	9a08      	ldr	r2, [sp, #32]
 8001132:	60da      	str	r2, [r3, #12]
 8001134:	9b04      	ldr	r3, [sp, #16]
 8001136:	9a09      	ldr	r2, [sp, #36]	; 0x24
 8001138:	611a      	str	r2, [r3, #16]
 800113a:	9b04      	ldr	r3, [sp, #16]
 800113c:	f8bd 2028 	ldrh.w	r2, [sp, #40]	; 0x28
 8001140:	829a      	strh	r2, [r3, #20]
 8001142:	9b04      	ldr	r3, [sp, #16]
 8001144:	4a0d      	ldr	r2, [pc, #52]	; (800117c <usbd_init+0x7c>)
 8001146:	671a      	str	r2, [r3, #112]	; 0x70
 8001148:	9b04      	ldr	r3, [sp, #16]
 800114a:	4a0d      	ldr	r2, [pc, #52]	; (8001180 <usbd_init+0x80>)
 800114c:	66da      	str	r2, [r3, #108]	; 0x6c
 800114e:	9b04      	ldr	r3, [sp, #16]
 8001150:	4a0c      	ldr	r2, [pc, #48]	; (8001184 <usbd_init+0x84>)
 8001152:	669a      	str	r2, [r3, #104]	; 0x68
 8001154:	2300      	movs	r3, #0
 8001156:	9305      	str	r3, [sp, #20]
 8001158:	e008      	b.n	800116c <usbd_init+0x6c>
 800115a:	9b04      	ldr	r3, [sp, #16]
 800115c:	9a05      	ldr	r2, [sp, #20]
 800115e:	3232      	adds	r2, #50	; 0x32
 8001160:	2100      	movs	r1, #0
 8001162:	f843 1022 	str.w	r1, [r3, r2, lsl #2]
 8001166:	9b05      	ldr	r3, [sp, #20]
 8001168:	3301      	adds	r3, #1
 800116a:	9305      	str	r3, [sp, #20]
 800116c:	9b05      	ldr	r3, [sp, #20]
 800116e:	2b03      	cmp	r3, #3
 8001170:	ddf3      	ble.n	800115a <usbd_init+0x5a>
 8001172:	9b04      	ldr	r3, [sp, #16]
 8001174:	4618      	mov	r0, r3
 8001176:	b007      	add	sp, #28
 8001178:	f85d fb04 	ldr.w	pc, [sp], #4
 800117c:	08002243 	.word	0x08002243
 8001180:	0800229d 	.word	0x0800229d
 8001184:	0800236f 	.word	0x0800236f

08001188 <_usbd_reset>:
 8001188:	b500      	push	{lr}
 800118a:	b085      	sub	sp, #20
 800118c:	9003      	str	r0, [sp, #12]
 800118e:	9b03      	ldr	r3, [sp, #12]
 8001190:	2200      	movs	r2, #0
 8001192:	759a      	strb	r2, [r3, #22]
 8001194:	9b03      	ldr	r3, [sp, #12]
 8001196:	2200      	movs	r2, #0
 8001198:	75da      	strb	r2, [r3, #23]
 800119a:	9b03      	ldr	r3, [sp, #12]
 800119c:	681b      	ldr	r3, [r3, #0]
 800119e:	79db      	ldrb	r3, [r3, #7]
 80011a0:	b29a      	uxth	r2, r3
 80011a2:	2300      	movs	r3, #0
 80011a4:	9300      	str	r3, [sp, #0]
 80011a6:	4613      	mov	r3, r2
 80011a8:	2200      	movs	r2, #0
 80011aa:	2100      	movs	r1, #0
 80011ac:	9803      	ldr	r0, [sp, #12]
 80011ae:	f000 f81f 	bl	80011f0 <usbd_ep_setup>
 80011b2:	9b03      	ldr	r3, [sp, #12]
 80011b4:	f8d3 30dc 	ldr.w	r3, [r3, #220]	; 0xdc
 80011b8:	685b      	ldr	r3, [r3, #4]
 80011ba:	2100      	movs	r1, #0
 80011bc:	9803      	ldr	r0, [sp, #12]
 80011be:	4798      	blx	r3
 80011c0:	9b03      	ldr	r3, [sp, #12]
 80011c2:	69db      	ldr	r3, [r3, #28]
 80011c4:	2b00      	cmp	r3, #0
 80011c6:	d002      	beq.n	80011ce <_usbd_reset+0x46>
 80011c8:	9b03      	ldr	r3, [sp, #12]
 80011ca:	69db      	ldr	r3, [r3, #28]
 80011cc:	4798      	blx	r3
 80011ce:	bf00      	nop
 80011d0:	b005      	add	sp, #20
 80011d2:	f85d fb04 	ldr.w	pc, [sp], #4

080011d6 <usbd_poll>:
 80011d6:	b500      	push	{lr}
 80011d8:	b083      	sub	sp, #12
 80011da:	9001      	str	r0, [sp, #4]
 80011dc:	9b01      	ldr	r3, [sp, #4]
 80011de:	f8d3 30dc 	ldr.w	r3, [r3, #220]	; 0xdc
 80011e2:	6a5b      	ldr	r3, [r3, #36]	; 0x24
 80011e4:	9801      	ldr	r0, [sp, #4]
 80011e6:	4798      	blx	r3
 80011e8:	bf00      	nop
 80011ea:	b003      	add	sp, #12
 80011ec:	f85d fb04 	ldr.w	pc, [sp], #4

080011f0 <usbd_ep_setup>:
 80011f0:	b510      	push	{r4, lr}
 80011f2:	b084      	sub	sp, #16
 80011f4:	9003      	str	r0, [sp, #12]
 80011f6:	4608      	mov	r0, r1
 80011f8:	4611      	mov	r1, r2
 80011fa:	461a      	mov	r2, r3
 80011fc:	4603      	mov	r3, r0
 80011fe:	f88d 300b 	strb.w	r3, [sp, #11]
 8001202:	460b      	mov	r3, r1
 8001204:	f88d 300a 	strb.w	r3, [sp, #10]
 8001208:	4613      	mov	r3, r2
 800120a:	f8ad 3008 	strh.w	r3, [sp, #8]
 800120e:	9b03      	ldr	r3, [sp, #12]
 8001210:	f8d3 30dc 	ldr.w	r3, [r3, #220]	; 0xdc
 8001214:	689c      	ldr	r4, [r3, #8]
 8001216:	f8bd 0008 	ldrh.w	r0, [sp, #8]
 800121a:	f89d 200a 	ldrb.w	r2, [sp, #10]
 800121e:	f89d 100b 	ldrb.w	r1, [sp, #11]
 8001222:	9b06      	ldr	r3, [sp, #24]
 8001224:	9300      	str	r3, [sp, #0]
 8001226:	4603      	mov	r3, r0
 8001228:	9803      	ldr	r0, [sp, #12]
 800122a:	47a0      	blx	r4
 800122c:	bf00      	nop
 800122e:	b004      	add	sp, #16
 8001230:	bd10      	pop	{r4, pc}

08001232 <usbd_ep_write_packet>:
 8001232:	b510      	push	{r4, lr}
 8001234:	b084      	sub	sp, #16
 8001236:	9003      	str	r0, [sp, #12]
 8001238:	9201      	str	r2, [sp, #4]
 800123a:	461a      	mov	r2, r3
 800123c:	460b      	mov	r3, r1
 800123e:	f88d 300b 	strb.w	r3, [sp, #11]
 8001242:	4613      	mov	r3, r2
 8001244:	f8ad 3008 	strh.w	r3, [sp, #8]
 8001248:	9b03      	ldr	r3, [sp, #12]
 800124a:	f8d3 30dc 	ldr.w	r3, [r3, #220]	; 0xdc
 800124e:	69dc      	ldr	r4, [r3, #28]
 8001250:	f8bd 3008 	ldrh.w	r3, [sp, #8]
 8001254:	f89d 100b 	ldrb.w	r1, [sp, #11]
 8001258:	9a01      	ldr	r2, [sp, #4]
 800125a:	9803      	ldr	r0, [sp, #12]
 800125c:	47a0      	blx	r4
 800125e:	4603      	mov	r3, r0
 8001260:	4618      	mov	r0, r3
 8001262:	b004      	add	sp, #16
 8001264:	bd10      	pop	{r4, pc}

08001266 <usbd_ep_read_packet>:
 8001266:	b510      	push	{r4, lr}
 8001268:	b084      	sub	sp, #16
 800126a:	9003      	str	r0, [sp, #12]
 800126c:	9201      	str	r2, [sp, #4]
 800126e:	461a      	mov	r2, r3
 8001270:	460b      	mov	r3, r1
 8001272:	f88d 300b 	strb.w	r3, [sp, #11]
 8001276:	4613      	mov	r3, r2
 8001278:	f8ad 3008 	strh.w	r3, [sp, #8]
 800127c:	9b03      	ldr	r3, [sp, #12]
 800127e:	f8d3 30dc 	ldr.w	r3, [r3, #220]	; 0xdc
 8001282:	6a1c      	ldr	r4, [r3, #32]
 8001284:	f8bd 3008 	ldrh.w	r3, [sp, #8]
 8001288:	f89d 100b 	ldrb.w	r1, [sp, #11]
 800128c:	9a01      	ldr	r2, [sp, #4]
 800128e:	9803      	ldr	r0, [sp, #12]
 8001290:	47a0      	blx	r4
 8001292:	4603      	mov	r3, r0
 8001294:	4618      	mov	r0, r3
 8001296:	b004      	add	sp, #16
 8001298:	bd10      	pop	{r4, pc}

0800129a <usbd_ep_stall_set>:
 800129a:	b500      	push	{lr}
 800129c:	b083      	sub	sp, #12
 800129e:	9001      	str	r0, [sp, #4]
 80012a0:	460b      	mov	r3, r1
 80012a2:	f88d 3003 	strb.w	r3, [sp, #3]
 80012a6:	4613      	mov	r3, r2
 80012a8:	f88d 3002 	strb.w	r3, [sp, #2]
 80012ac:	9b01      	ldr	r3, [sp, #4]
 80012ae:	f8d3 30dc 	ldr.w	r3, [r3, #220]	; 0xdc
 80012b2:	691b      	ldr	r3, [r3, #16]
 80012b4:	f89d 2002 	ldrb.w	r2, [sp, #2]
 80012b8:	f89d 1003 	ldrb.w	r1, [sp, #3]
 80012bc:	9801      	ldr	r0, [sp, #4]
 80012be:	4798      	blx	r3
 80012c0:	bf00      	nop
 80012c2:	b003      	add	sp, #12
 80012c4:	f85d fb04 	ldr.w	pc, [sp], #4

080012c8 <usbd_ep_stall_get>:
 80012c8:	b500      	push	{lr}
 80012ca:	b083      	sub	sp, #12
 80012cc:	9001      	str	r0, [sp, #4]
 80012ce:	460b      	mov	r3, r1
 80012d0:	f88d 3003 	strb.w	r3, [sp, #3]
 80012d4:	9b01      	ldr	r3, [sp, #4]
 80012d6:	f8d3 30dc 	ldr.w	r3, [r3, #220]	; 0xdc
 80012da:	699b      	ldr	r3, [r3, #24]
 80012dc:	f89d 2003 	ldrb.w	r2, [sp, #3]
 80012e0:	4611      	mov	r1, r2
 80012e2:	9801      	ldr	r0, [sp, #4]
 80012e4:	4798      	blx	r3
 80012e6:	4603      	mov	r3, r0
 80012e8:	4618      	mov	r0, r3
 80012ea:	b003      	add	sp, #12
 80012ec:	f85d fb04 	ldr.w	pc, [sp], #4

080012f0 <usbd_ep_nak_set>:
 80012f0:	b500      	push	{lr}
 80012f2:	b083      	sub	sp, #12
 80012f4:	9001      	str	r0, [sp, #4]
 80012f6:	460b      	mov	r3, r1
 80012f8:	f88d 3003 	strb.w	r3, [sp, #3]
 80012fc:	4613      	mov	r3, r2
 80012fe:	f88d 3002 	strb.w	r3, [sp, #2]
 8001302:	9b01      	ldr	r3, [sp, #4]
 8001304:	f8d3 30dc 	ldr.w	r3, [r3, #220]	; 0xdc
 8001308:	695b      	ldr	r3, [r3, #20]
 800130a:	f89d 2002 	ldrb.w	r2, [sp, #2]
 800130e:	f89d 1003 	ldrb.w	r1, [sp, #3]
 8001312:	9801      	ldr	r0, [sp, #4]
 8001314:	4798      	blx	r3
 8001316:	bf00      	nop
 8001318:	b003      	add	sp, #12
 800131a:	f85d fb04 	ldr.w	pc, [sp], #4

0800131e <usbd_register_set_config_callback>:
 800131e:	b084      	sub	sp, #16
 8001320:	9001      	str	r0, [sp, #4]
 8001322:	9100      	str	r1, [sp, #0]
 8001324:	2300      	movs	r3, #0
 8001326:	9303      	str	r3, [sp, #12]
 8001328:	e01c      	b.n	8001364 <usbd_register_set_config_callback+0x46>
 800132a:	9b01      	ldr	r3, [sp, #4]
 800132c:	9a03      	ldr	r2, [sp, #12]
 800132e:	3232      	adds	r2, #50	; 0x32
 8001330:	f853 3022 	ldr.w	r3, [r3, r2, lsl #2]
 8001334:	2b00      	cmp	r3, #0
 8001336:	d00d      	beq.n	8001354 <usbd_register_set_config_callback+0x36>
 8001338:	9b01      	ldr	r3, [sp, #4]
 800133a:	9a03      	ldr	r2, [sp, #12]
 800133c:	3232      	adds	r2, #50	; 0x32
 800133e:	f853 3022 	ldr.w	r3, [r3, r2, lsl #2]
 8001342:	9a00      	ldr	r2, [sp, #0]
 8001344:	429a      	cmp	r2, r3
 8001346:	d101      	bne.n	800134c <usbd_register_set_config_callback+0x2e>
 8001348:	2300      	movs	r3, #0
 800134a:	e010      	b.n	800136e <usbd_register_set_config_callback+0x50>
 800134c:	9b03      	ldr	r3, [sp, #12]
 800134e:	3301      	adds	r3, #1
 8001350:	9303      	str	r3, [sp, #12]
 8001352:	e007      	b.n	8001364 <usbd_register_set_config_callback+0x46>
 8001354:	9b01      	ldr	r3, [sp, #4]
 8001356:	9a03      	ldr	r2, [sp, #12]
 8001358:	3232      	adds	r2, #50	; 0x32
 800135a:	9900      	ldr	r1, [sp, #0]
 800135c:	f843 1022 	str.w	r1, [r3, r2, lsl #2]
 8001360:	2300      	movs	r3, #0
 8001362:	e004      	b.n	800136e <usbd_register_set_config_callback+0x50>
 8001364:	9b03      	ldr	r3, [sp, #12]
 8001366:	2b03      	cmp	r3, #3
 8001368:	dddf      	ble.n	800132a <usbd_register_set_config_callback+0xc>
 800136a:	f04f 33ff 	mov.w	r3, #4294967295
 800136e:	4618      	mov	r0, r3
 8001370:	b004      	add	sp, #16
 8001372:	4770      	bx	lr

08001374 <build_config_descriptor>:
 8001374:	b500      	push	{lr}
 8001376:	b08f      	sub	sp, #60	; 0x3c
 8001378:	9003      	str	r0, [sp, #12]
 800137a:	9201      	str	r2, [sp, #4]
 800137c:	461a      	mov	r2, r3
 800137e:	460b      	mov	r3, r1
 8001380:	f88d 300b 	strb.w	r3, [sp, #11]
 8001384:	4613      	mov	r3, r2
 8001386:	f8ad 3008 	strh.w	r3, [sp, #8]
 800138a:	9b01      	ldr	r3, [sp, #4]
 800138c:	930b      	str	r3, [sp, #44]	; 0x2c
 800138e:	9b03      	ldr	r3, [sp, #12]
 8001390:	6859      	ldr	r1, [r3, #4]
 8001392:	f89d 200b 	ldrb.w	r2, [sp, #11]
 8001396:	4613      	mov	r3, r2
 8001398:	005b      	lsls	r3, r3, #1
 800139a:	4413      	add	r3, r2
 800139c:	009b      	lsls	r3, r3, #2
 800139e:	4413      	add	r3, r2
 80013a0:	440b      	add	r3, r1
 80013a2:	930a      	str	r3, [sp, #40]	; 0x28
 80013a4:	2300      	movs	r3, #0
 80013a6:	f8ad 3036 	strh.w	r3, [sp, #54]	; 0x36
 80013aa:	2300      	movs	r3, #0
 80013ac:	f8ad 3016 	strh.w	r3, [sp, #22]
 80013b0:	9b0a      	ldr	r3, [sp, #40]	; 0x28
 80013b2:	781b      	ldrb	r3, [r3, #0]
 80013b4:	b29b      	uxth	r3, r3
 80013b6:	f8bd 2008 	ldrh.w	r2, [sp, #8]
 80013ba:	4293      	cmp	r3, r2
 80013bc:	bf28      	it	cs
 80013be:	4613      	movcs	r3, r2
 80013c0:	f8ad 3026 	strh.w	r3, [sp, #38]	; 0x26
 80013c4:	f8bd 3026 	ldrh.w	r3, [sp, #38]	; 0x26
 80013c8:	461a      	mov	r2, r3
 80013ca:	990a      	ldr	r1, [sp, #40]	; 0x28
 80013cc:	9801      	ldr	r0, [sp, #4]
 80013ce:	f004 f95f 	bl	8005690 <memcpy>
 80013d2:	f8bd 3026 	ldrh.w	r3, [sp, #38]	; 0x26
 80013d6:	9a01      	ldr	r2, [sp, #4]
 80013d8:	4413      	add	r3, r2
 80013da:	9301      	str	r3, [sp, #4]
 80013dc:	f8bd 2008 	ldrh.w	r2, [sp, #8]
 80013e0:	f8bd 3026 	ldrh.w	r3, [sp, #38]	; 0x26
 80013e4:	1ad3      	subs	r3, r2, r3
 80013e6:	f8ad 3008 	strh.w	r3, [sp, #8]
 80013ea:	f8bd 2036 	ldrh.w	r2, [sp, #54]	; 0x36
 80013ee:	f8bd 3026 	ldrh.w	r3, [sp, #38]	; 0x26
 80013f2:	4413      	add	r3, r2
 80013f4:	f8ad 3036 	strh.w	r3, [sp, #54]	; 0x36
 80013f8:	9b0a      	ldr	r3, [sp, #40]	; 0x28
 80013fa:	781b      	ldrb	r3, [r3, #0]
 80013fc:	b29a      	uxth	r2, r3
 80013fe:	f8bd 3016 	ldrh.w	r3, [sp, #22]
 8001402:	4413      	add	r3, r2
 8001404:	b29b      	uxth	r3, r3
 8001406:	f8ad 3016 	strh.w	r3, [sp, #22]
 800140a:	2300      	movs	r3, #0
 800140c:	f8ad 3034 	strh.w	r3, [sp, #52]	; 0x34
 8001410:	e14a      	b.n	80016a8 <build_config_descriptor+0x334>
 8001412:	9b0a      	ldr	r3, [sp, #40]	; 0x28
 8001414:	f8d3 2009 	ldr.w	r2, [r3, #9]
 8001418:	f8bd 3034 	ldrh.w	r3, [sp, #52]	; 0x34
 800141c:	011b      	lsls	r3, r3, #4
 800141e:	4413      	add	r3, r2
 8001420:	689b      	ldr	r3, [r3, #8]
 8001422:	2b00      	cmp	r3, #0
 8001424:	d035      	beq.n	8001492 <build_config_descriptor+0x11e>
 8001426:	9b0a      	ldr	r3, [sp, #40]	; 0x28
 8001428:	f8d3 2009 	ldr.w	r2, [r3, #9]
 800142c:	f8bd 3034 	ldrh.w	r3, [sp, #52]	; 0x34
 8001430:	011b      	lsls	r3, r3, #4
 8001432:	4413      	add	r3, r2
 8001434:	689b      	ldr	r3, [r3, #8]
 8001436:	9308      	str	r3, [sp, #32]
 8001438:	9b08      	ldr	r3, [sp, #32]
 800143a:	781b      	ldrb	r3, [r3, #0]
 800143c:	b29b      	uxth	r3, r3
 800143e:	f8bd 2008 	ldrh.w	r2, [sp, #8]
 8001442:	4293      	cmp	r3, r2
 8001444:	bf28      	it	cs
 8001446:	4613      	movcs	r3, r2
 8001448:	f8ad 3026 	strh.w	r3, [sp, #38]	; 0x26
 800144c:	f8bd 3026 	ldrh.w	r3, [sp, #38]	; 0x26
 8001450:	461a      	mov	r2, r3
 8001452:	9908      	ldr	r1, [sp, #32]
 8001454:	9801      	ldr	r0, [sp, #4]
 8001456:	f004 f91b 	bl	8005690 <memcpy>
 800145a:	f8bd 3026 	ldrh.w	r3, [sp, #38]	; 0x26
 800145e:	9a01      	ldr	r2, [sp, #4]
 8001460:	4413      	add	r3, r2
 8001462:	9301      	str	r3, [sp, #4]
 8001464:	f8bd 2008 	ldrh.w	r2, [sp, #8]
 8001468:	f8bd 3026 	ldrh.w	r3, [sp, #38]	; 0x26
 800146c:	1ad3      	subs	r3, r2, r3
 800146e:	f8ad 3008 	strh.w	r3, [sp, #8]
 8001472:	f8bd 2036 	ldrh.w	r2, [sp, #54]	; 0x36
 8001476:	f8bd 3026 	ldrh.w	r3, [sp, #38]	; 0x26
 800147a:	4413      	add	r3, r2
 800147c:	f8ad 3036 	strh.w	r3, [sp, #54]	; 0x36
 8001480:	9b08      	ldr	r3, [sp, #32]
 8001482:	781b      	ldrb	r3, [r3, #0]
 8001484:	b29a      	uxth	r2, r3
 8001486:	f8bd 3016 	ldrh.w	r3, [sp, #22]
 800148a:	4413      	add	r3, r2
 800148c:	b29b      	uxth	r3, r3
 800148e:	f8ad 3016 	strh.w	r3, [sp, #22]
 8001492:	2300      	movs	r3, #0
 8001494:	f8ad 3032 	strh.w	r3, [sp, #50]	; 0x32
 8001498:	e0f3      	b.n	8001682 <build_config_descriptor+0x30e>
 800149a:	9b0a      	ldr	r3, [sp, #40]	; 0x28
 800149c:	f8d3 2009 	ldr.w	r2, [r3, #9]
 80014a0:	f8bd 3034 	ldrh.w	r3, [sp, #52]	; 0x34
 80014a4:	011b      	lsls	r3, r3, #4
 80014a6:	4413      	add	r3, r2
 80014a8:	68d9      	ldr	r1, [r3, #12]
 80014aa:	f8bd 2032 	ldrh.w	r2, [sp, #50]	; 0x32
 80014ae:	4613      	mov	r3, r2
 80014b0:	005b      	lsls	r3, r3, #1
 80014b2:	4413      	add	r3, r2
 80014b4:	00da      	lsls	r2, r3, #3
 80014b6:	1ad3      	subs	r3, r2, r3
 80014b8:	440b      	add	r3, r1
 80014ba:	9307      	str	r3, [sp, #28]
 80014bc:	9b07      	ldr	r3, [sp, #28]
 80014be:	781b      	ldrb	r3, [r3, #0]
 80014c0:	b29b      	uxth	r3, r3
 80014c2:	f8bd 2008 	ldrh.w	r2, [sp, #8]
 80014c6:	4293      	cmp	r3, r2
 80014c8:	bf28      	it	cs
 80014ca:	4613      	movcs	r3, r2
 80014cc:	f8ad 3026 	strh.w	r3, [sp, #38]	; 0x26
 80014d0:	f8bd 3026 	ldrh.w	r3, [sp, #38]	; 0x26
 80014d4:	461a      	mov	r2, r3
 80014d6:	9907      	ldr	r1, [sp, #28]
 80014d8:	9801      	ldr	r0, [sp, #4]
 80014da:	f004 f8d9 	bl	8005690 <memcpy>
 80014de:	f8bd 3026 	ldrh.w	r3, [sp, #38]	; 0x26
 80014e2:	9a01      	ldr	r2, [sp, #4]
 80014e4:	4413      	add	r3, r2
 80014e6:	9301      	str	r3, [sp, #4]
 80014e8:	f8bd 2008 	ldrh.w	r2, [sp, #8]
 80014ec:	f8bd 3026 	ldrh.w	r3, [sp, #38]	; 0x26
 80014f0:	1ad3      	subs	r3, r2, r3
 80014f2:	f8ad 3008 	strh.w	r3, [sp, #8]
 80014f6:	f8bd 2036 	ldrh.w	r2, [sp, #54]	; 0x36
 80014fa:	f8bd 3026 	ldrh.w	r3, [sp, #38]	; 0x26
 80014fe:	4413      	add	r3, r2
 8001500:	f8ad 3036 	strh.w	r3, [sp, #54]	; 0x36
 8001504:	9b07      	ldr	r3, [sp, #28]
 8001506:	781b      	ldrb	r3, [r3, #0]
 8001508:	b29a      	uxth	r2, r3
 800150a:	f8bd 3016 	ldrh.w	r3, [sp, #22]
 800150e:	4413      	add	r3, r2
 8001510:	b29b      	uxth	r3, r3
 8001512:	f8ad 3016 	strh.w	r3, [sp, #22]
 8001516:	9b07      	ldr	r3, [sp, #28]
 8001518:	f8d3 300d 	ldr.w	r3, [r3, #13]
 800151c:	2b00      	cmp	r3, #0
 800151e:	d02f      	beq.n	8001580 <build_config_descriptor+0x20c>
 8001520:	9b07      	ldr	r3, [sp, #28]
 8001522:	f8d3 100d 	ldr.w	r1, [r3, #13]
 8001526:	9b07      	ldr	r3, [sp, #28]
 8001528:	f8d3 2011 	ldr.w	r2, [r3, #17]
 800152c:	f8bd 3008 	ldrh.w	r3, [sp, #8]
 8001530:	4293      	cmp	r3, r2
 8001532:	bfa8      	it	ge
 8001534:	4613      	movge	r3, r2
 8001536:	f8ad 3026 	strh.w	r3, [sp, #38]	; 0x26
 800153a:	f8bd 3026 	ldrh.w	r3, [sp, #38]	; 0x26
 800153e:	461a      	mov	r2, r3
 8001540:	9801      	ldr	r0, [sp, #4]
 8001542:	f004 f8a5 	bl	8005690 <memcpy>
 8001546:	f8bd 3026 	ldrh.w	r3, [sp, #38]	; 0x26
 800154a:	9a01      	ldr	r2, [sp, #4]
 800154c:	4413      	add	r3, r2
 800154e:	9301      	str	r3, [sp, #4]
 8001550:	f8bd 2008 	ldrh.w	r2, [sp, #8]
 8001554:	f8bd 3026 	ldrh.w	r3, [sp, #38]	; 0x26
 8001558:	1ad3      	subs	r3, r2, r3
 800155a:	f8ad 3008 	strh.w	r3, [sp, #8]
 800155e:	f8bd 2036 	ldrh.w	r2, [sp, #54]	; 0x36
 8001562:	f8bd 3026 	ldrh.w	r3, [sp, #38]	; 0x26
 8001566:	4413      	add	r3, r2
 8001568:	f8ad 3036 	strh.w	r3, [sp, #54]	; 0x36
 800156c:	9b07      	ldr	r3, [sp, #28]
 800156e:	f8d3 3011 	ldr.w	r3, [r3, #17]
 8001572:	b29a      	uxth	r2, r3
 8001574:	f8bd 3016 	ldrh.w	r3, [sp, #22]
 8001578:	4413      	add	r3, r2
 800157a:	b29b      	uxth	r3, r3
 800157c:	f8ad 3016 	strh.w	r3, [sp, #22]
 8001580:	2300      	movs	r3, #0
 8001582:	f8ad 3030 	strh.w	r3, [sp, #48]	; 0x30
 8001586:	e070      	b.n	800166a <build_config_descriptor+0x2f6>
 8001588:	9b07      	ldr	r3, [sp, #28]
 800158a:	f8d3 1009 	ldr.w	r1, [r3, #9]
 800158e:	f8bd 2030 	ldrh.w	r2, [sp, #48]	; 0x30
 8001592:	4613      	mov	r3, r2
 8001594:	011b      	lsls	r3, r3, #4
 8001596:	1a9b      	subs	r3, r3, r2
 8001598:	440b      	add	r3, r1
 800159a:	9306      	str	r3, [sp, #24]
 800159c:	9b06      	ldr	r3, [sp, #24]
 800159e:	781b      	ldrb	r3, [r3, #0]
 80015a0:	b29b      	uxth	r3, r3
 80015a2:	f8bd 2008 	ldrh.w	r2, [sp, #8]
 80015a6:	4293      	cmp	r3, r2
 80015a8:	bf28      	it	cs
 80015aa:	4613      	movcs	r3, r2
 80015ac:	f8ad 3026 	strh.w	r3, [sp, #38]	; 0x26
 80015b0:	f8bd 3026 	ldrh.w	r3, [sp, #38]	; 0x26
 80015b4:	461a      	mov	r2, r3
 80015b6:	9906      	ldr	r1, [sp, #24]
 80015b8:	9801      	ldr	r0, [sp, #4]
 80015ba:	f004 f869 	bl	8005690 <memcpy>
 80015be:	f8bd 3026 	ldrh.w	r3, [sp, #38]	; 0x26
 80015c2:	9a01      	ldr	r2, [sp, #4]
 80015c4:	4413      	add	r3, r2
 80015c6:	9301      	str	r3, [sp, #4]
 80015c8:	f8bd 2008 	ldrh.w	r2, [sp, #8]
 80015cc:	f8bd 3026 	ldrh.w	r3, [sp, #38]	; 0x26
 80015d0:	1ad3      	subs	r3, r2, r3
 80015d2:	f8ad 3008 	strh.w	r3, [sp, #8]
 80015d6:	f8bd 2036 	ldrh.w	r2, [sp, #54]	; 0x36
 80015da:	f8bd 3026 	ldrh.w	r3, [sp, #38]	; 0x26
 80015de:	4413      	add	r3, r2
 80015e0:	f8ad 3036 	strh.w	r3, [sp, #54]	; 0x36
 80015e4:	9b06      	ldr	r3, [sp, #24]
 80015e6:	781b      	ldrb	r3, [r3, #0]
 80015e8:	b29a      	uxth	r2, r3
 80015ea:	f8bd 3016 	ldrh.w	r3, [sp, #22]
 80015ee:	4413      	add	r3, r2
 80015f0:	b29b      	uxth	r3, r3
 80015f2:	f8ad 3016 	strh.w	r3, [sp, #22]
 80015f6:	9b06      	ldr	r3, [sp, #24]
 80015f8:	f8d3 3007 	ldr.w	r3, [r3, #7]
 80015fc:	2b00      	cmp	r3, #0
 80015fe:	d02f      	beq.n	8001660 <build_config_descriptor+0x2ec>
 8001600:	9b06      	ldr	r3, [sp, #24]
 8001602:	f8d3 1007 	ldr.w	r1, [r3, #7]
 8001606:	9b06      	ldr	r3, [sp, #24]
 8001608:	f8d3 200b 	ldr.w	r2, [r3, #11]
 800160c:	f8bd 3008 	ldrh.w	r3, [sp, #8]
 8001610:	4293      	cmp	r3, r2
 8001612:	bfa8      	it	ge
 8001614:	4613      	movge	r3, r2
 8001616:	f8ad 3026 	strh.w	r3, [sp, #38]	; 0x26
 800161a:	f8bd 3026 	ldrh.w	r3, [sp, #38]	; 0x26
 800161e:	461a      	mov	r2, r3
 8001620:	9801      	ldr	r0, [sp, #4]
 8001622:	f004 f835 	bl	8005690 <memcpy>
 8001626:	f8bd 3026 	ldrh.w	r3, [sp, #38]	; 0x26
 800162a:	9a01      	ldr	r2, [sp, #4]
 800162c:	4413      	add	r3, r2
 800162e:	9301      	str	r3, [sp, #4]
 8001630:	f8bd 2008 	ldrh.w	r2, [sp, #8]
 8001634:	f8bd 3026 	ldrh.w	r3, [sp, #38]	; 0x26
 8001638:	1ad3      	subs	r3, r2, r3
 800163a:	f8ad 3008 	strh.w	r3, [sp, #8]
 800163e:	f8bd 2036 	ldrh.w	r2, [sp, #54]	; 0x36
 8001642:	f8bd 3026 	ldrh.w	r3, [sp, #38]	; 0x26
 8001646:	4413      	add	r3, r2
 8001648:	f8ad 3036 	strh.w	r3, [sp, #54]	; 0x36
 800164c:	9b06      	ldr	r3, [sp, #24]
 800164e:	f8d3 300b 	ldr.w	r3, [r3, #11]
 8001652:	b29a      	uxth	r2, r3
 8001654:	f8bd 3016 	ldrh.w	r3, [sp, #22]
 8001658:	4413      	add	r3, r2
 800165a:	b29b      	uxth	r3, r3
 800165c:	f8ad 3016 	strh.w	r3, [sp, #22]
 8001660:	f8bd 3030 	ldrh.w	r3, [sp, #48]	; 0x30
 8001664:	3301      	adds	r3, #1
 8001666:	f8ad 3030 	strh.w	r3, [sp, #48]	; 0x30
 800166a:	9b07      	ldr	r3, [sp, #28]
 800166c:	791b      	ldrb	r3, [r3, #4]
 800166e:	b29b      	uxth	r3, r3
 8001670:	f8bd 2030 	ldrh.w	r2, [sp, #48]	; 0x30
 8001674:	429a      	cmp	r2, r3
 8001676:	d387      	bcc.n	8001588 <build_config_descriptor+0x214>
 8001678:	f8bd 3032 	ldrh.w	r3, [sp, #50]	; 0x32
 800167c:	3301      	adds	r3, #1
 800167e:	f8ad 3032 	strh.w	r3, [sp, #50]	; 0x32
 8001682:	9b0a      	ldr	r3, [sp, #40]	; 0x28
 8001684:	f8d3 2009 	ldr.w	r2, [r3, #9]
 8001688:	f8bd 3034 	ldrh.w	r3, [sp, #52]	; 0x34
 800168c:	011b      	lsls	r3, r3, #4
 800168e:	4413      	add	r3, r2
 8001690:	791b      	ldrb	r3, [r3, #4]
 8001692:	b29b      	uxth	r3, r3
 8001694:	f8bd 2032 	ldrh.w	r2, [sp, #50]	; 0x32
 8001698:	429a      	cmp	r2, r3
 800169a:	f4ff aefe 	bcc.w	800149a <build_config_descriptor+0x126>
 800169e:	f8bd 3034 	ldrh.w	r3, [sp, #52]	; 0x34
 80016a2:	3301      	adds	r3, #1
 80016a4:	f8ad 3034 	strh.w	r3, [sp, #52]	; 0x34
 80016a8:	9b0a      	ldr	r3, [sp, #40]	; 0x28
 80016aa:	791b      	ldrb	r3, [r3, #4]
 80016ac:	b29b      	uxth	r3, r3
 80016ae:	f8bd 2034 	ldrh.w	r2, [sp, #52]	; 0x34
 80016b2:	429a      	cmp	r2, r3
 80016b4:	f4ff aead 	bcc.w	8001412 <build_config_descriptor+0x9e>
 80016b8:	9b0b      	ldr	r3, [sp, #44]	; 0x2c
 80016ba:	3302      	adds	r3, #2
 80016bc:	f8bd 2016 	ldrh.w	r2, [sp, #22]
 80016c0:	801a      	strh	r2, [r3, #0]
 80016c2:	f8bd 3036 	ldrh.w	r3, [sp, #54]	; 0x36
 80016c6:	4618      	mov	r0, r3
 80016c8:	b00f      	add	sp, #60	; 0x3c
 80016ca:	f85d fb04 	ldr.w	pc, [sp], #4

080016ce <usb_descriptor_type>:
 80016ce:	b082      	sub	sp, #8
 80016d0:	4603      	mov	r3, r0
 80016d2:	f8ad 3006 	strh.w	r3, [sp, #6]
 80016d6:	f8bd 3006 	ldrh.w	r3, [sp, #6]
 80016da:	0a1b      	lsrs	r3, r3, #8
 80016dc:	b29b      	uxth	r3, r3
 80016de:	4618      	mov	r0, r3
 80016e0:	b002      	add	sp, #8
 80016e2:	4770      	bx	lr

080016e4 <usb_descriptor_index>:
 80016e4:	b082      	sub	sp, #8
 80016e6:	4603      	mov	r3, r0
 80016e8:	f8ad 3006 	strh.w	r3, [sp, #6]
 80016ec:	f8bd 3006 	ldrh.w	r3, [sp, #6]
 80016f0:	b2db      	uxtb	r3, r3
 80016f2:	4618      	mov	r0, r3
 80016f4:	b002      	add	sp, #8
 80016f6:	4770      	bx	lr

080016f8 <usb_standard_get_descriptor>:
 80016f8:	b500      	push	{lr}
 80016fa:	b089      	sub	sp, #36	; 0x24
 80016fc:	9003      	str	r0, [sp, #12]
 80016fe:	9102      	str	r1, [sp, #8]
 8001700:	9201      	str	r2, [sp, #4]
 8001702:	9300      	str	r3, [sp, #0]
 8001704:	9b02      	ldr	r3, [sp, #8]
 8001706:	885b      	ldrh	r3, [r3, #2]
 8001708:	b29b      	uxth	r3, r3
 800170a:	4618      	mov	r0, r3
 800170c:	f7ff ffea 	bl	80016e4 <usb_descriptor_index>
 8001710:	9006      	str	r0, [sp, #24]
 8001712:	9b02      	ldr	r3, [sp, #8]
 8001714:	885b      	ldrh	r3, [r3, #2]
 8001716:	b29b      	uxth	r3, r3
 8001718:	4618      	mov	r0, r3
 800171a:	f7ff ffd8 	bl	80016ce <usb_descriptor_type>
 800171e:	4603      	mov	r3, r0
 8001720:	2b02      	cmp	r3, #2
 8001722:	d016      	beq.n	8001752 <usb_standard_get_descriptor+0x5a>
 8001724:	2b03      	cmp	r3, #3
 8001726:	d027      	beq.n	8001778 <usb_standard_get_descriptor+0x80>
 8001728:	2b01      	cmp	r3, #1
 800172a:	f040 809d 	bne.w	8001868 <usb_standard_get_descriptor+0x170>
 800172e:	9b03      	ldr	r3, [sp, #12]
 8001730:	681a      	ldr	r2, [r3, #0]
 8001732:	9b01      	ldr	r3, [sp, #4]
 8001734:	601a      	str	r2, [r3, #0]
 8001736:	9b03      	ldr	r3, [sp, #12]
 8001738:	681b      	ldr	r3, [r3, #0]
 800173a:	781b      	ldrb	r3, [r3, #0]
 800173c:	b29a      	uxth	r2, r3
 800173e:	9b00      	ldr	r3, [sp, #0]
 8001740:	881b      	ldrh	r3, [r3, #0]
 8001742:	4293      	cmp	r3, r2
 8001744:	bf28      	it	cs
 8001746:	4613      	movcs	r3, r2
 8001748:	b29a      	uxth	r2, r3
 800174a:	9b00      	ldr	r3, [sp, #0]
 800174c:	801a      	strh	r2, [r3, #0]
 800174e:	2301      	movs	r3, #1
 8001750:	e08b      	b.n	800186a <usb_standard_get_descriptor+0x172>
 8001752:	9b03      	ldr	r3, [sp, #12]
 8001754:	691a      	ldr	r2, [r3, #16]
 8001756:	9b01      	ldr	r3, [sp, #4]
 8001758:	601a      	str	r2, [r3, #0]
 800175a:	9b06      	ldr	r3, [sp, #24]
 800175c:	b2d9      	uxtb	r1, r3
 800175e:	9b01      	ldr	r3, [sp, #4]
 8001760:	681a      	ldr	r2, [r3, #0]
 8001762:	9b00      	ldr	r3, [sp, #0]
 8001764:	881b      	ldrh	r3, [r3, #0]
 8001766:	9803      	ldr	r0, [sp, #12]
 8001768:	f7ff fe04 	bl	8001374 <build_config_descriptor>
 800176c:	4603      	mov	r3, r0
 800176e:	461a      	mov	r2, r3
 8001770:	9b00      	ldr	r3, [sp, #0]
 8001772:	801a      	strh	r2, [r3, #0]
 8001774:	2301      	movs	r3, #1
 8001776:	e078      	b.n	800186a <usb_standard_get_descriptor+0x172>
 8001778:	9b03      	ldr	r3, [sp, #12]
 800177a:	691b      	ldr	r3, [r3, #16]
 800177c:	9305      	str	r3, [sp, #20]
 800177e:	9b06      	ldr	r3, [sp, #24]
 8001780:	2b00      	cmp	r3, #0
 8001782:	d117      	bne.n	80017b4 <usb_standard_get_descriptor+0xbc>
 8001784:	9b05      	ldr	r3, [sp, #20]
 8001786:	2200      	movs	r2, #0
 8001788:	f042 0209 	orr.w	r2, r2, #9
 800178c:	709a      	strb	r2, [r3, #2]
 800178e:	2200      	movs	r2, #0
 8001790:	f042 0204 	orr.w	r2, r2, #4
 8001794:	70da      	strb	r2, [r3, #3]
 8001796:	9b05      	ldr	r3, [sp, #20]
 8001798:	2204      	movs	r2, #4
 800179a:	701a      	strb	r2, [r3, #0]
 800179c:	9b05      	ldr	r3, [sp, #20]
 800179e:	781b      	ldrb	r3, [r3, #0]
 80017a0:	b29a      	uxth	r2, r3
 80017a2:	9b00      	ldr	r3, [sp, #0]
 80017a4:	881b      	ldrh	r3, [r3, #0]
 80017a6:	4293      	cmp	r3, r2
 80017a8:	bf28      	it	cs
 80017aa:	4613      	movcs	r3, r2
 80017ac:	b29a      	uxth	r2, r3
 80017ae:	9b00      	ldr	r3, [sp, #0]
 80017b0:	801a      	strh	r2, [r3, #0]
 80017b2:	e051      	b.n	8001858 <usb_standard_get_descriptor+0x160>
 80017b4:	9b06      	ldr	r3, [sp, #24]
 80017b6:	3b01      	subs	r3, #1
 80017b8:	9304      	str	r3, [sp, #16]
 80017ba:	9b03      	ldr	r3, [sp, #12]
 80017bc:	689b      	ldr	r3, [r3, #8]
 80017be:	2b00      	cmp	r3, #0
 80017c0:	d101      	bne.n	80017c6 <usb_standard_get_descriptor+0xce>
 80017c2:	2300      	movs	r3, #0
 80017c4:	e051      	b.n	800186a <usb_standard_get_descriptor+0x172>
 80017c6:	9b03      	ldr	r3, [sp, #12]
 80017c8:	68db      	ldr	r3, [r3, #12]
 80017ca:	9a04      	ldr	r2, [sp, #16]
 80017cc:	429a      	cmp	r2, r3
 80017ce:	db01      	blt.n	80017d4 <usb_standard_get_descriptor+0xdc>
 80017d0:	2300      	movs	r3, #0
 80017d2:	e04a      	b.n	800186a <usb_standard_get_descriptor+0x172>
 80017d4:	9b02      	ldr	r3, [sp, #8]
 80017d6:	889b      	ldrh	r3, [r3, #4]
 80017d8:	b29b      	uxth	r3, r3
 80017da:	f240 4209 	movw	r2, #1033	; 0x409
 80017de:	4293      	cmp	r3, r2
 80017e0:	d001      	beq.n	80017e6 <usb_standard_get_descriptor+0xee>
 80017e2:	2300      	movs	r3, #0
 80017e4:	e041      	b.n	800186a <usb_standard_get_descriptor+0x172>
 80017e6:	9b03      	ldr	r3, [sp, #12]
 80017e8:	689a      	ldr	r2, [r3, #8]
 80017ea:	9b04      	ldr	r3, [sp, #16]
 80017ec:	009b      	lsls	r3, r3, #2
 80017ee:	4413      	add	r3, r2
 80017f0:	681b      	ldr	r3, [r3, #0]
 80017f2:	4618      	mov	r0, r3
 80017f4:	f003 ff8c 	bl	8005710 <strlen>
 80017f8:	4603      	mov	r3, r0
 80017fa:	3301      	adds	r3, #1
 80017fc:	b2db      	uxtb	r3, r3
 80017fe:	005b      	lsls	r3, r3, #1
 8001800:	b2da      	uxtb	r2, r3
 8001802:	9b05      	ldr	r3, [sp, #20]
 8001804:	701a      	strb	r2, [r3, #0]
 8001806:	9b05      	ldr	r3, [sp, #20]
 8001808:	781b      	ldrb	r3, [r3, #0]
 800180a:	b29a      	uxth	r2, r3
 800180c:	9b00      	ldr	r3, [sp, #0]
 800180e:	881b      	ldrh	r3, [r3, #0]
 8001810:	4293      	cmp	r3, r2
 8001812:	bf28      	it	cs
 8001814:	4613      	movcs	r3, r2
 8001816:	b29a      	uxth	r2, r3
 8001818:	9b00      	ldr	r3, [sp, #0]
 800181a:	801a      	strh	r2, [r3, #0]
 800181c:	2300      	movs	r3, #0
 800181e:	9307      	str	r3, [sp, #28]
 8001820:	e012      	b.n	8001848 <usb_standard_get_descriptor+0x150>
 8001822:	9b03      	ldr	r3, [sp, #12]
 8001824:	689a      	ldr	r2, [r3, #8]
 8001826:	9b04      	ldr	r3, [sp, #16]
 8001828:	009b      	lsls	r3, r3, #2
 800182a:	4413      	add	r3, r2
 800182c:	681a      	ldr	r2, [r3, #0]
 800182e:	9b07      	ldr	r3, [sp, #28]
 8001830:	4413      	add	r3, r2
 8001832:	781b      	ldrb	r3, [r3, #0]
 8001834:	b299      	uxth	r1, r3
 8001836:	9a05      	ldr	r2, [sp, #20]
 8001838:	9b07      	ldr	r3, [sp, #28]
 800183a:	005b      	lsls	r3, r3, #1
 800183c:	4413      	add	r3, r2
 800183e:	460a      	mov	r2, r1
 8001840:	805a      	strh	r2, [r3, #2]
 8001842:	9b07      	ldr	r3, [sp, #28]
 8001844:	3301      	adds	r3, #1
 8001846:	9307      	str	r3, [sp, #28]
 8001848:	9b00      	ldr	r3, [sp, #0]
 800184a:	881b      	ldrh	r3, [r3, #0]
 800184c:	085b      	lsrs	r3, r3, #1
 800184e:	b29b      	uxth	r3, r3
 8001850:	3b01      	subs	r3, #1
 8001852:	9a07      	ldr	r2, [sp, #28]
 8001854:	429a      	cmp	r2, r3
 8001856:	dbe4      	blt.n	8001822 <usb_standard_get_descriptor+0x12a>
 8001858:	9b05      	ldr	r3, [sp, #20]
 800185a:	2203      	movs	r2, #3
 800185c:	705a      	strb	r2, [r3, #1]
 800185e:	9b01      	ldr	r3, [sp, #4]
 8001860:	9a05      	ldr	r2, [sp, #20]
 8001862:	601a      	str	r2, [r3, #0]
 8001864:	2301      	movs	r3, #1
 8001866:	e000      	b.n	800186a <usb_standard_get_descriptor+0x172>
 8001868:	2300      	movs	r3, #0
 800186a:	4618      	mov	r0, r3
 800186c:	b009      	add	sp, #36	; 0x24
 800186e:	f85d fb04 	ldr.w	pc, [sp], #4

08001872 <usb_standard_set_address>:
 8001872:	b500      	push	{lr}
 8001874:	b085      	sub	sp, #20
 8001876:	9003      	str	r0, [sp, #12]
 8001878:	9102      	str	r1, [sp, #8]
 800187a:	9201      	str	r2, [sp, #4]
 800187c:	9300      	str	r3, [sp, #0]
 800187e:	9b02      	ldr	r3, [sp, #8]
 8001880:	781b      	ldrb	r3, [r3, #0]
 8001882:	2b00      	cmp	r3, #0
 8001884:	d104      	bne.n	8001890 <usb_standard_set_address+0x1e>
 8001886:	9b02      	ldr	r3, [sp, #8]
 8001888:	885b      	ldrh	r3, [r3, #2]
 800188a:	b29b      	uxth	r3, r3
 800188c:	2b7f      	cmp	r3, #127	; 0x7f
 800188e:	d901      	bls.n	8001894 <usb_standard_set_address+0x22>
 8001890:	2300      	movs	r3, #0
 8001892:	e018      	b.n	80018c6 <usb_standard_set_address+0x54>
 8001894:	9b02      	ldr	r3, [sp, #8]
 8001896:	885b      	ldrh	r3, [r3, #2]
 8001898:	b29b      	uxth	r3, r3
 800189a:	b2da      	uxtb	r2, r3
 800189c:	9b03      	ldr	r3, [sp, #12]
 800189e:	759a      	strb	r2, [r3, #22]
 80018a0:	9b03      	ldr	r3, [sp, #12]
 80018a2:	f8d3 30dc 	ldr.w	r3, [r3, #220]	; 0xdc
 80018a6:	f893 3030 	ldrb.w	r3, [r3, #48]	; 0x30
 80018aa:	2b00      	cmp	r3, #0
 80018ac:	d00a      	beq.n	80018c4 <usb_standard_set_address+0x52>
 80018ae:	9b03      	ldr	r3, [sp, #12]
 80018b0:	f8d3 30dc 	ldr.w	r3, [r3, #220]	; 0xdc
 80018b4:	685b      	ldr	r3, [r3, #4]
 80018b6:	9a02      	ldr	r2, [sp, #8]
 80018b8:	8852      	ldrh	r2, [r2, #2]
 80018ba:	b292      	uxth	r2, r2
 80018bc:	b2d2      	uxtb	r2, r2
 80018be:	4611      	mov	r1, r2
 80018c0:	9803      	ldr	r0, [sp, #12]
 80018c2:	4798      	blx	r3
 80018c4:	2301      	movs	r3, #1
 80018c6:	4618      	mov	r0, r3
 80018c8:	b005      	add	sp, #20
 80018ca:	f85d fb04 	ldr.w	pc, [sp], #4

080018ce <usb_standard_set_configuration>:
 80018ce:	b500      	push	{lr}
 80018d0:	b089      	sub	sp, #36	; 0x24
 80018d2:	9003      	str	r0, [sp, #12]
 80018d4:	9102      	str	r1, [sp, #8]
 80018d6:	9201      	str	r2, [sp, #4]
 80018d8:	9300      	str	r3, [sp, #0]
 80018da:	f04f 33ff 	mov.w	r3, #4294967295
 80018de:	9306      	str	r3, [sp, #24]
 80018e0:	9b02      	ldr	r3, [sp, #8]
 80018e2:	885b      	ldrh	r3, [r3, #2]
 80018e4:	b29b      	uxth	r3, r3
 80018e6:	2b00      	cmp	r3, #0
 80018e8:	d024      	beq.n	8001934 <usb_standard_set_configuration+0x66>
 80018ea:	2300      	movs	r3, #0
 80018ec:	9307      	str	r3, [sp, #28]
 80018ee:	e015      	b.n	800191c <usb_standard_set_configuration+0x4e>
 80018f0:	9b02      	ldr	r3, [sp, #8]
 80018f2:	885b      	ldrh	r3, [r3, #2]
 80018f4:	b299      	uxth	r1, r3
 80018f6:	9b03      	ldr	r3, [sp, #12]
 80018f8:	6858      	ldr	r0, [r3, #4]
 80018fa:	9a07      	ldr	r2, [sp, #28]
 80018fc:	4613      	mov	r3, r2
 80018fe:	005b      	lsls	r3, r3, #1
 8001900:	4413      	add	r3, r2
 8001902:	009b      	lsls	r3, r3, #2
 8001904:	4413      	add	r3, r2
 8001906:	4403      	add	r3, r0
 8001908:	795b      	ldrb	r3, [r3, #5]
 800190a:	b29b      	uxth	r3, r3
 800190c:	4299      	cmp	r1, r3
 800190e:	d102      	bne.n	8001916 <usb_standard_set_configuration+0x48>
 8001910:	9b07      	ldr	r3, [sp, #28]
 8001912:	9306      	str	r3, [sp, #24]
 8001914:	e009      	b.n	800192a <usb_standard_set_configuration+0x5c>
 8001916:	9b07      	ldr	r3, [sp, #28]
 8001918:	3301      	adds	r3, #1
 800191a:	9307      	str	r3, [sp, #28]
 800191c:	9b03      	ldr	r3, [sp, #12]
 800191e:	681b      	ldr	r3, [r3, #0]
 8001920:	7c5b      	ldrb	r3, [r3, #17]
 8001922:	461a      	mov	r2, r3
 8001924:	9b07      	ldr	r3, [sp, #28]
 8001926:	4293      	cmp	r3, r2
 8001928:	d3e2      	bcc.n	80018f0 <usb_standard_set_configuration+0x22>
 800192a:	9b06      	ldr	r3, [sp, #24]
 800192c:	2b00      	cmp	r3, #0
 800192e:	da01      	bge.n	8001934 <usb_standard_set_configuration+0x66>
 8001930:	2300      	movs	r3, #0
 8001932:	e06a      	b.n	8001a0a <usb_standard_set_configuration+0x13c>
 8001934:	9b06      	ldr	r3, [sp, #24]
 8001936:	b2db      	uxtb	r3, r3
 8001938:	3301      	adds	r3, #1
 800193a:	b2da      	uxtb	r2, r3
 800193c:	9b03      	ldr	r3, [sp, #12]
 800193e:	75da      	strb	r2, [r3, #23]
 8001940:	9b03      	ldr	r3, [sp, #12]
 8001942:	7ddb      	ldrb	r3, [r3, #23]
 8001944:	2b00      	cmp	r3, #0
 8001946:	d02a      	beq.n	800199e <usb_standard_set_configuration+0xd0>
 8001948:	9b03      	ldr	r3, [sp, #12]
 800194a:	6859      	ldr	r1, [r3, #4]
 800194c:	9b03      	ldr	r3, [sp, #12]
 800194e:	7ddb      	ldrb	r3, [r3, #23]
 8001950:	461a      	mov	r2, r3
 8001952:	4613      	mov	r3, r2
 8001954:	005b      	lsls	r3, r3, #1
 8001956:	4413      	add	r3, r2
 8001958:	009b      	lsls	r3, r3, #2
 800195a:	4413      	add	r3, r2
 800195c:	3b0d      	subs	r3, #13
 800195e:	440b      	add	r3, r1
 8001960:	9305      	str	r3, [sp, #20]
 8001962:	2300      	movs	r3, #0
 8001964:	9307      	str	r3, [sp, #28]
 8001966:	e014      	b.n	8001992 <usb_standard_set_configuration+0xc4>
 8001968:	9b05      	ldr	r3, [sp, #20]
 800196a:	f8d3 2009 	ldr.w	r2, [r3, #9]
 800196e:	9b07      	ldr	r3, [sp, #28]
 8001970:	011b      	lsls	r3, r3, #4
 8001972:	4413      	add	r3, r2
 8001974:	681b      	ldr	r3, [r3, #0]
 8001976:	2b00      	cmp	r3, #0
 8001978:	d008      	beq.n	800198c <usb_standard_set_configuration+0xbe>
 800197a:	9b05      	ldr	r3, [sp, #20]
 800197c:	f8d3 2009 	ldr.w	r2, [r3, #9]
 8001980:	9b07      	ldr	r3, [sp, #28]
 8001982:	011b      	lsls	r3, r3, #4
 8001984:	4413      	add	r3, r2
 8001986:	681b      	ldr	r3, [r3, #0]
 8001988:	2200      	movs	r2, #0
 800198a:	701a      	strb	r2, [r3, #0]
 800198c:	9b07      	ldr	r3, [sp, #28]
 800198e:	3301      	adds	r3, #1
 8001990:	9307      	str	r3, [sp, #28]
 8001992:	9b05      	ldr	r3, [sp, #20]
 8001994:	791b      	ldrb	r3, [r3, #4]
 8001996:	461a      	mov	r2, r3
 8001998:	9b07      	ldr	r3, [sp, #28]
 800199a:	4293      	cmp	r3, r2
 800199c:	d3e4      	bcc.n	8001968 <usb_standard_set_configuration+0x9a>
 800199e:	9b03      	ldr	r3, [sp, #12]
 80019a0:	f8d3 30dc 	ldr.w	r3, [r3, #220]	; 0xdc
 80019a4:	68db      	ldr	r3, [r3, #12]
 80019a6:	9803      	ldr	r0, [sp, #12]
 80019a8:	4798      	blx	r3
 80019aa:	9b03      	ldr	r3, [sp, #12]
 80019ac:	f8d3 30c8 	ldr.w	r3, [r3, #200]	; 0xc8
 80019b0:	2b00      	cmp	r3, #0
 80019b2:	d029      	beq.n	8001a08 <usb_standard_set_configuration+0x13a>
 80019b4:	2300      	movs	r3, #0
 80019b6:	9307      	str	r3, [sp, #28]
 80019b8:	e008      	b.n	80019cc <usb_standard_set_configuration+0xfe>
 80019ba:	9b03      	ldr	r3, [sp, #12]
 80019bc:	9a07      	ldr	r2, [sp, #28]
 80019be:	3209      	adds	r2, #9
 80019c0:	2100      	movs	r1, #0
 80019c2:	f843 1032 	str.w	r1, [r3, r2, lsl #3]
 80019c6:	9b07      	ldr	r3, [sp, #28]
 80019c8:	3301      	adds	r3, #1
 80019ca:	9307      	str	r3, [sp, #28]
 80019cc:	9b07      	ldr	r3, [sp, #28]
 80019ce:	2b03      	cmp	r3, #3
 80019d0:	d9f3      	bls.n	80019ba <usb_standard_set_configuration+0xec>
 80019d2:	2300      	movs	r3, #0
 80019d4:	9307      	str	r3, [sp, #28]
 80019d6:	e014      	b.n	8001a02 <usb_standard_set_configuration+0x134>
 80019d8:	9b03      	ldr	r3, [sp, #12]
 80019da:	9a07      	ldr	r2, [sp, #28]
 80019dc:	3232      	adds	r2, #50	; 0x32
 80019de:	f853 3022 	ldr.w	r3, [r3, r2, lsl #2]
 80019e2:	2b00      	cmp	r3, #0
 80019e4:	d00a      	beq.n	80019fc <usb_standard_set_configuration+0x12e>
 80019e6:	9b03      	ldr	r3, [sp, #12]
 80019e8:	9a07      	ldr	r2, [sp, #28]
 80019ea:	3232      	adds	r2, #50	; 0x32
 80019ec:	f853 3022 	ldr.w	r3, [r3, r2, lsl #2]
 80019f0:	9a02      	ldr	r2, [sp, #8]
 80019f2:	8852      	ldrh	r2, [r2, #2]
 80019f4:	b292      	uxth	r2, r2
 80019f6:	4611      	mov	r1, r2
 80019f8:	9803      	ldr	r0, [sp, #12]
 80019fa:	4798      	blx	r3
 80019fc:	9b07      	ldr	r3, [sp, #28]
 80019fe:	3301      	adds	r3, #1
 8001a00:	9307      	str	r3, [sp, #28]
 8001a02:	9b07      	ldr	r3, [sp, #28]
 8001a04:	2b03      	cmp	r3, #3
 8001a06:	d9e7      	bls.n	80019d8 <usb_standard_set_configuration+0x10a>
 8001a08:	2301      	movs	r3, #1
 8001a0a:	4618      	mov	r0, r3
 8001a0c:	b009      	add	sp, #36	; 0x24
 8001a0e:	f85d fb04 	ldr.w	pc, [sp], #4

08001a12 <usb_standard_get_configuration>:
 8001a12:	b086      	sub	sp, #24
 8001a14:	9003      	str	r0, [sp, #12]
 8001a16:	9102      	str	r1, [sp, #8]
 8001a18:	9201      	str	r2, [sp, #4]
 8001a1a:	9300      	str	r3, [sp, #0]
 8001a1c:	9b00      	ldr	r3, [sp, #0]
 8001a1e:	881b      	ldrh	r3, [r3, #0]
 8001a20:	2b01      	cmp	r3, #1
 8001a22:	d902      	bls.n	8001a2a <usb_standard_get_configuration+0x18>
 8001a24:	9b00      	ldr	r3, [sp, #0]
 8001a26:	2201      	movs	r2, #1
 8001a28:	801a      	strh	r2, [r3, #0]
 8001a2a:	9b03      	ldr	r3, [sp, #12]
 8001a2c:	7ddb      	ldrb	r3, [r3, #23]
 8001a2e:	2b00      	cmp	r3, #0
 8001a30:	d012      	beq.n	8001a58 <usb_standard_get_configuration+0x46>
 8001a32:	9b03      	ldr	r3, [sp, #12]
 8001a34:	6859      	ldr	r1, [r3, #4]
 8001a36:	9b03      	ldr	r3, [sp, #12]
 8001a38:	7ddb      	ldrb	r3, [r3, #23]
 8001a3a:	461a      	mov	r2, r3
 8001a3c:	4613      	mov	r3, r2
 8001a3e:	005b      	lsls	r3, r3, #1
 8001a40:	4413      	add	r3, r2
 8001a42:	009b      	lsls	r3, r3, #2
 8001a44:	4413      	add	r3, r2
 8001a46:	3b0d      	subs	r3, #13
 8001a48:	440b      	add	r3, r1
 8001a4a:	9305      	str	r3, [sp, #20]
 8001a4c:	9b01      	ldr	r3, [sp, #4]
 8001a4e:	681b      	ldr	r3, [r3, #0]
 8001a50:	9a05      	ldr	r2, [sp, #20]
 8001a52:	7952      	ldrb	r2, [r2, #5]
 8001a54:	701a      	strb	r2, [r3, #0]
 8001a56:	e003      	b.n	8001a60 <usb_standard_get_configuration+0x4e>
 8001a58:	9b01      	ldr	r3, [sp, #4]
 8001a5a:	681b      	ldr	r3, [r3, #0]
 8001a5c:	2200      	movs	r2, #0
 8001a5e:	701a      	strb	r2, [r3, #0]
 8001a60:	2301      	movs	r3, #1
 8001a62:	4618      	mov	r0, r3
 8001a64:	b006      	add	sp, #24
 8001a66:	4770      	bx	lr

08001a68 <usb_standard_set_interface>:
 8001a68:	b500      	push	{lr}
 8001a6a:	b087      	sub	sp, #28
 8001a6c:	9003      	str	r0, [sp, #12]
 8001a6e:	9102      	str	r1, [sp, #8]
 8001a70:	9201      	str	r2, [sp, #4]
 8001a72:	9300      	str	r3, [sp, #0]
 8001a74:	9b03      	ldr	r3, [sp, #12]
 8001a76:	6859      	ldr	r1, [r3, #4]
 8001a78:	9b03      	ldr	r3, [sp, #12]
 8001a7a:	7ddb      	ldrb	r3, [r3, #23]
 8001a7c:	461a      	mov	r2, r3
 8001a7e:	4613      	mov	r3, r2
 8001a80:	005b      	lsls	r3, r3, #1
 8001a82:	4413      	add	r3, r2
 8001a84:	009b      	lsls	r3, r3, #2
 8001a86:	4413      	add	r3, r2
 8001a88:	3b0d      	subs	r3, #13
 8001a8a:	440b      	add	r3, r1
 8001a8c:	9305      	str	r3, [sp, #20]
 8001a8e:	9b02      	ldr	r3, [sp, #8]
 8001a90:	889b      	ldrh	r3, [r3, #4]
 8001a92:	b29a      	uxth	r2, r3
 8001a94:	9b05      	ldr	r3, [sp, #20]
 8001a96:	791b      	ldrb	r3, [r3, #4]
 8001a98:	b29b      	uxth	r3, r3
 8001a9a:	429a      	cmp	r2, r3
 8001a9c:	d301      	bcc.n	8001aa2 <usb_standard_set_interface+0x3a>
 8001a9e:	2300      	movs	r3, #0
 8001aa0:	e039      	b.n	8001b16 <usb_standard_set_interface+0xae>
 8001aa2:	9b05      	ldr	r3, [sp, #20]
 8001aa4:	f8d3 2009 	ldr.w	r2, [r3, #9]
 8001aa8:	9b02      	ldr	r3, [sp, #8]
 8001aaa:	889b      	ldrh	r3, [r3, #4]
 8001aac:	b29b      	uxth	r3, r3
 8001aae:	011b      	lsls	r3, r3, #4
 8001ab0:	4413      	add	r3, r2
 8001ab2:	9304      	str	r3, [sp, #16]
 8001ab4:	9b02      	ldr	r3, [sp, #8]
 8001ab6:	885b      	ldrh	r3, [r3, #2]
 8001ab8:	b29a      	uxth	r2, r3
 8001aba:	9b04      	ldr	r3, [sp, #16]
 8001abc:	791b      	ldrb	r3, [r3, #4]
 8001abe:	b29b      	uxth	r3, r3
 8001ac0:	429a      	cmp	r2, r3
 8001ac2:	d301      	bcc.n	8001ac8 <usb_standard_set_interface+0x60>
 8001ac4:	2300      	movs	r3, #0
 8001ac6:	e026      	b.n	8001b16 <usb_standard_set_interface+0xae>
 8001ac8:	9b04      	ldr	r3, [sp, #16]
 8001aca:	681b      	ldr	r3, [r3, #0]
 8001acc:	2b00      	cmp	r3, #0
 8001ace:	d007      	beq.n	8001ae0 <usb_standard_set_interface+0x78>
 8001ad0:	9b02      	ldr	r3, [sp, #8]
 8001ad2:	885b      	ldrh	r3, [r3, #2]
 8001ad4:	b29a      	uxth	r2, r3
 8001ad6:	9b04      	ldr	r3, [sp, #16]
 8001ad8:	681b      	ldr	r3, [r3, #0]
 8001ada:	b2d2      	uxtb	r2, r2
 8001adc:	701a      	strb	r2, [r3, #0]
 8001ade:	e006      	b.n	8001aee <usb_standard_set_interface+0x86>
 8001ae0:	9b02      	ldr	r3, [sp, #8]
 8001ae2:	885b      	ldrh	r3, [r3, #2]
 8001ae4:	b29b      	uxth	r3, r3
 8001ae6:	2b00      	cmp	r3, #0
 8001ae8:	d001      	beq.n	8001aee <usb_standard_set_interface+0x86>
 8001aea:	2300      	movs	r3, #0
 8001aec:	e013      	b.n	8001b16 <usb_standard_set_interface+0xae>
 8001aee:	9b03      	ldr	r3, [sp, #12]
 8001af0:	f8d3 30d8 	ldr.w	r3, [r3, #216]	; 0xd8
 8001af4:	2b00      	cmp	r3, #0
 8001af6:	d00a      	beq.n	8001b0e <usb_standard_set_interface+0xa6>
 8001af8:	9b03      	ldr	r3, [sp, #12]
 8001afa:	f8d3 30d8 	ldr.w	r3, [r3, #216]	; 0xd8
 8001afe:	9a02      	ldr	r2, [sp, #8]
 8001b00:	8892      	ldrh	r2, [r2, #4]
 8001b02:	b291      	uxth	r1, r2
 8001b04:	9a02      	ldr	r2, [sp, #8]
 8001b06:	8852      	ldrh	r2, [r2, #2]
 8001b08:	b292      	uxth	r2, r2
 8001b0a:	9803      	ldr	r0, [sp, #12]
 8001b0c:	4798      	blx	r3
 8001b0e:	9b00      	ldr	r3, [sp, #0]
 8001b10:	2200      	movs	r2, #0
 8001b12:	801a      	strh	r2, [r3, #0]
 8001b14:	2301      	movs	r3, #1
 8001b16:	4618      	mov	r0, r3
 8001b18:	b007      	add	sp, #28
 8001b1a:	f85d fb04 	ldr.w	pc, [sp], #4

08001b1e <usb_standard_get_interface>:
 8001b1e:	b086      	sub	sp, #24
 8001b20:	9003      	str	r0, [sp, #12]
 8001b22:	9102      	str	r1, [sp, #8]
 8001b24:	9201      	str	r2, [sp, #4]
 8001b26:	9300      	str	r3, [sp, #0]
 8001b28:	9b03      	ldr	r3, [sp, #12]
 8001b2a:	6859      	ldr	r1, [r3, #4]
 8001b2c:	9b03      	ldr	r3, [sp, #12]
 8001b2e:	7ddb      	ldrb	r3, [r3, #23]
 8001b30:	461a      	mov	r2, r3
 8001b32:	4613      	mov	r3, r2
 8001b34:	005b      	lsls	r3, r3, #1
 8001b36:	4413      	add	r3, r2
 8001b38:	009b      	lsls	r3, r3, #2
 8001b3a:	4413      	add	r3, r2
 8001b3c:	3b0d      	subs	r3, #13
 8001b3e:	440b      	add	r3, r1
 8001b40:	9305      	str	r3, [sp, #20]
 8001b42:	9b02      	ldr	r3, [sp, #8]
 8001b44:	889b      	ldrh	r3, [r3, #4]
 8001b46:	b29a      	uxth	r2, r3
 8001b48:	9b05      	ldr	r3, [sp, #20]
 8001b4a:	791b      	ldrb	r3, [r3, #4]
 8001b4c:	b29b      	uxth	r3, r3
 8001b4e:	429a      	cmp	r2, r3
 8001b50:	d301      	bcc.n	8001b56 <usb_standard_get_interface+0x38>
 8001b52:	2300      	movs	r3, #0
 8001b54:	e017      	b.n	8001b86 <usb_standard_get_interface+0x68>
 8001b56:	9b00      	ldr	r3, [sp, #0]
 8001b58:	2201      	movs	r2, #1
 8001b5a:	801a      	strh	r2, [r3, #0]
 8001b5c:	9b05      	ldr	r3, [sp, #20]
 8001b5e:	f8d3 2009 	ldr.w	r2, [r3, #9]
 8001b62:	9b02      	ldr	r3, [sp, #8]
 8001b64:	889b      	ldrh	r3, [r3, #4]
 8001b66:	b29b      	uxth	r3, r3
 8001b68:	011b      	lsls	r3, r3, #4
 8001b6a:	4413      	add	r3, r2
 8001b6c:	681b      	ldr	r3, [r3, #0]
 8001b6e:	9304      	str	r3, [sp, #16]
 8001b70:	9b04      	ldr	r3, [sp, #16]
 8001b72:	2b00      	cmp	r3, #0
 8001b74:	d002      	beq.n	8001b7c <usb_standard_get_interface+0x5e>
 8001b76:	9b04      	ldr	r3, [sp, #16]
 8001b78:	781a      	ldrb	r2, [r3, #0]
 8001b7a:	e000      	b.n	8001b7e <usb_standard_get_interface+0x60>
 8001b7c:	2200      	movs	r2, #0
 8001b7e:	9b01      	ldr	r3, [sp, #4]
 8001b80:	681b      	ldr	r3, [r3, #0]
 8001b82:	701a      	strb	r2, [r3, #0]
 8001b84:	2301      	movs	r3, #1
 8001b86:	4618      	mov	r0, r3
 8001b88:	b006      	add	sp, #24
 8001b8a:	4770      	bx	lr

08001b8c <usb_standard_device_get_status>:
 8001b8c:	b084      	sub	sp, #16
 8001b8e:	9003      	str	r0, [sp, #12]
 8001b90:	9102      	str	r1, [sp, #8]
 8001b92:	9201      	str	r2, [sp, #4]
 8001b94:	9300      	str	r3, [sp, #0]
 8001b96:	9b00      	ldr	r3, [sp, #0]
 8001b98:	881b      	ldrh	r3, [r3, #0]
 8001b9a:	2b02      	cmp	r3, #2
 8001b9c:	d902      	bls.n	8001ba4 <usb_standard_device_get_status+0x18>
 8001b9e:	9b00      	ldr	r3, [sp, #0]
 8001ba0:	2202      	movs	r2, #2
 8001ba2:	801a      	strh	r2, [r3, #0]
 8001ba4:	9b01      	ldr	r3, [sp, #4]
 8001ba6:	681b      	ldr	r3, [r3, #0]
 8001ba8:	2200      	movs	r2, #0
 8001baa:	701a      	strb	r2, [r3, #0]
 8001bac:	9b01      	ldr	r3, [sp, #4]
 8001bae:	681b      	ldr	r3, [r3, #0]
 8001bb0:	3301      	adds	r3, #1
 8001bb2:	2200      	movs	r2, #0
 8001bb4:	701a      	strb	r2, [r3, #0]
 8001bb6:	2301      	movs	r3, #1
 8001bb8:	4618      	mov	r0, r3
 8001bba:	b004      	add	sp, #16
 8001bbc:	4770      	bx	lr

08001bbe <usb_standard_interface_get_status>:
 8001bbe:	b084      	sub	sp, #16
 8001bc0:	9003      	str	r0, [sp, #12]
 8001bc2:	9102      	str	r1, [sp, #8]
 8001bc4:	9201      	str	r2, [sp, #4]
 8001bc6:	9300      	str	r3, [sp, #0]
 8001bc8:	9b00      	ldr	r3, [sp, #0]
 8001bca:	881b      	ldrh	r3, [r3, #0]
 8001bcc:	2b02      	cmp	r3, #2
 8001bce:	d902      	bls.n	8001bd6 <usb_standard_interface_get_status+0x18>
 8001bd0:	9b00      	ldr	r3, [sp, #0]
 8001bd2:	2202      	movs	r2, #2
 8001bd4:	801a      	strh	r2, [r3, #0]
 8001bd6:	9b01      	ldr	r3, [sp, #4]
 8001bd8:	681b      	ldr	r3, [r3, #0]
 8001bda:	2200      	movs	r2, #0
 8001bdc:	701a      	strb	r2, [r3, #0]
 8001bde:	9b01      	ldr	r3, [sp, #4]
 8001be0:	681b      	ldr	r3, [r3, #0]
 8001be2:	3301      	adds	r3, #1
 8001be4:	2200      	movs	r2, #0
 8001be6:	701a      	strb	r2, [r3, #0]
 8001be8:	2301      	movs	r3, #1
 8001bea:	4618      	mov	r0, r3
 8001bec:	b004      	add	sp, #16
 8001bee:	4770      	bx	lr

08001bf0 <usb_standard_endpoint_get_status>:
 8001bf0:	b500      	push	{lr}
 8001bf2:	b085      	sub	sp, #20
 8001bf4:	9003      	str	r0, [sp, #12]
 8001bf6:	9102      	str	r1, [sp, #8]
 8001bf8:	9201      	str	r2, [sp, #4]
 8001bfa:	9300      	str	r3, [sp, #0]
 8001bfc:	9b00      	ldr	r3, [sp, #0]
 8001bfe:	881b      	ldrh	r3, [r3, #0]
 8001c00:	2b02      	cmp	r3, #2
 8001c02:	d902      	bls.n	8001c0a <usb_standard_endpoint_get_status+0x1a>
 8001c04:	9b00      	ldr	r3, [sp, #0]
 8001c06:	2202      	movs	r2, #2
 8001c08:	801a      	strh	r2, [r3, #0]
 8001c0a:	9b02      	ldr	r3, [sp, #8]
 8001c0c:	889b      	ldrh	r3, [r3, #4]
 8001c0e:	b29b      	uxth	r3, r3
 8001c10:	b2db      	uxtb	r3, r3
 8001c12:	4619      	mov	r1, r3
 8001c14:	9803      	ldr	r0, [sp, #12]
 8001c16:	f7ff fb57 	bl	80012c8 <usbd_ep_stall_get>
 8001c1a:	4603      	mov	r3, r0
 8001c1c:	2b00      	cmp	r3, #0
 8001c1e:	bf14      	ite	ne
 8001c20:	2301      	movne	r3, #1
 8001c22:	2300      	moveq	r3, #0
 8001c24:	b2da      	uxtb	r2, r3
 8001c26:	9b01      	ldr	r3, [sp, #4]
 8001c28:	681b      	ldr	r3, [r3, #0]
 8001c2a:	701a      	strb	r2, [r3, #0]
 8001c2c:	9b01      	ldr	r3, [sp, #4]
 8001c2e:	681b      	ldr	r3, [r3, #0]
 8001c30:	3301      	adds	r3, #1
 8001c32:	2200      	movs	r2, #0
 8001c34:	701a      	strb	r2, [r3, #0]
 8001c36:	2301      	movs	r3, #1
 8001c38:	4618      	mov	r0, r3
 8001c3a:	b005      	add	sp, #20
 8001c3c:	f85d fb04 	ldr.w	pc, [sp], #4

08001c40 <usb_standard_endpoint_stall>:
 8001c40:	b500      	push	{lr}
 8001c42:	b085      	sub	sp, #20
 8001c44:	9003      	str	r0, [sp, #12]
 8001c46:	9102      	str	r1, [sp, #8]
 8001c48:	9201      	str	r2, [sp, #4]
 8001c4a:	9300      	str	r3, [sp, #0]
 8001c4c:	9b02      	ldr	r3, [sp, #8]
 8001c4e:	889b      	ldrh	r3, [r3, #4]
 8001c50:	b29b      	uxth	r3, r3
 8001c52:	b2db      	uxtb	r3, r3
 8001c54:	2201      	movs	r2, #1
 8001c56:	4619      	mov	r1, r3
 8001c58:	9803      	ldr	r0, [sp, #12]
 8001c5a:	f7ff fb1e 	bl	800129a <usbd_ep_stall_set>
 8001c5e:	2301      	movs	r3, #1
 8001c60:	4618      	mov	r0, r3
 8001c62:	b005      	add	sp, #20
 8001c64:	f85d fb04 	ldr.w	pc, [sp], #4

08001c68 <usb_standard_endpoint_unstall>:
 8001c68:	b500      	push	{lr}
 8001c6a:	b085      	sub	sp, #20
 8001c6c:	9003      	str	r0, [sp, #12]
 8001c6e:	9102      	str	r1, [sp, #8]
 8001c70:	9201      	str	r2, [sp, #4]
 8001c72:	9300      	str	r3, [sp, #0]
 8001c74:	9b02      	ldr	r3, [sp, #8]
 8001c76:	889b      	ldrh	r3, [r3, #4]
 8001c78:	b29b      	uxth	r3, r3
 8001c7a:	b2db      	uxtb	r3, r3
 8001c7c:	2200      	movs	r2, #0
 8001c7e:	4619      	mov	r1, r3
 8001c80:	9803      	ldr	r0, [sp, #12]
 8001c82:	f7ff fb0a 	bl	800129a <usbd_ep_stall_set>
 8001c86:	2301      	movs	r3, #1
 8001c88:	4618      	mov	r0, r3
 8001c8a:	b005      	add	sp, #20
 8001c8c:	f85d fb04 	ldr.w	pc, [sp], #4

08001c90 <_usbd_standard_request_device>:
 8001c90:	b510      	push	{r4, lr}
 8001c92:	b086      	sub	sp, #24
 8001c94:	9003      	str	r0, [sp, #12]
 8001c96:	9102      	str	r1, [sp, #8]
 8001c98:	9201      	str	r2, [sp, #4]
 8001c9a:	9300      	str	r3, [sp, #0]
 8001c9c:	2300      	movs	r3, #0
 8001c9e:	9305      	str	r3, [sp, #20]
 8001ca0:	9b02      	ldr	r3, [sp, #8]
 8001ca2:	785b      	ldrb	r3, [r3, #1]
 8001ca4:	2b09      	cmp	r3, #9
 8001ca6:	d82b      	bhi.n	8001d00 <_usbd_standard_request_device+0x70>
 8001ca8:	a201      	add	r2, pc, #4	; (adr r2, 8001cb0 <_usbd_standard_request_device+0x20>)
 8001caa:	f852 f023 	ldr.w	pc, [r2, r3, lsl #2]
 8001cae:	bf00      	nop
 8001cb0:	08001cfb 	.word	0x08001cfb
 8001cb4:	08001cd9 	.word	0x08001cd9
 8001cb8:	08001d01 	.word	0x08001d01
 8001cbc:	08001cd9 	.word	0x08001cd9
 8001cc0:	08001d01 	.word	0x08001d01
 8001cc4:	08001ce3 	.word	0x08001ce3
 8001cc8:	08001cf5 	.word	0x08001cf5
 8001ccc:	08001d01 	.word	0x08001d01
 8001cd0:	08001cef 	.word	0x08001cef
 8001cd4:	08001ce9 	.word	0x08001ce9
 8001cd8:	9b02      	ldr	r3, [sp, #8]
 8001cda:	885b      	ldrh	r3, [r3, #2]
 8001cdc:	9b02      	ldr	r3, [sp, #8]
 8001cde:	885b      	ldrh	r3, [r3, #2]
 8001ce0:	e00e      	b.n	8001d00 <_usbd_standard_request_device+0x70>
 8001ce2:	4b0f      	ldr	r3, [pc, #60]	; (8001d20 <_usbd_standard_request_device+0x90>)
 8001ce4:	9305      	str	r3, [sp, #20]
 8001ce6:	e00b      	b.n	8001d00 <_usbd_standard_request_device+0x70>
 8001ce8:	4b0e      	ldr	r3, [pc, #56]	; (8001d24 <_usbd_standard_request_device+0x94>)
 8001cea:	9305      	str	r3, [sp, #20]
 8001cec:	e008      	b.n	8001d00 <_usbd_standard_request_device+0x70>
 8001cee:	4b0e      	ldr	r3, [pc, #56]	; (8001d28 <_usbd_standard_request_device+0x98>)
 8001cf0:	9305      	str	r3, [sp, #20]
 8001cf2:	e005      	b.n	8001d00 <_usbd_standard_request_device+0x70>
 8001cf4:	4b0d      	ldr	r3, [pc, #52]	; (8001d2c <_usbd_standard_request_device+0x9c>)
 8001cf6:	9305      	str	r3, [sp, #20]
 8001cf8:	e002      	b.n	8001d00 <_usbd_standard_request_device+0x70>
 8001cfa:	4b0d      	ldr	r3, [pc, #52]	; (8001d30 <_usbd_standard_request_device+0xa0>)
 8001cfc:	9305      	str	r3, [sp, #20]
 8001cfe:	bf00      	nop
 8001d00:	9b05      	ldr	r3, [sp, #20]
 8001d02:	2b00      	cmp	r3, #0
 8001d04:	d101      	bne.n	8001d0a <_usbd_standard_request_device+0x7a>
 8001d06:	2300      	movs	r3, #0
 8001d08:	e006      	b.n	8001d18 <_usbd_standard_request_device+0x88>
 8001d0a:	9c05      	ldr	r4, [sp, #20]
 8001d0c:	9b00      	ldr	r3, [sp, #0]
 8001d0e:	9a01      	ldr	r2, [sp, #4]
 8001d10:	9902      	ldr	r1, [sp, #8]
 8001d12:	9803      	ldr	r0, [sp, #12]
 8001d14:	47a0      	blx	r4
 8001d16:	4603      	mov	r3, r0
 8001d18:	4618      	mov	r0, r3
 8001d1a:	b006      	add	sp, #24
 8001d1c:	bd10      	pop	{r4, pc}
 8001d1e:	bf00      	nop
 8001d20:	08001873 	.word	0x08001873
 8001d24:	080018cf 	.word	0x080018cf
 8001d28:	08001a13 	.word	0x08001a13
 8001d2c:	080016f9 	.word	0x080016f9
 8001d30:	08001b8d 	.word	0x08001b8d

08001d34 <_usbd_standard_request_interface>:
 8001d34:	b510      	push	{r4, lr}
 8001d36:	b086      	sub	sp, #24
 8001d38:	9003      	str	r0, [sp, #12]
 8001d3a:	9102      	str	r1, [sp, #8]
 8001d3c:	9201      	str	r2, [sp, #4]
 8001d3e:	9300      	str	r3, [sp, #0]
 8001d40:	2300      	movs	r3, #0
 8001d42:	9305      	str	r3, [sp, #20]
 8001d44:	9b02      	ldr	r3, [sp, #8]
 8001d46:	785b      	ldrb	r3, [r3, #1]
 8001d48:	2b0b      	cmp	r3, #11
 8001d4a:	d824      	bhi.n	8001d96 <_usbd_standard_request_interface+0x62>
 8001d4c:	a201      	add	r2, pc, #4	; (adr r2, 8001d54 <_usbd_standard_request_interface+0x20>)
 8001d4e:	f852 f023 	ldr.w	pc, [r2, r3, lsl #2]
 8001d52:	bf00      	nop
 8001d54:	08001d91 	.word	0x08001d91
 8001d58:	08001d97 	.word	0x08001d97
 8001d5c:	08001d97 	.word	0x08001d97
 8001d60:	08001d97 	.word	0x08001d97
 8001d64:	08001d97 	.word	0x08001d97
 8001d68:	08001d97 	.word	0x08001d97
 8001d6c:	08001d97 	.word	0x08001d97
 8001d70:	08001d97 	.word	0x08001d97
 8001d74:	08001d97 	.word	0x08001d97
 8001d78:	08001d97 	.word	0x08001d97
 8001d7c:	08001d85 	.word	0x08001d85
 8001d80:	08001d8b 	.word	0x08001d8b
 8001d84:	4b0b      	ldr	r3, [pc, #44]	; (8001db4 <_usbd_standard_request_interface+0x80>)
 8001d86:	9305      	str	r3, [sp, #20]
 8001d88:	e005      	b.n	8001d96 <_usbd_standard_request_interface+0x62>
 8001d8a:	4b0b      	ldr	r3, [pc, #44]	; (8001db8 <_usbd_standard_request_interface+0x84>)
 8001d8c:	9305      	str	r3, [sp, #20]
 8001d8e:	e002      	b.n	8001d96 <_usbd_standard_request_interface+0x62>
 8001d90:	4b0a      	ldr	r3, [pc, #40]	; (8001dbc <_usbd_standard_request_interface+0x88>)
 8001d92:	9305      	str	r3, [sp, #20]
 8001d94:	bf00      	nop
 8001d96:	9b05      	ldr	r3, [sp, #20]
 8001d98:	2b00      	cmp	r3, #0
 8001d9a:	d101      	bne.n	8001da0 <_usbd_standard_request_interface+0x6c>
 8001d9c:	2300      	movs	r3, #0
 8001d9e:	e006      	b.n	8001dae <_usbd_standard_request_interface+0x7a>
 8001da0:	9c05      	ldr	r4, [sp, #20]
 8001da2:	9b00      	ldr	r3, [sp, #0]
 8001da4:	9a01      	ldr	r2, [sp, #4]
 8001da6:	9902      	ldr	r1, [sp, #8]
 8001da8:	9803      	ldr	r0, [sp, #12]
 8001daa:	47a0      	blx	r4
 8001dac:	4603      	mov	r3, r0
 8001dae:	4618      	mov	r0, r3
 8001db0:	b006      	add	sp, #24
 8001db2:	bd10      	pop	{r4, pc}
 8001db4:	08001b1f 	.word	0x08001b1f
 8001db8:	08001a69 	.word	0x08001a69
 8001dbc:	08001bbf 	.word	0x08001bbf

08001dc0 <_usbd_standard_request_endpoint>:
 8001dc0:	b510      	push	{r4, lr}
 8001dc2:	b086      	sub	sp, #24
 8001dc4:	9003      	str	r0, [sp, #12]
 8001dc6:	9102      	str	r1, [sp, #8]
 8001dc8:	9201      	str	r2, [sp, #4]
 8001dca:	9300      	str	r3, [sp, #0]
 8001dcc:	2300      	movs	r3, #0
 8001dce:	9305      	str	r3, [sp, #20]
 8001dd0:	9b02      	ldr	r3, [sp, #8]
 8001dd2:	785b      	ldrb	r3, [r3, #1]
 8001dd4:	2b0c      	cmp	r3, #12
 8001dd6:	d833      	bhi.n	8001e40 <_usbd_standard_request_endpoint+0x80>
 8001dd8:	a201      	add	r2, pc, #4	; (adr r2, 8001de0 <_usbd_standard_request_endpoint+0x20>)
 8001dda:	f852 f023 	ldr.w	pc, [r2, r3, lsl #2]
 8001dde:	bf00      	nop
 8001de0:	08001e35 	.word	0x08001e35
 8001de4:	08001e15 	.word	0x08001e15
 8001de8:	08001e41 	.word	0x08001e41
 8001dec:	08001e25 	.word	0x08001e25
 8001df0:	08001e41 	.word	0x08001e41
 8001df4:	08001e41 	.word	0x08001e41
 8001df8:	08001e41 	.word	0x08001e41
 8001dfc:	08001e41 	.word	0x08001e41
 8001e00:	08001e41 	.word	0x08001e41
 8001e04:	08001e41 	.word	0x08001e41
 8001e08:	08001e41 	.word	0x08001e41
 8001e0c:	08001e41 	.word	0x08001e41
 8001e10:	08001e41 	.word	0x08001e41
 8001e14:	9b02      	ldr	r3, [sp, #8]
 8001e16:	885b      	ldrh	r3, [r3, #2]
 8001e18:	b29b      	uxth	r3, r3
 8001e1a:	2b00      	cmp	r3, #0
 8001e1c:	d10d      	bne.n	8001e3a <_usbd_standard_request_endpoint+0x7a>
 8001e1e:	4b10      	ldr	r3, [pc, #64]	; (8001e60 <_usbd_standard_request_endpoint+0xa0>)
 8001e20:	9305      	str	r3, [sp, #20]
 8001e22:	e00a      	b.n	8001e3a <_usbd_standard_request_endpoint+0x7a>
 8001e24:	9b02      	ldr	r3, [sp, #8]
 8001e26:	885b      	ldrh	r3, [r3, #2]
 8001e28:	b29b      	uxth	r3, r3
 8001e2a:	2b00      	cmp	r3, #0
 8001e2c:	d107      	bne.n	8001e3e <_usbd_standard_request_endpoint+0x7e>
 8001e2e:	4b0d      	ldr	r3, [pc, #52]	; (8001e64 <_usbd_standard_request_endpoint+0xa4>)
 8001e30:	9305      	str	r3, [sp, #20]
 8001e32:	e004      	b.n	8001e3e <_usbd_standard_request_endpoint+0x7e>
 8001e34:	4b0c      	ldr	r3, [pc, #48]	; (8001e68 <_usbd_standard_request_endpoint+0xa8>)
 8001e36:	9305      	str	r3, [sp, #20]
 8001e38:	e002      	b.n	8001e40 <_usbd_standard_request_endpoint+0x80>
 8001e3a:	bf00      	nop
 8001e3c:	e000      	b.n	8001e40 <_usbd_standard_request_endpoint+0x80>
 8001e3e:	bf00      	nop
 8001e40:	9b05      	ldr	r3, [sp, #20]
 8001e42:	2b00      	cmp	r3, #0
 8001e44:	d101      	bne.n	8001e4a <_usbd_standard_request_endpoint+0x8a>
 8001e46:	2300      	movs	r3, #0
 8001e48:	e006      	b.n	8001e58 <_usbd_standard_request_endpoint+0x98>
 8001e4a:	9c05      	ldr	r4, [sp, #20]
 8001e4c:	9b00      	ldr	r3, [sp, #0]
 8001e4e:	9a01      	ldr	r2, [sp, #4]
 8001e50:	9902      	ldr	r1, [sp, #8]
 8001e52:	9803      	ldr	r0, [sp, #12]
 8001e54:	47a0      	blx	r4
 8001e56:	4603      	mov	r3, r0
 8001e58:	4618      	mov	r0, r3
 8001e5a:	b006      	add	sp, #24
 8001e5c:	bd10      	pop	{r4, pc}
 8001e5e:	bf00      	nop
 8001e60:	08001c69 	.word	0x08001c69
 8001e64:	08001c41 	.word	0x08001c41
 8001e68:	08001bf1 	.word	0x08001bf1

08001e6c <_usbd_standard_request>:
 8001e6c:	b500      	push	{lr}
 8001e6e:	b085      	sub	sp, #20
 8001e70:	9003      	str	r0, [sp, #12]
 8001e72:	9102      	str	r1, [sp, #8]
 8001e74:	9201      	str	r2, [sp, #4]
 8001e76:	9300      	str	r3, [sp, #0]
 8001e78:	9b02      	ldr	r3, [sp, #8]
 8001e7a:	781b      	ldrb	r3, [r3, #0]
 8001e7c:	f003 0360 	and.w	r3, r3, #96	; 0x60
 8001e80:	2b00      	cmp	r3, #0
 8001e82:	d001      	beq.n	8001e88 <_usbd_standard_request+0x1c>
 8001e84:	2300      	movs	r3, #0
 8001e86:	e022      	b.n	8001ece <_usbd_standard_request+0x62>
 8001e88:	9b02      	ldr	r3, [sp, #8]
 8001e8a:	781b      	ldrb	r3, [r3, #0]
 8001e8c:	f003 031f 	and.w	r3, r3, #31
 8001e90:	2b01      	cmp	r3, #1
 8001e92:	d00b      	beq.n	8001eac <_usbd_standard_request+0x40>
 8001e94:	2b02      	cmp	r3, #2
 8001e96:	d011      	beq.n	8001ebc <_usbd_standard_request+0x50>
 8001e98:	2b00      	cmp	r3, #0
 8001e9a:	d117      	bne.n	8001ecc <_usbd_standard_request+0x60>
 8001e9c:	9b00      	ldr	r3, [sp, #0]
 8001e9e:	9a01      	ldr	r2, [sp, #4]
 8001ea0:	9902      	ldr	r1, [sp, #8]
 8001ea2:	9803      	ldr	r0, [sp, #12]
 8001ea4:	f7ff fef4 	bl	8001c90 <_usbd_standard_request_device>
 8001ea8:	4603      	mov	r3, r0
 8001eaa:	e010      	b.n	8001ece <_usbd_standard_request+0x62>
 8001eac:	9b00      	ldr	r3, [sp, #0]
 8001eae:	9a01      	ldr	r2, [sp, #4]
 8001eb0:	9902      	ldr	r1, [sp, #8]
 8001eb2:	9803      	ldr	r0, [sp, #12]
 8001eb4:	f7ff ff3e 	bl	8001d34 <_usbd_standard_request_interface>
 8001eb8:	4603      	mov	r3, r0
 8001eba:	e008      	b.n	8001ece <_usbd_standard_request+0x62>
 8001ebc:	9b00      	ldr	r3, [sp, #0]
 8001ebe:	9a01      	ldr	r2, [sp, #4]
 8001ec0:	9902      	ldr	r1, [sp, #8]
 8001ec2:	9803      	ldr	r0, [sp, #12]
 8001ec4:	f7ff ff7c 	bl	8001dc0 <_usbd_standard_request_endpoint>
 8001ec8:	4603      	mov	r3, r0
 8001eca:	e000      	b.n	8001ece <_usbd_standard_request+0x62>
 8001ecc:	2300      	movs	r3, #0
 8001ece:	4618      	mov	r0, r3
 8001ed0:	b005      	add	sp, #20
 8001ed2:	f85d fb04 	ldr.w	pc, [sp], #4

08001ed6 <stall_transaction>:
 8001ed6:	b500      	push	{lr}
 8001ed8:	b083      	sub	sp, #12
 8001eda:	9001      	str	r0, [sp, #4]
 8001edc:	2201      	movs	r2, #1
 8001ede:	2100      	movs	r1, #0
 8001ee0:	9801      	ldr	r0, [sp, #4]
 8001ee2:	f7ff f9da 	bl	800129a <usbd_ep_stall_set>
 8001ee6:	9b01      	ldr	r3, [sp, #4]
 8001ee8:	2200      	movs	r2, #0
 8001eea:	f883 202c 	strb.w	r2, [r3, #44]	; 0x2c
 8001eee:	bf00      	nop
 8001ef0:	b003      	add	sp, #12
 8001ef2:	f85d fb04 	ldr.w	pc, [sp], #4

08001ef6 <needs_zlp>:
 8001ef6:	b082      	sub	sp, #8
 8001ef8:	4603      	mov	r3, r0
 8001efa:	f8ad 3006 	strh.w	r3, [sp, #6]
 8001efe:	460b      	mov	r3, r1
 8001f00:	f8ad 3004 	strh.w	r3, [sp, #4]
 8001f04:	4613      	mov	r3, r2
 8001f06:	f88d 3003 	strb.w	r3, [sp, #3]
 8001f0a:	f8bd 2006 	ldrh.w	r2, [sp, #6]
 8001f0e:	f8bd 3004 	ldrh.w	r3, [sp, #4]
 8001f12:	429a      	cmp	r2, r3
 8001f14:	d210      	bcs.n	8001f38 <needs_zlp+0x42>
 8001f16:	f8bd 3006 	ldrh.w	r3, [sp, #6]
 8001f1a:	2b00      	cmp	r3, #0
 8001f1c:	d00c      	beq.n	8001f38 <needs_zlp+0x42>
 8001f1e:	f8bd 3006 	ldrh.w	r3, [sp, #6]
 8001f22:	f89d 2003 	ldrb.w	r2, [sp, #3]
 8001f26:	fb93 f1f2 	sdiv	r1, r3, r2
 8001f2a:	fb02 f201 	mul.w	r2, r2, r1
 8001f2e:	1a9b      	subs	r3, r3, r2
 8001f30:	2b00      	cmp	r3, #0
 8001f32:	d101      	bne.n	8001f38 <needs_zlp+0x42>
 8001f34:	2301      	movs	r3, #1
 8001f36:	e000      	b.n	8001f3a <needs_zlp+0x44>
 8001f38:	2300      	movs	r3, #0
 8001f3a:	4618      	mov	r0, r3
 8001f3c:	b002      	add	sp, #8
 8001f3e:	4770      	bx	lr

08001f40 <usbd_register_control_callback>:
 8001f40:	b086      	sub	sp, #24
 8001f42:	9003      	str	r0, [sp, #12]
 8001f44:	9301      	str	r3, [sp, #4]
 8001f46:	460b      	mov	r3, r1
 8001f48:	f88d 300b 	strb.w	r3, [sp, #11]
 8001f4c:	4613      	mov	r3, r2
 8001f4e:	f88d 300a 	strb.w	r3, [sp, #10]
 8001f52:	2300      	movs	r3, #0
 8001f54:	9305      	str	r3, [sp, #20]
 8001f56:	e022      	b.n	8001f9e <usbd_register_control_callback+0x5e>
 8001f58:	9b03      	ldr	r3, [sp, #12]
 8001f5a:	9a05      	ldr	r2, [sp, #20]
 8001f5c:	3209      	adds	r2, #9
 8001f5e:	f853 3032 	ldr.w	r3, [r3, r2, lsl #3]
 8001f62:	2b00      	cmp	r3, #0
 8001f64:	d003      	beq.n	8001f6e <usbd_register_control_callback+0x2e>
 8001f66:	9b05      	ldr	r3, [sp, #20]
 8001f68:	3301      	adds	r3, #1
 8001f6a:	9305      	str	r3, [sp, #20]
 8001f6c:	e017      	b.n	8001f9e <usbd_register_control_callback+0x5e>
 8001f6e:	9a03      	ldr	r2, [sp, #12]
 8001f70:	9b05      	ldr	r3, [sp, #20]
 8001f72:	3309      	adds	r3, #9
 8001f74:	00db      	lsls	r3, r3, #3
 8001f76:	4413      	add	r3, r2
 8001f78:	f89d 200b 	ldrb.w	r2, [sp, #11]
 8001f7c:	711a      	strb	r2, [r3, #4]
 8001f7e:	9a03      	ldr	r2, [sp, #12]
 8001f80:	9b05      	ldr	r3, [sp, #20]
 8001f82:	3309      	adds	r3, #9
 8001f84:	00db      	lsls	r3, r3, #3
 8001f86:	4413      	add	r3, r2
 8001f88:	f89d 200a 	ldrb.w	r2, [sp, #10]
 8001f8c:	715a      	strb	r2, [r3, #5]
 8001f8e:	9b03      	ldr	r3, [sp, #12]
 8001f90:	9a05      	ldr	r2, [sp, #20]
 8001f92:	3209      	adds	r2, #9
 8001f94:	9901      	ldr	r1, [sp, #4]
 8001f96:	f843 1032 	str.w	r1, [r3, r2, lsl #3]
 8001f9a:	2300      	movs	r3, #0
 8001f9c:	e004      	b.n	8001fa8 <usbd_register_control_callback+0x68>
 8001f9e:	9b05      	ldr	r3, [sp, #20]
 8001fa0:	2b03      	cmp	r3, #3
 8001fa2:	ddd9      	ble.n	8001f58 <usbd_register_control_callback+0x18>
 8001fa4:	f04f 33ff 	mov.w	r3, #4294967295
 8001fa8:	4618      	mov	r0, r3
 8001faa:	b006      	add	sp, #24
 8001fac:	4770      	bx	lr

08001fae <usb_control_send_chunk>:
 8001fae:	b500      	push	{lr}
 8001fb0:	b083      	sub	sp, #12
 8001fb2:	9001      	str	r0, [sp, #4]
 8001fb4:	9b01      	ldr	r3, [sp, #4]
 8001fb6:	681b      	ldr	r3, [r3, #0]
 8001fb8:	79db      	ldrb	r3, [r3, #7]
 8001fba:	b29a      	uxth	r2, r3
 8001fbc:	9b01      	ldr	r3, [sp, #4]
 8001fbe:	8f9b      	ldrh	r3, [r3, #60]	; 0x3c
 8001fc0:	429a      	cmp	r2, r3
 8001fc2:	d220      	bcs.n	8002006 <usb_control_send_chunk+0x58>
 8001fc4:	9b01      	ldr	r3, [sp, #4]
 8001fc6:	6b9a      	ldr	r2, [r3, #56]	; 0x38
 8001fc8:	9b01      	ldr	r3, [sp, #4]
 8001fca:	681b      	ldr	r3, [r3, #0]
 8001fcc:	79db      	ldrb	r3, [r3, #7]
 8001fce:	b29b      	uxth	r3, r3
 8001fd0:	2100      	movs	r1, #0
 8001fd2:	9801      	ldr	r0, [sp, #4]
 8001fd4:	f7ff f92d 	bl	8001232 <usbd_ep_write_packet>
 8001fd8:	9b01      	ldr	r3, [sp, #4]
 8001fda:	2202      	movs	r2, #2
 8001fdc:	f883 202c 	strb.w	r2, [r3, #44]	; 0x2c
 8001fe0:	9b01      	ldr	r3, [sp, #4]
 8001fe2:	6b9b      	ldr	r3, [r3, #56]	; 0x38
 8001fe4:	9a01      	ldr	r2, [sp, #4]
 8001fe6:	6812      	ldr	r2, [r2, #0]
 8001fe8:	79d2      	ldrb	r2, [r2, #7]
 8001fea:	441a      	add	r2, r3
 8001fec:	9b01      	ldr	r3, [sp, #4]
 8001fee:	639a      	str	r2, [r3, #56]	; 0x38
 8001ff0:	9b01      	ldr	r3, [sp, #4]
 8001ff2:	8f9a      	ldrh	r2, [r3, #60]	; 0x3c
 8001ff4:	9b01      	ldr	r3, [sp, #4]
 8001ff6:	681b      	ldr	r3, [r3, #0]
 8001ff8:	79db      	ldrb	r3, [r3, #7]
 8001ffa:	b29b      	uxth	r3, r3
 8001ffc:	1ad3      	subs	r3, r2, r3
 8001ffe:	b29a      	uxth	r2, r3
 8002000:	9b01      	ldr	r3, [sp, #4]
 8002002:	879a      	strh	r2, [r3, #60]	; 0x3c
 8002004:	e01c      	b.n	8002040 <usb_control_send_chunk+0x92>
 8002006:	9b01      	ldr	r3, [sp, #4]
 8002008:	6b9a      	ldr	r2, [r3, #56]	; 0x38
 800200a:	9b01      	ldr	r3, [sp, #4]
 800200c:	8f9b      	ldrh	r3, [r3, #60]	; 0x3c
 800200e:	2100      	movs	r1, #0
 8002010:	9801      	ldr	r0, [sp, #4]
 8002012:	f7ff f90e 	bl	8001232 <usbd_ep_write_packet>
 8002016:	9b01      	ldr	r3, [sp, #4]
 8002018:	f893 3044 	ldrb.w	r3, [r3, #68]	; 0x44
 800201c:	2b00      	cmp	r3, #0
 800201e:	d001      	beq.n	8002024 <usb_control_send_chunk+0x76>
 8002020:	2202      	movs	r2, #2
 8002022:	e000      	b.n	8002026 <usb_control_send_chunk+0x78>
 8002024:	2203      	movs	r2, #3
 8002026:	9b01      	ldr	r3, [sp, #4]
 8002028:	f883 202c 	strb.w	r2, [r3, #44]	; 0x2c
 800202c:	9b01      	ldr	r3, [sp, #4]
 800202e:	2200      	movs	r2, #0
 8002030:	f883 2044 	strb.w	r2, [r3, #68]	; 0x44
 8002034:	9b01      	ldr	r3, [sp, #4]
 8002036:	2200      	movs	r2, #0
 8002038:	879a      	strh	r2, [r3, #60]	; 0x3c
 800203a:	9b01      	ldr	r3, [sp, #4]
 800203c:	2200      	movs	r2, #0
 800203e:	639a      	str	r2, [r3, #56]	; 0x38
 8002040:	bf00      	nop
 8002042:	b003      	add	sp, #12
 8002044:	f85d fb04 	ldr.w	pc, [sp], #4

08002048 <usb_control_recv_chunk>:
 8002048:	b500      	push	{lr}
 800204a:	b085      	sub	sp, #20
 800204c:	9001      	str	r0, [sp, #4]
 800204e:	9b01      	ldr	r3, [sp, #4]
 8002050:	8edb      	ldrh	r3, [r3, #54]	; 0x36
 8002052:	461a      	mov	r2, r3
 8002054:	9b01      	ldr	r3, [sp, #4]
 8002056:	8f9b      	ldrh	r3, [r3, #60]	; 0x3c
 8002058:	1ad3      	subs	r3, r2, r3
 800205a:	9a01      	ldr	r2, [sp, #4]
 800205c:	6812      	ldr	r2, [r2, #0]
 800205e:	79d2      	ldrb	r2, [r2, #7]
 8002060:	4293      	cmp	r3, r2
 8002062:	bfa8      	it	ge
 8002064:	4613      	movge	r3, r2
 8002066:	f8ad 300e 	strh.w	r3, [sp, #14]
 800206a:	9b01      	ldr	r3, [sp, #4]
 800206c:	6b9b      	ldr	r3, [r3, #56]	; 0x38
 800206e:	9a01      	ldr	r2, [sp, #4]
 8002070:	8f92      	ldrh	r2, [r2, #60]	; 0x3c
 8002072:	441a      	add	r2, r3
 8002074:	f8bd 300e 	ldrh.w	r3, [sp, #14]
 8002078:	2100      	movs	r1, #0
 800207a:	9801      	ldr	r0, [sp, #4]
 800207c:	f7ff f8f3 	bl	8001266 <usbd_ep_read_packet>
 8002080:	4603      	mov	r3, r0
 8002082:	f8ad 300c 	strh.w	r3, [sp, #12]
 8002086:	f8bd 200c 	ldrh.w	r2, [sp, #12]
 800208a:	f8bd 300e 	ldrh.w	r3, [sp, #14]
 800208e:	429a      	cmp	r2, r3
 8002090:	d005      	beq.n	800209e <usb_control_recv_chunk+0x56>
 8002092:	9801      	ldr	r0, [sp, #4]
 8002094:	f7ff ff1f 	bl	8001ed6 <stall_transaction>
 8002098:	f04f 33ff 	mov.w	r3, #4294967295
 800209c:	e009      	b.n	80020b2 <usb_control_recv_chunk+0x6a>
 800209e:	9b01      	ldr	r3, [sp, #4]
 80020a0:	8f9a      	ldrh	r2, [r3, #60]	; 0x3c
 80020a2:	f8bd 300c 	ldrh.w	r3, [sp, #12]
 80020a6:	4413      	add	r3, r2
 80020a8:	b29a      	uxth	r2, r3
 80020aa:	9b01      	ldr	r3, [sp, #4]
 80020ac:	879a      	strh	r2, [r3, #60]	; 0x3c
 80020ae:	f8bd 300e 	ldrh.w	r3, [sp, #14]
 80020b2:	4618      	mov	r0, r3
 80020b4:	b005      	add	sp, #20
 80020b6:	f85d fb04 	ldr.w	pc, [sp], #4

080020ba <usb_control_request_dispatch>:
 80020ba:	b510      	push	{r4, lr}
 80020bc:	b088      	sub	sp, #32
 80020be:	9003      	str	r0, [sp, #12]
 80020c0:	9102      	str	r1, [sp, #8]
 80020c2:	2300      	movs	r3, #0
 80020c4:	9306      	str	r3, [sp, #24]
 80020c6:	9b03      	ldr	r3, [sp, #12]
 80020c8:	3348      	adds	r3, #72	; 0x48
 80020ca:	9305      	str	r3, [sp, #20]
 80020cc:	2300      	movs	r3, #0
 80020ce:	9307      	str	r3, [sp, #28]
 80020d0:	e036      	b.n	8002140 <usb_control_request_dispatch+0x86>
 80020d2:	9b07      	ldr	r3, [sp, #28]
 80020d4:	00db      	lsls	r3, r3, #3
 80020d6:	9a05      	ldr	r2, [sp, #20]
 80020d8:	4413      	add	r3, r2
 80020da:	681b      	ldr	r3, [r3, #0]
 80020dc:	2b00      	cmp	r3, #0
 80020de:	d033      	beq.n	8002148 <usb_control_request_dispatch+0x8e>
 80020e0:	9b02      	ldr	r3, [sp, #8]
 80020e2:	781a      	ldrb	r2, [r3, #0]
 80020e4:	9b07      	ldr	r3, [sp, #28]
 80020e6:	00db      	lsls	r3, r3, #3
 80020e8:	9905      	ldr	r1, [sp, #20]
 80020ea:	440b      	add	r3, r1
 80020ec:	795b      	ldrb	r3, [r3, #5]
 80020ee:	4013      	ands	r3, r2
 80020f0:	b2da      	uxtb	r2, r3
 80020f2:	9b07      	ldr	r3, [sp, #28]
 80020f4:	00db      	lsls	r3, r3, #3
 80020f6:	9905      	ldr	r1, [sp, #20]
 80020f8:	440b      	add	r3, r1
 80020fa:	791b      	ldrb	r3, [r3, #4]
 80020fc:	429a      	cmp	r2, r3
 80020fe:	d11c      	bne.n	800213a <usb_control_request_dispatch+0x80>
 8002100:	9b07      	ldr	r3, [sp, #28]
 8002102:	00db      	lsls	r3, r3, #3
 8002104:	9a05      	ldr	r2, [sp, #20]
 8002106:	4413      	add	r3, r2
 8002108:	681c      	ldr	r4, [r3, #0]
 800210a:	9b03      	ldr	r3, [sp, #12]
 800210c:	f103 0238 	add.w	r2, r3, #56	; 0x38
 8002110:	9b03      	ldr	r3, [sp, #12]
 8002112:	f103 013c 	add.w	r1, r3, #60	; 0x3c
 8002116:	9b03      	ldr	r3, [sp, #12]
 8002118:	3340      	adds	r3, #64	; 0x40
 800211a:	9300      	str	r3, [sp, #0]
 800211c:	460b      	mov	r3, r1
 800211e:	9902      	ldr	r1, [sp, #8]
 8002120:	9803      	ldr	r0, [sp, #12]
 8002122:	47a0      	blx	r4
 8002124:	4603      	mov	r3, r0
 8002126:	9306      	str	r3, [sp, #24]
 8002128:	9b06      	ldr	r3, [sp, #24]
 800212a:	2b01      	cmp	r3, #1
 800212c:	d002      	beq.n	8002134 <usb_control_request_dispatch+0x7a>
 800212e:	9b06      	ldr	r3, [sp, #24]
 8002130:	2b00      	cmp	r3, #0
 8002132:	d102      	bne.n	800213a <usb_control_request_dispatch+0x80>
 8002134:	9b06      	ldr	r3, [sp, #24]
 8002136:	b2db      	uxtb	r3, r3
 8002138:	e011      	b.n	800215e <usb_control_request_dispatch+0xa4>
 800213a:	9b07      	ldr	r3, [sp, #28]
 800213c:	3301      	adds	r3, #1
 800213e:	9307      	str	r3, [sp, #28]
 8002140:	9b07      	ldr	r3, [sp, #28]
 8002142:	2b03      	cmp	r3, #3
 8002144:	ddc5      	ble.n	80020d2 <usb_control_request_dispatch+0x18>
 8002146:	e000      	b.n	800214a <usb_control_request_dispatch+0x90>
 8002148:	bf00      	nop
 800214a:	9b03      	ldr	r3, [sp, #12]
 800214c:	f103 0238 	add.w	r2, r3, #56	; 0x38
 8002150:	9b03      	ldr	r3, [sp, #12]
 8002152:	333c      	adds	r3, #60	; 0x3c
 8002154:	9902      	ldr	r1, [sp, #8]
 8002156:	9803      	ldr	r0, [sp, #12]
 8002158:	f7ff fe88 	bl	8001e6c <_usbd_standard_request>
 800215c:	4603      	mov	r3, r0
 800215e:	4618      	mov	r0, r3
 8002160:	b008      	add	sp, #32
 8002162:	bd10      	pop	{r4, pc}

08002164 <usb_control_setup_read>:
 8002164:	b500      	push	{lr}
 8002166:	b083      	sub	sp, #12
 8002168:	9001      	str	r0, [sp, #4]
 800216a:	9100      	str	r1, [sp, #0]
 800216c:	9b01      	ldr	r3, [sp, #4]
 800216e:	691a      	ldr	r2, [r3, #16]
 8002170:	9b01      	ldr	r3, [sp, #4]
 8002172:	639a      	str	r2, [r3, #56]	; 0x38
 8002174:	9b00      	ldr	r3, [sp, #0]
 8002176:	88db      	ldrh	r3, [r3, #6]
 8002178:	b29a      	uxth	r2, r3
 800217a:	9b01      	ldr	r3, [sp, #4]
 800217c:	879a      	strh	r2, [r3, #60]	; 0x3c
 800217e:	9900      	ldr	r1, [sp, #0]
 8002180:	9801      	ldr	r0, [sp, #4]
 8002182:	f7ff ff9a 	bl	80020ba <usb_control_request_dispatch>
 8002186:	4603      	mov	r3, r0
 8002188:	2b00      	cmp	r3, #0
 800218a:	d023      	beq.n	80021d4 <usb_control_setup_read+0x70>
 800218c:	9b00      	ldr	r3, [sp, #0]
 800218e:	88db      	ldrh	r3, [r3, #6]
 8002190:	b29b      	uxth	r3, r3
 8002192:	2b00      	cmp	r3, #0
 8002194:	d013      	beq.n	80021be <usb_control_setup_read+0x5a>
 8002196:	9b01      	ldr	r3, [sp, #4]
 8002198:	8f98      	ldrh	r0, [r3, #60]	; 0x3c
 800219a:	9b00      	ldr	r3, [sp, #0]
 800219c:	88db      	ldrh	r3, [r3, #6]
 800219e:	b299      	uxth	r1, r3
 80021a0:	9b01      	ldr	r3, [sp, #4]
 80021a2:	681b      	ldr	r3, [r3, #0]
 80021a4:	79db      	ldrb	r3, [r3, #7]
 80021a6:	461a      	mov	r2, r3
 80021a8:	f7ff fea5 	bl	8001ef6 <needs_zlp>
 80021ac:	4603      	mov	r3, r0
 80021ae:	461a      	mov	r2, r3
 80021b0:	9b01      	ldr	r3, [sp, #4]
 80021b2:	f883 2044 	strb.w	r2, [r3, #68]	; 0x44
 80021b6:	9801      	ldr	r0, [sp, #4]
 80021b8:	f7ff fef9 	bl	8001fae <usb_control_send_chunk>
 80021bc:	e00d      	b.n	80021da <usb_control_setup_read+0x76>
 80021be:	2300      	movs	r3, #0
 80021c0:	2200      	movs	r2, #0
 80021c2:	2100      	movs	r1, #0
 80021c4:	9801      	ldr	r0, [sp, #4]
 80021c6:	f7ff f834 	bl	8001232 <usbd_ep_write_packet>
 80021ca:	9b01      	ldr	r3, [sp, #4]
 80021cc:	2204      	movs	r2, #4
 80021ce:	f883 202c 	strb.w	r2, [r3, #44]	; 0x2c
 80021d2:	e002      	b.n	80021da <usb_control_setup_read+0x76>
 80021d4:	9801      	ldr	r0, [sp, #4]
 80021d6:	f7ff fe7e 	bl	8001ed6 <stall_transaction>
 80021da:	bf00      	nop
 80021dc:	b003      	add	sp, #12
 80021de:	f85d fb04 	ldr.w	pc, [sp], #4

080021e2 <usb_control_setup_write>:
 80021e2:	b500      	push	{lr}
 80021e4:	b083      	sub	sp, #12
 80021e6:	9001      	str	r0, [sp, #4]
 80021e8:	9100      	str	r1, [sp, #0]
 80021ea:	9b00      	ldr	r3, [sp, #0]
 80021ec:	88db      	ldrh	r3, [r3, #6]
 80021ee:	b29a      	uxth	r2, r3
 80021f0:	9b01      	ldr	r3, [sp, #4]
 80021f2:	8a9b      	ldrh	r3, [r3, #20]
 80021f4:	429a      	cmp	r2, r3
 80021f6:	d903      	bls.n	8002200 <usb_control_setup_write+0x1e>
 80021f8:	9801      	ldr	r0, [sp, #4]
 80021fa:	f7ff fe6c 	bl	8001ed6 <stall_transaction>
 80021fe:	e01d      	b.n	800223c <usb_control_setup_write+0x5a>
 8002200:	9b01      	ldr	r3, [sp, #4]
 8002202:	691a      	ldr	r2, [r3, #16]
 8002204:	9b01      	ldr	r3, [sp, #4]
 8002206:	639a      	str	r2, [r3, #56]	; 0x38
 8002208:	9b01      	ldr	r3, [sp, #4]
 800220a:	2200      	movs	r2, #0
 800220c:	879a      	strh	r2, [r3, #60]	; 0x3c
 800220e:	9b00      	ldr	r3, [sp, #0]
 8002210:	88db      	ldrh	r3, [r3, #6]
 8002212:	b29a      	uxth	r2, r3
 8002214:	9b01      	ldr	r3, [sp, #4]
 8002216:	681b      	ldr	r3, [r3, #0]
 8002218:	79db      	ldrb	r3, [r3, #7]
 800221a:	b29b      	uxth	r3, r3
 800221c:	429a      	cmp	r2, r3
 800221e:	d904      	bls.n	800222a <usb_control_setup_write+0x48>
 8002220:	9b01      	ldr	r3, [sp, #4]
 8002222:	2205      	movs	r2, #5
 8002224:	f883 202c 	strb.w	r2, [r3, #44]	; 0x2c
 8002228:	e003      	b.n	8002232 <usb_control_setup_write+0x50>
 800222a:	9b01      	ldr	r3, [sp, #4]
 800222c:	2206      	movs	r2, #6
 800222e:	f883 202c 	strb.w	r2, [r3, #44]	; 0x2c
 8002232:	2200      	movs	r2, #0
 8002234:	2100      	movs	r1, #0
 8002236:	9801      	ldr	r0, [sp, #4]
 8002238:	f7ff f85a 	bl	80012f0 <usbd_ep_nak_set>
 800223c:	b003      	add	sp, #12
 800223e:	f85d fb04 	ldr.w	pc, [sp], #4

08002242 <_usbd_control_setup>:
 8002242:	b500      	push	{lr}
 8002244:	b085      	sub	sp, #20
 8002246:	9001      	str	r0, [sp, #4]
 8002248:	460b      	mov	r3, r1
 800224a:	f88d 3003 	strb.w	r3, [sp, #3]
 800224e:	9b01      	ldr	r3, [sp, #4]
 8002250:	3330      	adds	r3, #48	; 0x30
 8002252:	9303      	str	r3, [sp, #12]
 8002254:	9b01      	ldr	r3, [sp, #4]
 8002256:	2200      	movs	r2, #0
 8002258:	641a      	str	r2, [r3, #64]	; 0x40
 800225a:	2201      	movs	r2, #1
 800225c:	2100      	movs	r1, #0
 800225e:	9801      	ldr	r0, [sp, #4]
 8002260:	f7ff f846 	bl	80012f0 <usbd_ep_nak_set>
 8002264:	9b03      	ldr	r3, [sp, #12]
 8002266:	88db      	ldrh	r3, [r3, #6]
 8002268:	b29b      	uxth	r3, r3
 800226a:	2b00      	cmp	r3, #0
 800226c:	d104      	bne.n	8002278 <_usbd_control_setup+0x36>
 800226e:	9903      	ldr	r1, [sp, #12]
 8002270:	9801      	ldr	r0, [sp, #4]
 8002272:	f7ff ff77 	bl	8002164 <usb_control_setup_read>
 8002276:	e00d      	b.n	8002294 <_usbd_control_setup+0x52>
 8002278:	9b03      	ldr	r3, [sp, #12]
 800227a:	781b      	ldrb	r3, [r3, #0]
 800227c:	b25b      	sxtb	r3, r3
 800227e:	2b00      	cmp	r3, #0
 8002280:	da04      	bge.n	800228c <_usbd_control_setup+0x4a>
 8002282:	9903      	ldr	r1, [sp, #12]
 8002284:	9801      	ldr	r0, [sp, #4]
 8002286:	f7ff ff6d 	bl	8002164 <usb_control_setup_read>
 800228a:	e003      	b.n	8002294 <_usbd_control_setup+0x52>
 800228c:	9903      	ldr	r1, [sp, #12]
 800228e:	9801      	ldr	r0, [sp, #4]
 8002290:	f7ff ffa7 	bl	80021e2 <usb_control_setup_write>
 8002294:	bf00      	nop
 8002296:	b005      	add	sp, #20
 8002298:	f85d fb04 	ldr.w	pc, [sp], #4

0800229c <_usbd_control_out>:
 800229c:	b500      	push	{lr}
 800229e:	b083      	sub	sp, #12
 80022a0:	9001      	str	r0, [sp, #4]
 80022a2:	460b      	mov	r3, r1
 80022a4:	f88d 3003 	strb.w	r3, [sp, #3]
 80022a8:	9b01      	ldr	r3, [sp, #4]
 80022aa:	f893 302c 	ldrb.w	r3, [r3, #44]	; 0x2c
 80022ae:	2b06      	cmp	r3, #6
 80022b0:	d019      	beq.n	80022e6 <_usbd_control_out+0x4a>
 80022b2:	2b07      	cmp	r3, #7
 80022b4:	d035      	beq.n	8002322 <_usbd_control_out+0x86>
 80022b6:	2b05      	cmp	r3, #5
 80022b8:	d14c      	bne.n	8002354 <_usbd_control_out+0xb8>
 80022ba:	9801      	ldr	r0, [sp, #4]
 80022bc:	f7ff fec4 	bl	8002048 <usb_control_recv_chunk>
 80022c0:	4603      	mov	r3, r0
 80022c2:	2b00      	cmp	r3, #0
 80022c4:	db4a      	blt.n	800235c <_usbd_control_out+0xc0>
 80022c6:	9b01      	ldr	r3, [sp, #4]
 80022c8:	8edb      	ldrh	r3, [r3, #54]	; 0x36
 80022ca:	461a      	mov	r2, r3
 80022cc:	9b01      	ldr	r3, [sp, #4]
 80022ce:	8f9b      	ldrh	r3, [r3, #60]	; 0x3c
 80022d0:	1ad3      	subs	r3, r2, r3
 80022d2:	9a01      	ldr	r2, [sp, #4]
 80022d4:	6812      	ldr	r2, [r2, #0]
 80022d6:	79d2      	ldrb	r2, [r2, #7]
 80022d8:	4293      	cmp	r3, r2
 80022da:	dc41      	bgt.n	8002360 <_usbd_control_out+0xc4>
 80022dc:	9b01      	ldr	r3, [sp, #4]
 80022de:	2206      	movs	r2, #6
 80022e0:	f883 202c 	strb.w	r2, [r3, #44]	; 0x2c
 80022e4:	e03c      	b.n	8002360 <_usbd_control_out+0xc4>
 80022e6:	9801      	ldr	r0, [sp, #4]
 80022e8:	f7ff feae 	bl	8002048 <usb_control_recv_chunk>
 80022ec:	4603      	mov	r3, r0
 80022ee:	2b00      	cmp	r3, #0
 80022f0:	db38      	blt.n	8002364 <_usbd_control_out+0xc8>
 80022f2:	9b01      	ldr	r3, [sp, #4]
 80022f4:	3330      	adds	r3, #48	; 0x30
 80022f6:	4619      	mov	r1, r3
 80022f8:	9801      	ldr	r0, [sp, #4]
 80022fa:	f7ff fede 	bl	80020ba <usb_control_request_dispatch>
 80022fe:	4603      	mov	r3, r0
 8002300:	2b00      	cmp	r3, #0
 8002302:	d00a      	beq.n	800231a <_usbd_control_out+0x7e>
 8002304:	2300      	movs	r3, #0
 8002306:	2200      	movs	r2, #0
 8002308:	2100      	movs	r1, #0
 800230a:	9801      	ldr	r0, [sp, #4]
 800230c:	f7fe ff91 	bl	8001232 <usbd_ep_write_packet>
 8002310:	9b01      	ldr	r3, [sp, #4]
 8002312:	2204      	movs	r2, #4
 8002314:	f883 202c 	strb.w	r2, [r3, #44]	; 0x2c
 8002318:	e025      	b.n	8002366 <_usbd_control_out+0xca>
 800231a:	9801      	ldr	r0, [sp, #4]
 800231c:	f7ff fddb 	bl	8001ed6 <stall_transaction>
 8002320:	e021      	b.n	8002366 <_usbd_control_out+0xca>
 8002322:	2300      	movs	r3, #0
 8002324:	2200      	movs	r2, #0
 8002326:	2100      	movs	r1, #0
 8002328:	9801      	ldr	r0, [sp, #4]
 800232a:	f7fe ff9c 	bl	8001266 <usbd_ep_read_packet>
 800232e:	9b01      	ldr	r3, [sp, #4]
 8002330:	2200      	movs	r2, #0
 8002332:	f883 202c 	strb.w	r2, [r3, #44]	; 0x2c
 8002336:	9b01      	ldr	r3, [sp, #4]
 8002338:	6c1b      	ldr	r3, [r3, #64]	; 0x40
 800233a:	2b00      	cmp	r3, #0
 800233c:	d006      	beq.n	800234c <_usbd_control_out+0xb0>
 800233e:	9b01      	ldr	r3, [sp, #4]
 8002340:	6c1b      	ldr	r3, [r3, #64]	; 0x40
 8002342:	9a01      	ldr	r2, [sp, #4]
 8002344:	3230      	adds	r2, #48	; 0x30
 8002346:	4611      	mov	r1, r2
 8002348:	9801      	ldr	r0, [sp, #4]
 800234a:	4798      	blx	r3
 800234c:	9b01      	ldr	r3, [sp, #4]
 800234e:	2200      	movs	r2, #0
 8002350:	641a      	str	r2, [r3, #64]	; 0x40
 8002352:	e008      	b.n	8002366 <_usbd_control_out+0xca>
 8002354:	9801      	ldr	r0, [sp, #4]
 8002356:	f7ff fdbe 	bl	8001ed6 <stall_transaction>
 800235a:	e004      	b.n	8002366 <_usbd_control_out+0xca>
 800235c:	bf00      	nop
 800235e:	e002      	b.n	8002366 <_usbd_control_out+0xca>
 8002360:	bf00      	nop
 8002362:	e000      	b.n	8002366 <_usbd_control_out+0xca>
 8002364:	bf00      	nop
 8002366:	bf00      	nop
 8002368:	b003      	add	sp, #12
 800236a:	f85d fb04 	ldr.w	pc, [sp], #4

0800236e <_usbd_control_in>:
 800236e:	b500      	push	{lr}
 8002370:	b085      	sub	sp, #20
 8002372:	9001      	str	r0, [sp, #4]
 8002374:	460b      	mov	r3, r1
 8002376:	f88d 3003 	strb.w	r3, [sp, #3]
 800237a:	9b01      	ldr	r3, [sp, #4]
 800237c:	3330      	adds	r3, #48	; 0x30
 800237e:	9303      	str	r3, [sp, #12]
 8002380:	9b01      	ldr	r3, [sp, #4]
 8002382:	f893 302c 	ldrb.w	r3, [r3, #44]	; 0x2c
 8002386:	2b03      	cmp	r3, #3
 8002388:	d007      	beq.n	800239a <_usbd_control_in+0x2c>
 800238a:	2b04      	cmp	r3, #4
 800238c:	d00f      	beq.n	80023ae <_usbd_control_in+0x40>
 800238e:	2b02      	cmp	r3, #2
 8002390:	d130      	bne.n	80023f4 <_usbd_control_in+0x86>
 8002392:	9801      	ldr	r0, [sp, #4]
 8002394:	f7ff fe0b 	bl	8001fae <usb_control_send_chunk>
 8002398:	e02f      	b.n	80023fa <_usbd_control_in+0x8c>
 800239a:	9b01      	ldr	r3, [sp, #4]
 800239c:	2207      	movs	r2, #7
 800239e:	f883 202c 	strb.w	r2, [r3, #44]	; 0x2c
 80023a2:	2200      	movs	r2, #0
 80023a4:	2100      	movs	r1, #0
 80023a6:	9801      	ldr	r0, [sp, #4]
 80023a8:	f7fe ffa2 	bl	80012f0 <usbd_ep_nak_set>
 80023ac:	e025      	b.n	80023fa <_usbd_control_in+0x8c>
 80023ae:	9b01      	ldr	r3, [sp, #4]
 80023b0:	6c1b      	ldr	r3, [r3, #64]	; 0x40
 80023b2:	2b00      	cmp	r3, #0
 80023b4:	d006      	beq.n	80023c4 <_usbd_control_in+0x56>
 80023b6:	9b01      	ldr	r3, [sp, #4]
 80023b8:	6c1b      	ldr	r3, [r3, #64]	; 0x40
 80023ba:	9a01      	ldr	r2, [sp, #4]
 80023bc:	3230      	adds	r2, #48	; 0x30
 80023be:	4611      	mov	r1, r2
 80023c0:	9801      	ldr	r0, [sp, #4]
 80023c2:	4798      	blx	r3
 80023c4:	9b03      	ldr	r3, [sp, #12]
 80023c6:	781b      	ldrb	r3, [r3, #0]
 80023c8:	2b00      	cmp	r3, #0
 80023ca:	d10e      	bne.n	80023ea <_usbd_control_in+0x7c>
 80023cc:	9b03      	ldr	r3, [sp, #12]
 80023ce:	785b      	ldrb	r3, [r3, #1]
 80023d0:	2b05      	cmp	r3, #5
 80023d2:	d10a      	bne.n	80023ea <_usbd_control_in+0x7c>
 80023d4:	9b01      	ldr	r3, [sp, #4]
 80023d6:	f8d3 30dc 	ldr.w	r3, [r3, #220]	; 0xdc
 80023da:	685b      	ldr	r3, [r3, #4]
 80023dc:	9a03      	ldr	r2, [sp, #12]
 80023de:	8852      	ldrh	r2, [r2, #2]
 80023e0:	b292      	uxth	r2, r2
 80023e2:	b2d2      	uxtb	r2, r2
 80023e4:	4611      	mov	r1, r2
 80023e6:	9801      	ldr	r0, [sp, #4]
 80023e8:	4798      	blx	r3
 80023ea:	9b01      	ldr	r3, [sp, #4]
 80023ec:	2200      	movs	r2, #0
 80023ee:	f883 202c 	strb.w	r2, [r3, #44]	; 0x2c
 80023f2:	e002      	b.n	80023fa <_usbd_control_in+0x8c>
 80023f4:	9801      	ldr	r0, [sp, #4]
 80023f6:	f7ff fd6e 	bl	8001ed6 <stall_transaction>
 80023fa:	bf00      	nop
 80023fc:	b005      	add	sp, #20
 80023fe:	f85d fb04 	ldr.w	pc, [sp], #4

08002402 <dwc_set_address>:
 8002402:	b082      	sub	sp, #8
 8002404:	9001      	str	r0, [sp, #4]
 8002406:	460b      	mov	r3, r1
 8002408:	f88d 3003 	strb.w	r3, [sp, #3]
 800240c:	9b01      	ldr	r3, [sp, #4]
 800240e:	f8d3 30dc 	ldr.w	r3, [r3, #220]	; 0xdc
 8002412:	6adb      	ldr	r3, [r3, #44]	; 0x2c
 8002414:	f503 6300 	add.w	r3, r3, #2048	; 0x800
 8002418:	681b      	ldr	r3, [r3, #0]
 800241a:	f423 63fe 	bic.w	r3, r3, #2032	; 0x7f0
 800241e:	f89d 2003 	ldrb.w	r2, [sp, #3]
 8002422:	0112      	lsls	r2, r2, #4
 8002424:	4611      	mov	r1, r2
 8002426:	9a01      	ldr	r2, [sp, #4]
 8002428:	f8d2 20dc 	ldr.w	r2, [r2, #220]	; 0xdc
 800242c:	6ad2      	ldr	r2, [r2, #44]	; 0x2c
 800242e:	f502 6200 	add.w	r2, r2, #2048	; 0x800
 8002432:	430b      	orrs	r3, r1
 8002434:	6013      	str	r3, [r2, #0]
 8002436:	bf00      	nop
 8002438:	b002      	add	sp, #8
 800243a:	4770      	bx	lr

0800243c <dwc_ep_setup>:
 800243c:	b084      	sub	sp, #16
 800243e:	9001      	str	r0, [sp, #4]
 8002440:	4608      	mov	r0, r1
 8002442:	4611      	mov	r1, r2
 8002444:	461a      	mov	r2, r3
 8002446:	4603      	mov	r3, r0
 8002448:	f88d 3003 	strb.w	r3, [sp, #3]
 800244c:	460b      	mov	r3, r1
 800244e:	f88d 3002 	strb.w	r3, [sp, #2]
 8002452:	4613      	mov	r3, r2
 8002454:	f8ad 3000 	strh.w	r3, [sp]
 8002458:	f89d 3003 	ldrb.w	r3, [sp, #3]
 800245c:	f023 037f 	bic.w	r3, r3, #127	; 0x7f
 8002460:	f88d 300f 	strb.w	r3, [sp, #15]
 8002464:	f89d 3003 	ldrb.w	r3, [sp, #3]
 8002468:	f003 037f 	and.w	r3, r3, #127	; 0x7f
 800246c:	f88d 3003 	strb.w	r3, [sp, #3]
 8002470:	f89d 3003 	ldrb.w	r3, [sp, #3]
 8002474:	2b00      	cmp	r3, #0
 8002476:	f040 8098 	bne.w	80025aa <dwc_ep_setup+0x16e>
 800247a:	f8bd 3000 	ldrh.w	r3, [sp]
 800247e:	2b3f      	cmp	r3, #63	; 0x3f
 8002480:	d909      	bls.n	8002496 <dwc_ep_setup+0x5a>
 8002482:	9b01      	ldr	r3, [sp, #4]
 8002484:	f8d3 30dc 	ldr.w	r3, [r3, #220]	; 0xdc
 8002488:	6adb      	ldr	r3, [r3, #44]	; 0x2c
 800248a:	f503 6310 	add.w	r3, r3, #2304	; 0x900
 800248e:	461a      	mov	r2, r3
 8002490:	2300      	movs	r3, #0
 8002492:	6013      	str	r3, [r2, #0]
 8002494:	e024      	b.n	80024e0 <dwc_ep_setup+0xa4>
 8002496:	f8bd 3000 	ldrh.w	r3, [sp]
 800249a:	2b1f      	cmp	r3, #31
 800249c:	d909      	bls.n	80024b2 <dwc_ep_setup+0x76>
 800249e:	9b01      	ldr	r3, [sp, #4]
 80024a0:	f8d3 30dc 	ldr.w	r3, [r3, #220]	; 0xdc
 80024a4:	6adb      	ldr	r3, [r3, #44]	; 0x2c
 80024a6:	f503 6310 	add.w	r3, r3, #2304	; 0x900
 80024aa:	461a      	mov	r2, r3
 80024ac:	2301      	movs	r3, #1
 80024ae:	6013      	str	r3, [r2, #0]
 80024b0:	e016      	b.n	80024e0 <dwc_ep_setup+0xa4>
 80024b2:	f8bd 3000 	ldrh.w	r3, [sp]
 80024b6:	2b0f      	cmp	r3, #15
 80024b8:	d909      	bls.n	80024ce <dwc_ep_setup+0x92>
 80024ba:	9b01      	ldr	r3, [sp, #4]
 80024bc:	f8d3 30dc 	ldr.w	r3, [r3, #220]	; 0xdc
 80024c0:	6adb      	ldr	r3, [r3, #44]	; 0x2c
 80024c2:	f503 6310 	add.w	r3, r3, #2304	; 0x900
 80024c6:	461a      	mov	r2, r3
 80024c8:	2302      	movs	r3, #2
 80024ca:	6013      	str	r3, [r2, #0]
 80024cc:	e008      	b.n	80024e0 <dwc_ep_setup+0xa4>
 80024ce:	9b01      	ldr	r3, [sp, #4]
 80024d0:	f8d3 30dc 	ldr.w	r3, [r3, #220]	; 0xdc
 80024d4:	6adb      	ldr	r3, [r3, #44]	; 0x2c
 80024d6:	f503 6310 	add.w	r3, r3, #2304	; 0x900
 80024da:	461a      	mov	r2, r3
 80024dc:	2303      	movs	r3, #3
 80024de:	6013      	str	r3, [r2, #0]
 80024e0:	f8bd 3000 	ldrh.w	r3, [sp]
 80024e4:	9a01      	ldr	r2, [sp, #4]
 80024e6:	f8d2 20dc 	ldr.w	r2, [r2, #220]	; 0xdc
 80024ea:	6ad2      	ldr	r2, [r2, #44]	; 0x2c
 80024ec:	f502 6211 	add.w	r2, r2, #2320	; 0x910
 80024f0:	f003 037f 	and.w	r3, r3, #127	; 0x7f
 80024f4:	6013      	str	r3, [r2, #0]
 80024f6:	9b01      	ldr	r3, [sp, #4]
 80024f8:	f8d3 30dc 	ldr.w	r3, [r3, #220]	; 0xdc
 80024fc:	6adb      	ldr	r3, [r3, #44]	; 0x2c
 80024fe:	f503 6310 	add.w	r3, r3, #2304	; 0x900
 8002502:	681b      	ldr	r3, [r3, #0]
 8002504:	9a01      	ldr	r2, [sp, #4]
 8002506:	f8d2 20dc 	ldr.w	r2, [r2, #220]	; 0xdc
 800250a:	6ad2      	ldr	r2, [r2, #44]	; 0x2c
 800250c:	f502 6210 	add.w	r2, r2, #2304	; 0x900
 8002510:	f043 4308 	orr.w	r3, r3, #2281701376	; 0x88000000
 8002514:	6013      	str	r3, [r2, #0]
 8002516:	f8bd 3000 	ldrh.w	r3, [sp]
 800251a:	f003 037f 	and.w	r3, r3, #127	; 0x7f
 800251e:	f043 5300 	orr.w	r3, r3, #536870912	; 0x20000000
 8002522:	f443 2300 	orr.w	r3, r3, #524288	; 0x80000
 8002526:	461a      	mov	r2, r3
 8002528:	9b01      	ldr	r3, [sp, #4]
 800252a:	f8c3 20e8 	str.w	r2, [r3, #232]	; 0xe8
 800252e:	9b01      	ldr	r3, [sp, #4]
 8002530:	f8d3 30dc 	ldr.w	r3, [r3, #220]	; 0xdc
 8002534:	6adb      	ldr	r3, [r3, #44]	; 0x2c
 8002536:	f503 6331 	add.w	r3, r3, #2832	; 0xb10
 800253a:	461a      	mov	r2, r3
 800253c:	9b01      	ldr	r3, [sp, #4]
 800253e:	f8d3 30e8 	ldr.w	r3, [r3, #232]	; 0xe8
 8002542:	6013      	str	r3, [r2, #0]
 8002544:	9b01      	ldr	r3, [sp, #4]
 8002546:	f8d3 30dc 	ldr.w	r3, [r3, #220]	; 0xdc
 800254a:	6adb      	ldr	r3, [r3, #44]	; 0x2c
 800254c:	f503 6330 	add.w	r3, r3, #2816	; 0xb00
 8002550:	681b      	ldr	r3, [r3, #0]
 8002552:	9a01      	ldr	r2, [sp, #4]
 8002554:	f8d2 20dc 	ldr.w	r2, [r2, #220]	; 0xdc
 8002558:	6ad2      	ldr	r2, [r2, #44]	; 0x2c
 800255a:	f502 6230 	add.w	r2, r2, #2816	; 0xb00
 800255e:	f043 4308 	orr.w	r3, r3, #2281701376	; 0x88000000
 8002562:	6013      	str	r3, [r2, #0]
 8002564:	f8bd 3000 	ldrh.w	r3, [sp]
 8002568:	089b      	lsrs	r3, r3, #2
 800256a:	b29b      	uxth	r3, r3
 800256c:	041b      	lsls	r3, r3, #16
 800256e:	9a01      	ldr	r2, [sp, #4]
 8002570:	f8d2 20dc 	ldr.w	r2, [r2, #220]	; 0xdc
 8002574:	8e52      	ldrh	r2, [r2, #50]	; 0x32
 8002576:	431a      	orrs	r2, r3
 8002578:	9b01      	ldr	r3, [sp, #4]
 800257a:	f8d3 30dc 	ldr.w	r3, [r3, #220]	; 0xdc
 800257e:	6adb      	ldr	r3, [r3, #44]	; 0x2c
 8002580:	3328      	adds	r3, #40	; 0x28
 8002582:	601a      	str	r2, [r3, #0]
 8002584:	9b01      	ldr	r3, [sp, #4]
 8002586:	f8b3 20e0 	ldrh.w	r2, [r3, #224]	; 0xe0
 800258a:	f8bd 3000 	ldrh.w	r3, [sp]
 800258e:	089b      	lsrs	r3, r3, #2
 8002590:	b29b      	uxth	r3, r3
 8002592:	4413      	add	r3, r2
 8002594:	b29a      	uxth	r2, r3
 8002596:	9b01      	ldr	r3, [sp, #4]
 8002598:	f8a3 20e0 	strh.w	r2, [r3, #224]	; 0xe0
 800259c:	9b01      	ldr	r3, [sp, #4]
 800259e:	f8b3 20e0 	ldrh.w	r2, [r3, #224]	; 0xe0
 80025a2:	9b01      	ldr	r3, [sp, #4]
 80025a4:	f8a3 20e2 	strh.w	r2, [r3, #226]	; 0xe2
 80025a8:	e0bf      	b.n	800272a <dwc_ep_setup+0x2ee>
 80025aa:	f89d 300f 	ldrb.w	r3, [sp, #15]
 80025ae:	2b00      	cmp	r3, #0
 80025b0:	d065      	beq.n	800267e <dwc_ep_setup+0x242>
 80025b2:	f8bd 3000 	ldrh.w	r3, [sp]
 80025b6:	089b      	lsrs	r3, r3, #2
 80025b8:	b29b      	uxth	r3, r3
 80025ba:	041b      	lsls	r3, r3, #16
 80025bc:	9a01      	ldr	r2, [sp, #4]
 80025be:	f8b2 20e0 	ldrh.w	r2, [r2, #224]	; 0xe0
 80025c2:	431a      	orrs	r2, r3
 80025c4:	f89d 3003 	ldrb.w	r3, [sp, #3]
 80025c8:	3340      	adds	r3, #64	; 0x40
 80025ca:	009b      	lsls	r3, r3, #2
 80025cc:	4619      	mov	r1, r3
 80025ce:	9b01      	ldr	r3, [sp, #4]
 80025d0:	f8d3 30dc 	ldr.w	r3, [r3, #220]	; 0xdc
 80025d4:	6adb      	ldr	r3, [r3, #44]	; 0x2c
 80025d6:	440b      	add	r3, r1
 80025d8:	601a      	str	r2, [r3, #0]
 80025da:	9b01      	ldr	r3, [sp, #4]
 80025dc:	f8b3 20e0 	ldrh.w	r2, [r3, #224]	; 0xe0
 80025e0:	f8bd 3000 	ldrh.w	r3, [sp]
 80025e4:	089b      	lsrs	r3, r3, #2
 80025e6:	b29b      	uxth	r3, r3
 80025e8:	4413      	add	r3, r2
 80025ea:	b29a      	uxth	r2, r3
 80025ec:	9b01      	ldr	r3, [sp, #4]
 80025ee:	f8a3 20e0 	strh.w	r2, [r3, #224]	; 0xe0
 80025f2:	f8bd 3000 	ldrh.w	r3, [sp]
 80025f6:	f89d 2003 	ldrb.w	r2, [sp, #3]
 80025fa:	0152      	lsls	r2, r2, #5
 80025fc:	4611      	mov	r1, r2
 80025fe:	9a01      	ldr	r2, [sp, #4]
 8002600:	f8d2 20dc 	ldr.w	r2, [r2, #220]	; 0xdc
 8002604:	6ad2      	ldr	r2, [r2, #44]	; 0x2c
 8002606:	440a      	add	r2, r1
 8002608:	f502 6211 	add.w	r2, r2, #2320	; 0x910
 800260c:	f003 037f 	and.w	r3, r3, #127	; 0x7f
 8002610:	6013      	str	r3, [r2, #0]
 8002612:	f89d 3003 	ldrb.w	r3, [sp, #3]
 8002616:	3348      	adds	r3, #72	; 0x48
 8002618:	015b      	lsls	r3, r3, #5
 800261a:	461a      	mov	r2, r3
 800261c:	9b01      	ldr	r3, [sp, #4]
 800261e:	f8d3 30dc 	ldr.w	r3, [r3, #220]	; 0xdc
 8002622:	6adb      	ldr	r3, [r3, #44]	; 0x2c
 8002624:	4413      	add	r3, r2
 8002626:	681a      	ldr	r2, [r3, #0]
 8002628:	f89d 3002 	ldrb.w	r3, [sp, #2]
 800262c:	049b      	lsls	r3, r3, #18
 800262e:	f043 4318 	orr.w	r3, r3, #2550136832	; 0x98000000
 8002632:	f443 4300 	orr.w	r3, r3, #32768	; 0x8000
 8002636:	f89d 1003 	ldrb.w	r1, [sp, #3]
 800263a:	0589      	lsls	r1, r1, #22
 800263c:	4319      	orrs	r1, r3
 800263e:	f8bd 3000 	ldrh.w	r3, [sp]
 8002642:	430b      	orrs	r3, r1
 8002644:	4618      	mov	r0, r3
 8002646:	f89d 3003 	ldrb.w	r3, [sp, #3]
 800264a:	3348      	adds	r3, #72	; 0x48
 800264c:	015b      	lsls	r3, r3, #5
 800264e:	4619      	mov	r1, r3
 8002650:	9b01      	ldr	r3, [sp, #4]
 8002652:	f8d3 30dc 	ldr.w	r3, [r3, #220]	; 0xdc
 8002656:	6adb      	ldr	r3, [r3, #44]	; 0x2c
 8002658:	440b      	add	r3, r1
 800265a:	4619      	mov	r1, r3
 800265c:	ea42 0300 	orr.w	r3, r2, r0
 8002660:	600b      	str	r3, [r1, #0]
 8002662:	9b04      	ldr	r3, [sp, #16]
 8002664:	2b00      	cmp	r3, #0
 8002666:	d00a      	beq.n	800267e <dwc_ep_setup+0x242>
 8002668:	f89d 2003 	ldrb.w	r2, [sp, #3]
 800266c:	9901      	ldr	r1, [sp, #4]
 800266e:	4613      	mov	r3, r2
 8002670:	005b      	lsls	r3, r3, #1
 8002672:	4413      	add	r3, r2
 8002674:	009b      	lsls	r3, r3, #2
 8002676:	440b      	add	r3, r1
 8002678:	3368      	adds	r3, #104	; 0x68
 800267a:	9a04      	ldr	r2, [sp, #16]
 800267c:	601a      	str	r2, [r3, #0]
 800267e:	f89d 300f 	ldrb.w	r3, [sp, #15]
 8002682:	2b00      	cmp	r3, #0
 8002684:	d151      	bne.n	800272a <dwc_ep_setup+0x2ee>
 8002686:	f8bd 3000 	ldrh.w	r3, [sp]
 800268a:	f003 037f 	and.w	r3, r3, #127	; 0x7f
 800268e:	f443 2300 	orr.w	r3, r3, #524288	; 0x80000
 8002692:	f89d 2003 	ldrb.w	r2, [sp, #3]
 8002696:	4619      	mov	r1, r3
 8002698:	9b01      	ldr	r3, [sp, #4]
 800269a:	323a      	adds	r2, #58	; 0x3a
 800269c:	f843 1022 	str.w	r1, [r3, r2, lsl #2]
 80026a0:	f89d 2003 	ldrb.w	r2, [sp, #3]
 80026a4:	f89d 3003 	ldrb.w	r3, [sp, #3]
 80026a8:	015b      	lsls	r3, r3, #5
 80026aa:	4619      	mov	r1, r3
 80026ac:	9b01      	ldr	r3, [sp, #4]
 80026ae:	f8d3 30dc 	ldr.w	r3, [r3, #220]	; 0xdc
 80026b2:	6adb      	ldr	r3, [r3, #44]	; 0x2c
 80026b4:	440b      	add	r3, r1
 80026b6:	f503 6331 	add.w	r3, r3, #2832	; 0xb10
 80026ba:	4619      	mov	r1, r3
 80026bc:	9b01      	ldr	r3, [sp, #4]
 80026be:	323a      	adds	r2, #58	; 0x3a
 80026c0:	f853 3022 	ldr.w	r3, [r3, r2, lsl #2]
 80026c4:	600b      	str	r3, [r1, #0]
 80026c6:	f89d 3003 	ldrb.w	r3, [sp, #3]
 80026ca:	3358      	adds	r3, #88	; 0x58
 80026cc:	015b      	lsls	r3, r3, #5
 80026ce:	461a      	mov	r2, r3
 80026d0:	9b01      	ldr	r3, [sp, #4]
 80026d2:	f8d3 30dc 	ldr.w	r3, [r3, #220]	; 0xdc
 80026d6:	6adb      	ldr	r3, [r3, #44]	; 0x2c
 80026d8:	4413      	add	r3, r2
 80026da:	681a      	ldr	r2, [r3, #0]
 80026dc:	f89d 3002 	ldrb.w	r3, [sp, #2]
 80026e0:	049b      	lsls	r3, r3, #18
 80026e2:	f043 4314 	orr.w	r3, r3, #2483027968	; 0x94000000
 80026e6:	f443 4300 	orr.w	r3, r3, #32768	; 0x8000
 80026ea:	f8bd 1000 	ldrh.w	r1, [sp]
 80026ee:	430b      	orrs	r3, r1
 80026f0:	4618      	mov	r0, r3
 80026f2:	f89d 3003 	ldrb.w	r3, [sp, #3]
 80026f6:	3358      	adds	r3, #88	; 0x58
 80026f8:	015b      	lsls	r3, r3, #5
 80026fa:	4619      	mov	r1, r3
 80026fc:	9b01      	ldr	r3, [sp, #4]
 80026fe:	f8d3 30dc 	ldr.w	r3, [r3, #220]	; 0xdc
 8002702:	6adb      	ldr	r3, [r3, #44]	; 0x2c
 8002704:	440b      	add	r3, r1
 8002706:	4619      	mov	r1, r3
 8002708:	ea42 0300 	orr.w	r3, r2, r0
 800270c:	600b      	str	r3, [r1, #0]
 800270e:	9b04      	ldr	r3, [sp, #16]
 8002710:	2b00      	cmp	r3, #0
 8002712:	d00a      	beq.n	800272a <dwc_ep_setup+0x2ee>
 8002714:	f89d 2003 	ldrb.w	r2, [sp, #3]
 8002718:	9901      	ldr	r1, [sp, #4]
 800271a:	4613      	mov	r3, r2
 800271c:	005b      	lsls	r3, r3, #1
 800271e:	4413      	add	r3, r2
 8002720:	009b      	lsls	r3, r3, #2
 8002722:	440b      	add	r3, r1
 8002724:	336c      	adds	r3, #108	; 0x6c
 8002726:	9a04      	ldr	r2, [sp, #16]
 8002728:	601a      	str	r2, [r3, #0]
 800272a:	b004      	add	sp, #16
 800272c:	4770      	bx	lr

0800272e <dwc_endpoints_reset>:
 800272e:	b084      	sub	sp, #16
 8002730:	9001      	str	r0, [sp, #4]
 8002732:	9b01      	ldr	r3, [sp, #4]
 8002734:	f8b3 20e2 	ldrh.w	r2, [r3, #226]	; 0xe2
 8002738:	9b01      	ldr	r3, [sp, #4]
 800273a:	f8a3 20e0 	strh.w	r2, [r3, #224]	; 0xe0
 800273e:	2301      	movs	r3, #1
 8002740:	9303      	str	r3, [sp, #12]
 8002742:	e046      	b.n	80027d2 <dwc_endpoints_reset+0xa4>
 8002744:	9b03      	ldr	r3, [sp, #12]
 8002746:	3358      	adds	r3, #88	; 0x58
 8002748:	015b      	lsls	r3, r3, #5
 800274a:	461a      	mov	r2, r3
 800274c:	9b01      	ldr	r3, [sp, #4]
 800274e:	f8d3 30dc 	ldr.w	r3, [r3, #220]	; 0xdc
 8002752:	6adb      	ldr	r3, [r3, #44]	; 0x2c
 8002754:	4413      	add	r3, r2
 8002756:	681b      	ldr	r3, [r3, #0]
 8002758:	2b00      	cmp	r3, #0
 800275a:	da15      	bge.n	8002788 <dwc_endpoints_reset+0x5a>
 800275c:	9b03      	ldr	r3, [sp, #12]
 800275e:	3358      	adds	r3, #88	; 0x58
 8002760:	015b      	lsls	r3, r3, #5
 8002762:	461a      	mov	r2, r3
 8002764:	9b01      	ldr	r3, [sp, #4]
 8002766:	f8d3 30dc 	ldr.w	r3, [r3, #220]	; 0xdc
 800276a:	6adb      	ldr	r3, [r3, #44]	; 0x2c
 800276c:	4413      	add	r3, r2
 800276e:	681b      	ldr	r3, [r3, #0]
 8002770:	9a03      	ldr	r2, [sp, #12]
 8002772:	3258      	adds	r2, #88	; 0x58
 8002774:	0152      	lsls	r2, r2, #5
 8002776:	4611      	mov	r1, r2
 8002778:	9a01      	ldr	r2, [sp, #4]
 800277a:	f8d2 20dc 	ldr.w	r2, [r2, #220]	; 0xdc
 800277e:	6ad2      	ldr	r2, [r2, #44]	; 0x2c
 8002780:	440a      	add	r2, r1
 8002782:	f043 4380 	orr.w	r3, r3, #1073741824	; 0x40000000
 8002786:	6013      	str	r3, [r2, #0]
 8002788:	9b03      	ldr	r3, [sp, #12]
 800278a:	3348      	adds	r3, #72	; 0x48
 800278c:	015b      	lsls	r3, r3, #5
 800278e:	461a      	mov	r2, r3
 8002790:	9b01      	ldr	r3, [sp, #4]
 8002792:	f8d3 30dc 	ldr.w	r3, [r3, #220]	; 0xdc
 8002796:	6adb      	ldr	r3, [r3, #44]	; 0x2c
 8002798:	4413      	add	r3, r2
 800279a:	681b      	ldr	r3, [r3, #0]
 800279c:	2b00      	cmp	r3, #0
 800279e:	da15      	bge.n	80027cc <dwc_endpoints_reset+0x9e>
 80027a0:	9b03      	ldr	r3, [sp, #12]
 80027a2:	3348      	adds	r3, #72	; 0x48
 80027a4:	015b      	lsls	r3, r3, #5
 80027a6:	461a      	mov	r2, r3
 80027a8:	9b01      	ldr	r3, [sp, #4]
 80027aa:	f8d3 30dc 	ldr.w	r3, [r3, #220]	; 0xdc
 80027ae:	6adb      	ldr	r3, [r3, #44]	; 0x2c
 80027b0:	4413      	add	r3, r2
 80027b2:	681b      	ldr	r3, [r3, #0]
 80027b4:	9a03      	ldr	r2, [sp, #12]
 80027b6:	3248      	adds	r2, #72	; 0x48
 80027b8:	0152      	lsls	r2, r2, #5
 80027ba:	4611      	mov	r1, r2
 80027bc:	9a01      	ldr	r2, [sp, #4]
 80027be:	f8d2 20dc 	ldr.w	r2, [r2, #220]	; 0xdc
 80027c2:	6ad2      	ldr	r2, [r2, #44]	; 0x2c
 80027c4:	440a      	add	r2, r1
 80027c6:	f043 4380 	orr.w	r3, r3, #1073741824	; 0x40000000
 80027ca:	6013      	str	r3, [r2, #0]
 80027cc:	9b03      	ldr	r3, [sp, #12]
 80027ce:	3301      	adds	r3, #1
 80027d0:	9303      	str	r3, [sp, #12]
 80027d2:	9b03      	ldr	r3, [sp, #12]
 80027d4:	2b03      	cmp	r3, #3
 80027d6:	ddb5      	ble.n	8002744 <dwc_endpoints_reset+0x16>
 80027d8:	9b01      	ldr	r3, [sp, #4]
 80027da:	f8d3 30dc 	ldr.w	r3, [r3, #220]	; 0xdc
 80027de:	6adb      	ldr	r3, [r3, #44]	; 0x2c
 80027e0:	3310      	adds	r3, #16
 80027e2:	461a      	mov	r2, r3
 80027e4:	f44f 6386 	mov.w	r3, #1072	; 0x430
 80027e8:	6013      	str	r3, [r2, #0]
 80027ea:	bf00      	nop
 80027ec:	b004      	add	sp, #16
 80027ee:	4770      	bx	lr

080027f0 <dwc_ep_stall_set>:
 80027f0:	b082      	sub	sp, #8
 80027f2:	9001      	str	r0, [sp, #4]
 80027f4:	460b      	mov	r3, r1
 80027f6:	f88d 3003 	strb.w	r3, [sp, #3]
 80027fa:	4613      	mov	r3, r2
 80027fc:	f88d 3002 	strb.w	r3, [sp, #2]
 8002800:	f89d 3003 	ldrb.w	r3, [sp, #3]
 8002804:	2b00      	cmp	r3, #0
 8002806:	d134      	bne.n	8002872 <dwc_ep_stall_set+0x82>
 8002808:	f89d 3002 	ldrb.w	r3, [sp, #2]
 800280c:	2b00      	cmp	r3, #0
 800280e:	d018      	beq.n	8002842 <dwc_ep_stall_set+0x52>
 8002810:	f89d 3003 	ldrb.w	r3, [sp, #3]
 8002814:	3348      	adds	r3, #72	; 0x48
 8002816:	015b      	lsls	r3, r3, #5
 8002818:	461a      	mov	r2, r3
 800281a:	9b01      	ldr	r3, [sp, #4]
 800281c:	f8d3 30dc 	ldr.w	r3, [r3, #220]	; 0xdc
 8002820:	6adb      	ldr	r3, [r3, #44]	; 0x2c
 8002822:	4413      	add	r3, r2
 8002824:	681b      	ldr	r3, [r3, #0]
 8002826:	f89d 2003 	ldrb.w	r2, [sp, #3]
 800282a:	3248      	adds	r2, #72	; 0x48
 800282c:	0152      	lsls	r2, r2, #5
 800282e:	4611      	mov	r1, r2
 8002830:	9a01      	ldr	r2, [sp, #4]
 8002832:	f8d2 20dc 	ldr.w	r2, [r2, #220]	; 0xdc
 8002836:	6ad2      	ldr	r2, [r2, #44]	; 0x2c
 8002838:	440a      	add	r2, r1
 800283a:	f443 1300 	orr.w	r3, r3, #2097152	; 0x200000
 800283e:	6013      	str	r3, [r2, #0]
 8002840:	e017      	b.n	8002872 <dwc_ep_stall_set+0x82>
 8002842:	f89d 3003 	ldrb.w	r3, [sp, #3]
 8002846:	3348      	adds	r3, #72	; 0x48
 8002848:	015b      	lsls	r3, r3, #5
 800284a:	461a      	mov	r2, r3
 800284c:	9b01      	ldr	r3, [sp, #4]
 800284e:	f8d3 30dc 	ldr.w	r3, [r3, #220]	; 0xdc
 8002852:	6adb      	ldr	r3, [r3, #44]	; 0x2c
 8002854:	4413      	add	r3, r2
 8002856:	681b      	ldr	r3, [r3, #0]
 8002858:	f89d 2003 	ldrb.w	r2, [sp, #3]
 800285c:	3248      	adds	r2, #72	; 0x48
 800285e:	0152      	lsls	r2, r2, #5
 8002860:	4611      	mov	r1, r2
 8002862:	9a01      	ldr	r2, [sp, #4]
 8002864:	f8d2 20dc 	ldr.w	r2, [r2, #220]	; 0xdc
 8002868:	6ad2      	ldr	r2, [r2, #44]	; 0x2c
 800286a:	440a      	add	r2, r1
 800286c:	f423 1300 	bic.w	r3, r3, #2097152	; 0x200000
 8002870:	6013      	str	r3, [r2, #0]
 8002872:	f99d 3003 	ldrsb.w	r3, [sp, #3]
 8002876:	2b00      	cmp	r3, #0
 8002878:	da53      	bge.n	8002922 <dwc_ep_stall_set+0x132>
 800287a:	f89d 3003 	ldrb.w	r3, [sp, #3]
 800287e:	f003 037f 	and.w	r3, r3, #127	; 0x7f
 8002882:	f88d 3003 	strb.w	r3, [sp, #3]
 8002886:	f89d 3002 	ldrb.w	r3, [sp, #2]
 800288a:	2b00      	cmp	r3, #0
 800288c:	d018      	beq.n	80028c0 <dwc_ep_stall_set+0xd0>
 800288e:	f89d 3003 	ldrb.w	r3, [sp, #3]
 8002892:	3348      	adds	r3, #72	; 0x48
 8002894:	015b      	lsls	r3, r3, #5
 8002896:	461a      	mov	r2, r3
 8002898:	9b01      	ldr	r3, [sp, #4]
 800289a:	f8d3 30dc 	ldr.w	r3, [r3, #220]	; 0xdc
 800289e:	6adb      	ldr	r3, [r3, #44]	; 0x2c
 80028a0:	4413      	add	r3, r2
 80028a2:	681b      	ldr	r3, [r3, #0]
 80028a4:	f89d 2003 	ldrb.w	r2, [sp, #3]
 80028a8:	3248      	adds	r2, #72	; 0x48
 80028aa:	0152      	lsls	r2, r2, #5
 80028ac:	4611      	mov	r1, r2
 80028ae:	9a01      	ldr	r2, [sp, #4]
 80028b0:	f8d2 20dc 	ldr.w	r2, [r2, #220]	; 0xdc
 80028b4:	6ad2      	ldr	r2, [r2, #44]	; 0x2c
 80028b6:	440a      	add	r2, r1
 80028b8:	f443 1300 	orr.w	r3, r3, #2097152	; 0x200000
 80028bc:	6013      	str	r3, [r2, #0]
 80028be:	e07d      	b.n	80029bc <dwc_ep_stall_set+0x1cc>
 80028c0:	f89d 3003 	ldrb.w	r3, [sp, #3]
 80028c4:	3348      	adds	r3, #72	; 0x48
 80028c6:	015b      	lsls	r3, r3, #5
 80028c8:	461a      	mov	r2, r3
 80028ca:	9b01      	ldr	r3, [sp, #4]
 80028cc:	f8d3 30dc 	ldr.w	r3, [r3, #220]	; 0xdc
 80028d0:	6adb      	ldr	r3, [r3, #44]	; 0x2c
 80028d2:	4413      	add	r3, r2
 80028d4:	681b      	ldr	r3, [r3, #0]
 80028d6:	f89d 2003 	ldrb.w	r2, [sp, #3]
 80028da:	3248      	adds	r2, #72	; 0x48
 80028dc:	0152      	lsls	r2, r2, #5
 80028de:	4611      	mov	r1, r2
 80028e0:	9a01      	ldr	r2, [sp, #4]
 80028e2:	f8d2 20dc 	ldr.w	r2, [r2, #220]	; 0xdc
 80028e6:	6ad2      	ldr	r2, [r2, #44]	; 0x2c
 80028e8:	440a      	add	r2, r1
 80028ea:	f423 1300 	bic.w	r3, r3, #2097152	; 0x200000
 80028ee:	6013      	str	r3, [r2, #0]
 80028f0:	f89d 3003 	ldrb.w	r3, [sp, #3]
 80028f4:	3348      	adds	r3, #72	; 0x48
 80028f6:	015b      	lsls	r3, r3, #5
 80028f8:	461a      	mov	r2, r3
 80028fa:	9b01      	ldr	r3, [sp, #4]
 80028fc:	f8d3 30dc 	ldr.w	r3, [r3, #220]	; 0xdc
 8002900:	6adb      	ldr	r3, [r3, #44]	; 0x2c
 8002902:	4413      	add	r3, r2
 8002904:	681b      	ldr	r3, [r3, #0]
 8002906:	f89d 2003 	ldrb.w	r2, [sp, #3]
 800290a:	3248      	adds	r2, #72	; 0x48
 800290c:	0152      	lsls	r2, r2, #5
 800290e:	4611      	mov	r1, r2
 8002910:	9a01      	ldr	r2, [sp, #4]
 8002912:	f8d2 20dc 	ldr.w	r2, [r2, #220]	; 0xdc
 8002916:	6ad2      	ldr	r2, [r2, #44]	; 0x2c
 8002918:	440a      	add	r2, r1
 800291a:	f043 5380 	orr.w	r3, r3, #268435456	; 0x10000000
 800291e:	6013      	str	r3, [r2, #0]
 8002920:	e04c      	b.n	80029bc <dwc_ep_stall_set+0x1cc>
 8002922:	f89d 3002 	ldrb.w	r3, [sp, #2]
 8002926:	2b00      	cmp	r3, #0
 8002928:	d018      	beq.n	800295c <dwc_ep_stall_set+0x16c>
 800292a:	f89d 3003 	ldrb.w	r3, [sp, #3]
 800292e:	3358      	adds	r3, #88	; 0x58
 8002930:	015b      	lsls	r3, r3, #5
 8002932:	461a      	mov	r2, r3
 8002934:	9b01      	ldr	r3, [sp, #4]
 8002936:	f8d3 30dc 	ldr.w	r3, [r3, #220]	; 0xdc
 800293a:	6adb      	ldr	r3, [r3, #44]	; 0x2c
 800293c:	4413      	add	r3, r2
 800293e:	681b      	ldr	r3, [r3, #0]
 8002940:	f89d 2003 	ldrb.w	r2, [sp, #3]
 8002944:	3258      	adds	r2, #88	; 0x58
 8002946:	0152      	lsls	r2, r2, #5
 8002948:	4611      	mov	r1, r2
 800294a:	9a01      	ldr	r2, [sp, #4]
 800294c:	f8d2 20dc 	ldr.w	r2, [r2, #220]	; 0xdc
 8002950:	6ad2      	ldr	r2, [r2, #44]	; 0x2c
 8002952:	440a      	add	r2, r1
 8002954:	f443 1300 	orr.w	r3, r3, #2097152	; 0x200000
 8002958:	6013      	str	r3, [r2, #0]
 800295a:	e02f      	b.n	80029bc <dwc_ep_stall_set+0x1cc>
 800295c:	f89d 3003 	ldrb.w	r3, [sp, #3]
 8002960:	3358      	adds	r3, #88	; 0x58
 8002962:	015b      	lsls	r3, r3, #5
 8002964:	461a      	mov	r2, r3
 8002966:	9b01      	ldr	r3, [sp, #4]
 8002968:	f8d3 30dc 	ldr.w	r3, [r3, #220]	; 0xdc
 800296c:	6adb      	ldr	r3, [r3, #44]	; 0x2c
 800296e:	4413      	add	r3, r2
 8002970:	681b      	ldr	r3, [r3, #0]
 8002972:	f89d 2003 	ldrb.w	r2, [sp, #3]
 8002976:	3258      	adds	r2, #88	; 0x58
 8002978:	0152      	lsls	r2, r2, #5
 800297a:	4611      	mov	r1, r2
 800297c:	9a01      	ldr	r2, [sp, #4]
 800297e:	f8d2 20dc 	ldr.w	r2, [r2, #220]	; 0xdc
 8002982:	6ad2      	ldr	r2, [r2, #44]	; 0x2c
 8002984:	440a      	add	r2, r1
 8002986:	f423 1300 	bic.w	r3, r3, #2097152	; 0x200000
 800298a:	6013      	str	r3, [r2, #0]
 800298c:	f89d 3003 	ldrb.w	r3, [sp, #3]
 8002990:	3358      	adds	r3, #88	; 0x58
 8002992:	015b      	lsls	r3, r3, #5
 8002994:	461a      	mov	r2, r3
 8002996:	9b01      	ldr	r3, [sp, #4]
 8002998:	f8d3 30dc 	ldr.w	r3, [r3, #220]	; 0xdc
 800299c:	6adb      	ldr	r3, [r3, #44]	; 0x2c
 800299e:	4413      	add	r3, r2
 80029a0:	681b      	ldr	r3, [r3, #0]
 80029a2:	f89d 2003 	ldrb.w	r2, [sp, #3]
 80029a6:	3258      	adds	r2, #88	; 0x58
 80029a8:	0152      	lsls	r2, r2, #5
 80029aa:	4611      	mov	r1, r2
 80029ac:	9a01      	ldr	r2, [sp, #4]
 80029ae:	f8d2 20dc 	ldr.w	r2, [r2, #220]	; 0xdc
 80029b2:	6ad2      	ldr	r2, [r2, #44]	; 0x2c
 80029b4:	440a      	add	r2, r1
 80029b6:	f043 5380 	orr.w	r3, r3, #268435456	; 0x10000000
 80029ba:	6013      	str	r3, [r2, #0]
 80029bc:	bf00      	nop
 80029be:	b002      	add	sp, #8
 80029c0:	4770      	bx	lr

080029c2 <dwc_ep_stall_get>:
 80029c2:	b082      	sub	sp, #8
 80029c4:	9001      	str	r0, [sp, #4]
 80029c6:	460b      	mov	r3, r1
 80029c8:	f88d 3003 	strb.w	r3, [sp, #3]
 80029cc:	f99d 3003 	ldrsb.w	r3, [sp, #3]
 80029d0:	2b00      	cmp	r3, #0
 80029d2:	da14      	bge.n	80029fe <dwc_ep_stall_get+0x3c>
 80029d4:	f89d 3003 	ldrb.w	r3, [sp, #3]
 80029d8:	f003 037f 	and.w	r3, r3, #127	; 0x7f
 80029dc:	3348      	adds	r3, #72	; 0x48
 80029de:	015b      	lsls	r3, r3, #5
 80029e0:	461a      	mov	r2, r3
 80029e2:	9b01      	ldr	r3, [sp, #4]
 80029e4:	f8d3 30dc 	ldr.w	r3, [r3, #220]	; 0xdc
 80029e8:	6adb      	ldr	r3, [r3, #44]	; 0x2c
 80029ea:	4413      	add	r3, r2
 80029ec:	681b      	ldr	r3, [r3, #0]
 80029ee:	f403 1300 	and.w	r3, r3, #2097152	; 0x200000
 80029f2:	2b00      	cmp	r3, #0
 80029f4:	bf14      	ite	ne
 80029f6:	2301      	movne	r3, #1
 80029f8:	2300      	moveq	r3, #0
 80029fa:	b2db      	uxtb	r3, r3
 80029fc:	e011      	b.n	8002a22 <dwc_ep_stall_get+0x60>
 80029fe:	f89d 3003 	ldrb.w	r3, [sp, #3]
 8002a02:	3358      	adds	r3, #88	; 0x58
 8002a04:	015b      	lsls	r3, r3, #5
 8002a06:	461a      	mov	r2, r3
 8002a08:	9b01      	ldr	r3, [sp, #4]
 8002a0a:	f8d3 30dc 	ldr.w	r3, [r3, #220]	; 0xdc
 8002a0e:	6adb      	ldr	r3, [r3, #44]	; 0x2c
 8002a10:	4413      	add	r3, r2
 8002a12:	681b      	ldr	r3, [r3, #0]
 8002a14:	f403 1300 	and.w	r3, r3, #2097152	; 0x200000
 8002a18:	2b00      	cmp	r3, #0
 8002a1a:	bf14      	ite	ne
 8002a1c:	2301      	movne	r3, #1
 8002a1e:	2300      	moveq	r3, #0
 8002a20:	b2db      	uxtb	r3, r3
 8002a22:	4618      	mov	r0, r3
 8002a24:	b002      	add	sp, #8
 8002a26:	4770      	bx	lr

08002a28 <dwc_ep_nak_set>:
 8002a28:	b082      	sub	sp, #8
 8002a2a:	9001      	str	r0, [sp, #4]
 8002a2c:	460b      	mov	r3, r1
 8002a2e:	f88d 3003 	strb.w	r3, [sp, #3]
 8002a32:	4613      	mov	r3, r2
 8002a34:	f88d 3002 	strb.w	r3, [sp, #2]
 8002a38:	f99d 3003 	ldrsb.w	r3, [sp, #3]
 8002a3c:	2b00      	cmp	r3, #0
 8002a3e:	db3d      	blt.n	8002abc <dwc_ep_nak_set+0x94>
 8002a40:	f89d 3003 	ldrb.w	r3, [sp, #3]
 8002a44:	9a01      	ldr	r2, [sp, #4]
 8002a46:	4413      	add	r3, r2
 8002a48:	f89d 2002 	ldrb.w	r2, [sp, #2]
 8002a4c:	f883 20e4 	strb.w	r2, [r3, #228]	; 0xe4
 8002a50:	f89d 3002 	ldrb.w	r3, [sp, #2]
 8002a54:	2b00      	cmp	r3, #0
 8002a56:	d018      	beq.n	8002a8a <dwc_ep_nak_set+0x62>
 8002a58:	f89d 3003 	ldrb.w	r3, [sp, #3]
 8002a5c:	3358      	adds	r3, #88	; 0x58
 8002a5e:	015b      	lsls	r3, r3, #5
 8002a60:	461a      	mov	r2, r3
 8002a62:	9b01      	ldr	r3, [sp, #4]
 8002a64:	f8d3 30dc 	ldr.w	r3, [r3, #220]	; 0xdc
 8002a68:	6adb      	ldr	r3, [r3, #44]	; 0x2c
 8002a6a:	4413      	add	r3, r2
 8002a6c:	681b      	ldr	r3, [r3, #0]
 8002a6e:	f89d 2003 	ldrb.w	r2, [sp, #3]
 8002a72:	3258      	adds	r2, #88	; 0x58
 8002a74:	0152      	lsls	r2, r2, #5
 8002a76:	4611      	mov	r1, r2
 8002a78:	9a01      	ldr	r2, [sp, #4]
 8002a7a:	f8d2 20dc 	ldr.w	r2, [r2, #220]	; 0xdc
 8002a7e:	6ad2      	ldr	r2, [r2, #44]	; 0x2c
 8002a80:	440a      	add	r2, r1
 8002a82:	f043 6300 	orr.w	r3, r3, #134217728	; 0x8000000
 8002a86:	6013      	str	r3, [r2, #0]
 8002a88:	e019      	b.n	8002abe <dwc_ep_nak_set+0x96>
 8002a8a:	f89d 3003 	ldrb.w	r3, [sp, #3]
 8002a8e:	3358      	adds	r3, #88	; 0x58
 8002a90:	015b      	lsls	r3, r3, #5
 8002a92:	461a      	mov	r2, r3
 8002a94:	9b01      	ldr	r3, [sp, #4]
 8002a96:	f8d3 30dc 	ldr.w	r3, [r3, #220]	; 0xdc
 8002a9a:	6adb      	ldr	r3, [r3, #44]	; 0x2c
 8002a9c:	4413      	add	r3, r2
 8002a9e:	681b      	ldr	r3, [r3, #0]
 8002aa0:	f89d 2003 	ldrb.w	r2, [sp, #3]
 8002aa4:	3258      	adds	r2, #88	; 0x58
 8002aa6:	0152      	lsls	r2, r2, #5
 8002aa8:	4611      	mov	r1, r2
 8002aaa:	9a01      	ldr	r2, [sp, #4]
 8002aac:	f8d2 20dc 	ldr.w	r2, [r2, #220]	; 0xdc
 8002ab0:	6ad2      	ldr	r2, [r2, #44]	; 0x2c
 8002ab2:	440a      	add	r2, r1
 8002ab4:	f043 6380 	orr.w	r3, r3, #67108864	; 0x4000000
 8002ab8:	6013      	str	r3, [r2, #0]
 8002aba:	e000      	b.n	8002abe <dwc_ep_nak_set+0x96>
 8002abc:	bf00      	nop
 8002abe:	b002      	add	sp, #8
 8002ac0:	4770      	bx	lr

08002ac2 <dwc_ep_write_packet>:
 8002ac2:	b086      	sub	sp, #24
 8002ac4:	9003      	str	r0, [sp, #12]
 8002ac6:	9201      	str	r2, [sp, #4]
 8002ac8:	461a      	mov	r2, r3
 8002aca:	460b      	mov	r3, r1
 8002acc:	f88d 300b 	strb.w	r3, [sp, #11]
 8002ad0:	4613      	mov	r3, r2
 8002ad2:	f8ad 3008 	strh.w	r3, [sp, #8]
 8002ad6:	9b01      	ldr	r3, [sp, #4]
 8002ad8:	9305      	str	r3, [sp, #20]
 8002ada:	f89d 300b 	ldrb.w	r3, [sp, #11]
 8002ade:	f003 037f 	and.w	r3, r3, #127	; 0x7f
 8002ae2:	f88d 300b 	strb.w	r3, [sp, #11]
 8002ae6:	f89d 300b 	ldrb.w	r3, [sp, #11]
 8002aea:	015b      	lsls	r3, r3, #5
 8002aec:	461a      	mov	r2, r3
 8002aee:	9b03      	ldr	r3, [sp, #12]
 8002af0:	f8d3 30dc 	ldr.w	r3, [r3, #220]	; 0xdc
 8002af4:	6adb      	ldr	r3, [r3, #44]	; 0x2c
 8002af6:	4413      	add	r3, r2
 8002af8:	f503 6311 	add.w	r3, r3, #2320	; 0x910
 8002afc:	681b      	ldr	r3, [r3, #0]
 8002afe:	f403 2300 	and.w	r3, r3, #524288	; 0x80000
 8002b02:	2b00      	cmp	r3, #0
 8002b04:	d001      	beq.n	8002b0a <dwc_ep_write_packet+0x48>
 8002b06:	2300      	movs	r3, #0
 8002b08:	e042      	b.n	8002b90 <dwc_ep_write_packet+0xce>
 8002b0a:	f8bd 3008 	ldrh.w	r3, [sp, #8]
 8002b0e:	f443 2200 	orr.w	r2, r3, #524288	; 0x80000
 8002b12:	f89d 300b 	ldrb.w	r3, [sp, #11]
 8002b16:	015b      	lsls	r3, r3, #5
 8002b18:	4619      	mov	r1, r3
 8002b1a:	9b03      	ldr	r3, [sp, #12]
 8002b1c:	f8d3 30dc 	ldr.w	r3, [r3, #220]	; 0xdc
 8002b20:	6adb      	ldr	r3, [r3, #44]	; 0x2c
 8002b22:	440b      	add	r3, r1
 8002b24:	f503 6311 	add.w	r3, r3, #2320	; 0x910
 8002b28:	601a      	str	r2, [r3, #0]
 8002b2a:	f89d 300b 	ldrb.w	r3, [sp, #11]
 8002b2e:	3348      	adds	r3, #72	; 0x48
 8002b30:	015b      	lsls	r3, r3, #5
 8002b32:	461a      	mov	r2, r3
 8002b34:	9b03      	ldr	r3, [sp, #12]
 8002b36:	f8d3 30dc 	ldr.w	r3, [r3, #220]	; 0xdc
 8002b3a:	6adb      	ldr	r3, [r3, #44]	; 0x2c
 8002b3c:	4413      	add	r3, r2
 8002b3e:	681b      	ldr	r3, [r3, #0]
 8002b40:	f89d 200b 	ldrb.w	r2, [sp, #11]
 8002b44:	3248      	adds	r2, #72	; 0x48
 8002b46:	0152      	lsls	r2, r2, #5
 8002b48:	4611      	mov	r1, r2
 8002b4a:	9a03      	ldr	r2, [sp, #12]
 8002b4c:	f8d2 20dc 	ldr.w	r2, [r2, #220]	; 0xdc
 8002b50:	6ad2      	ldr	r2, [r2, #44]	; 0x2c
 8002b52:	440a      	add	r2, r1
 8002b54:	f043 4304 	orr.w	r3, r3, #2214592512	; 0x84000000
 8002b58:	6013      	str	r3, [r2, #0]
 8002b5a:	f8bd 3008 	ldrh.w	r3, [sp, #8]
 8002b5e:	9304      	str	r3, [sp, #16]
 8002b60:	e011      	b.n	8002b86 <dwc_ep_write_packet+0xc4>
 8002b62:	9b05      	ldr	r3, [sp, #20]
 8002b64:	1d1a      	adds	r2, r3, #4
 8002b66:	9205      	str	r2, [sp, #20]
 8002b68:	f89d 200b 	ldrb.w	r2, [sp, #11]
 8002b6c:	3201      	adds	r2, #1
 8002b6e:	0312      	lsls	r2, r2, #12
 8002b70:	4611      	mov	r1, r2
 8002b72:	9a03      	ldr	r2, [sp, #12]
 8002b74:	f8d2 20dc 	ldr.w	r2, [r2, #220]	; 0xdc
 8002b78:	6ad2      	ldr	r2, [r2, #44]	; 0x2c
 8002b7a:	440a      	add	r2, r1
 8002b7c:	681b      	ldr	r3, [r3, #0]
 8002b7e:	6013      	str	r3, [r2, #0]
 8002b80:	9b04      	ldr	r3, [sp, #16]
 8002b82:	3b04      	subs	r3, #4
 8002b84:	9304      	str	r3, [sp, #16]
 8002b86:	9b04      	ldr	r3, [sp, #16]
 8002b88:	2b00      	cmp	r3, #0
 8002b8a:	dcea      	bgt.n	8002b62 <dwc_ep_write_packet+0xa0>
 8002b8c:	f8bd 3008 	ldrh.w	r3, [sp, #8]
 8002b90:	4618      	mov	r0, r3
 8002b92:	b006      	add	sp, #24
 8002b94:	4770      	bx	lr

08002b96 <dwc_ep_read_packet>:
 8002b96:	b500      	push	{lr}
 8002b98:	b089      	sub	sp, #36	; 0x24
 8002b9a:	9003      	str	r0, [sp, #12]
 8002b9c:	9201      	str	r2, [sp, #4]
 8002b9e:	461a      	mov	r2, r3
 8002ba0:	460b      	mov	r3, r1
 8002ba2:	f88d 300b 	strb.w	r3, [sp, #11]
 8002ba6:	4613      	mov	r3, r2
 8002ba8:	f8ad 3008 	strh.w	r3, [sp, #8]
 8002bac:	9b01      	ldr	r3, [sp, #4]
 8002bae:	9306      	str	r3, [sp, #24]
 8002bb0:	9b03      	ldr	r3, [sp, #12]
 8002bb2:	f8b3 30f8 	ldrh.w	r3, [r3, #248]	; 0xf8
 8002bb6:	f8bd 2008 	ldrh.w	r2, [sp, #8]
 8002bba:	4293      	cmp	r3, r2
 8002bbc:	bf28      	it	cs
 8002bbe:	4613      	movcs	r3, r2
 8002bc0:	f8ad 3008 	strh.w	r3, [sp, #8]
 8002bc4:	f8bd 3008 	ldrh.w	r3, [sp, #8]
 8002bc8:	9307      	str	r3, [sp, #28]
 8002bca:	e016      	b.n	8002bfa <dwc_ep_read_packet+0x64>
 8002bcc:	9b03      	ldr	r3, [sp, #12]
 8002bce:	f8d3 30dc 	ldr.w	r3, [r3, #220]	; 0xdc
 8002bd2:	6adb      	ldr	r3, [r3, #44]	; 0x2c
 8002bd4:	f503 5380 	add.w	r3, r3, #4096	; 0x1000
 8002bd8:	4619      	mov	r1, r3
 8002bda:	9b06      	ldr	r3, [sp, #24]
 8002bdc:	1d1a      	adds	r2, r3, #4
 8002bde:	9206      	str	r2, [sp, #24]
 8002be0:	680a      	ldr	r2, [r1, #0]
 8002be2:	601a      	str	r2, [r3, #0]
 8002be4:	9b03      	ldr	r3, [sp, #12]
 8002be6:	f8b3 30f8 	ldrh.w	r3, [r3, #248]	; 0xf8
 8002bea:	3b04      	subs	r3, #4
 8002bec:	b29a      	uxth	r2, r3
 8002bee:	9b03      	ldr	r3, [sp, #12]
 8002bf0:	f8a3 20f8 	strh.w	r2, [r3, #248]	; 0xf8
 8002bf4:	9b07      	ldr	r3, [sp, #28]
 8002bf6:	3b04      	subs	r3, #4
 8002bf8:	9307      	str	r3, [sp, #28]
 8002bfa:	9b07      	ldr	r3, [sp, #28]
 8002bfc:	2b03      	cmp	r3, #3
 8002bfe:	dce5      	bgt.n	8002bcc <dwc_ep_read_packet+0x36>
 8002c00:	9b07      	ldr	r3, [sp, #28]
 8002c02:	2b00      	cmp	r3, #0
 8002c04:	d01f      	beq.n	8002c46 <dwc_ep_read_packet+0xb0>
 8002c06:	9b03      	ldr	r3, [sp, #12]
 8002c08:	f8d3 30dc 	ldr.w	r3, [r3, #220]	; 0xdc
 8002c0c:	6adb      	ldr	r3, [r3, #44]	; 0x2c
 8002c0e:	f503 5380 	add.w	r3, r3, #4096	; 0x1000
 8002c12:	681b      	ldr	r3, [r3, #0]
 8002c14:	9305      	str	r3, [sp, #20]
 8002c16:	9b03      	ldr	r3, [sp, #12]
 8002c18:	f8b3 30f8 	ldrh.w	r3, [r3, #248]	; 0xf8
 8002c1c:	2b03      	cmp	r3, #3
 8002c1e:	d804      	bhi.n	8002c2a <dwc_ep_read_packet+0x94>
 8002c20:	9b03      	ldr	r3, [sp, #12]
 8002c22:	2200      	movs	r2, #0
 8002c24:	f8a3 20f8 	strh.w	r2, [r3, #248]	; 0xf8
 8002c28:	e007      	b.n	8002c3a <dwc_ep_read_packet+0xa4>
 8002c2a:	9b03      	ldr	r3, [sp, #12]
 8002c2c:	f8b3 30f8 	ldrh.w	r3, [r3, #248]	; 0xf8
 8002c30:	3b04      	subs	r3, #4
 8002c32:	b29a      	uxth	r2, r3
 8002c34:	9b03      	ldr	r3, [sp, #12]
 8002c36:	f8a3 20f8 	strh.w	r2, [r3, #248]	; 0xf8
 8002c3a:	9a07      	ldr	r2, [sp, #28]
 8002c3c:	ab05      	add	r3, sp, #20
 8002c3e:	4619      	mov	r1, r3
 8002c40:	9806      	ldr	r0, [sp, #24]
 8002c42:	f002 fd25 	bl	8005690 <memcpy>
 8002c46:	f8bd 3008 	ldrh.w	r3, [sp, #8]
 8002c4a:	4618      	mov	r0, r3
 8002c4c:	b009      	add	sp, #36	; 0x24
 8002c4e:	f85d fb04 	ldr.w	pc, [sp], #4

08002c52 <dwc_flush_txfifo>:
 8002c52:	b084      	sub	sp, #16
 8002c54:	9001      	str	r0, [sp, #4]
 8002c56:	9100      	str	r1, [sp, #0]
 8002c58:	9b00      	ldr	r3, [sp, #0]
 8002c5a:	3348      	adds	r3, #72	; 0x48
 8002c5c:	015b      	lsls	r3, r3, #5
 8002c5e:	461a      	mov	r2, r3
 8002c60:	9b01      	ldr	r3, [sp, #4]
 8002c62:	f8d3 30dc 	ldr.w	r3, [r3, #220]	; 0xdc
 8002c66:	6adb      	ldr	r3, [r3, #44]	; 0x2c
 8002c68:	4413      	add	r3, r2
 8002c6a:	681b      	ldr	r3, [r3, #0]
 8002c6c:	9a00      	ldr	r2, [sp, #0]
 8002c6e:	3248      	adds	r2, #72	; 0x48
 8002c70:	0152      	lsls	r2, r2, #5
 8002c72:	4611      	mov	r1, r2
 8002c74:	9a01      	ldr	r2, [sp, #4]
 8002c76:	f8d2 20dc 	ldr.w	r2, [r2, #220]	; 0xdc
 8002c7a:	6ad2      	ldr	r2, [r2, #44]	; 0x2c
 8002c7c:	440a      	add	r2, r1
 8002c7e:	f043 6300 	orr.w	r3, r3, #134217728	; 0x8000000
 8002c82:	6013      	str	r3, [r2, #0]
 8002c84:	bf00      	nop
 8002c86:	9b00      	ldr	r3, [sp, #0]
 8002c88:	015b      	lsls	r3, r3, #5
 8002c8a:	461a      	mov	r2, r3
 8002c8c:	9b01      	ldr	r3, [sp, #4]
 8002c8e:	f8d3 30dc 	ldr.w	r3, [r3, #220]	; 0xdc
 8002c92:	6adb      	ldr	r3, [r3, #44]	; 0x2c
 8002c94:	4413      	add	r3, r2
 8002c96:	f603 1308 	addw	r3, r3, #2312	; 0x908
 8002c9a:	681b      	ldr	r3, [r3, #0]
 8002c9c:	f003 0340 	and.w	r3, r3, #64	; 0x40
 8002ca0:	2b00      	cmp	r3, #0
 8002ca2:	d0f0      	beq.n	8002c86 <dwc_flush_txfifo+0x34>
 8002ca4:	9b00      	ldr	r3, [sp, #0]
 8002ca6:	3348      	adds	r3, #72	; 0x48
 8002ca8:	015b      	lsls	r3, r3, #5
 8002caa:	461a      	mov	r2, r3
 8002cac:	9b01      	ldr	r3, [sp, #4]
 8002cae:	f8d3 30dc 	ldr.w	r3, [r3, #220]	; 0xdc
 8002cb2:	6adb      	ldr	r3, [r3, #44]	; 0x2c
 8002cb4:	4413      	add	r3, r2
 8002cb6:	681b      	ldr	r3, [r3, #0]
 8002cb8:	0d9b      	lsrs	r3, r3, #22
 8002cba:	f003 030f 	and.w	r3, r3, #15
 8002cbe:	9303      	str	r3, [sp, #12]
 8002cc0:	bf00      	nop
 8002cc2:	9b01      	ldr	r3, [sp, #4]
 8002cc4:	f8d3 30dc 	ldr.w	r3, [r3, #220]	; 0xdc
 8002cc8:	6adb      	ldr	r3, [r3, #44]	; 0x2c
 8002cca:	3310      	adds	r3, #16
 8002ccc:	681b      	ldr	r3, [r3, #0]
 8002cce:	2b00      	cmp	r3, #0
 8002cd0:	daf7      	bge.n	8002cc2 <dwc_flush_txfifo+0x70>
 8002cd2:	9b03      	ldr	r3, [sp, #12]
 8002cd4:	019b      	lsls	r3, r3, #6
 8002cd6:	9a01      	ldr	r2, [sp, #4]
 8002cd8:	f8d2 20dc 	ldr.w	r2, [r2, #220]	; 0xdc
 8002cdc:	6ad2      	ldr	r2, [r2, #44]	; 0x2c
 8002cde:	3210      	adds	r2, #16
 8002ce0:	f043 0320 	orr.w	r3, r3, #32
 8002ce4:	6013      	str	r3, [r2, #0]
 8002ce6:	9b00      	ldr	r3, [sp, #0]
 8002ce8:	015b      	lsls	r3, r3, #5
 8002cea:	461a      	mov	r2, r3
 8002cec:	9b01      	ldr	r3, [sp, #4]
 8002cee:	f8d3 30dc 	ldr.w	r3, [r3, #220]	; 0xdc
 8002cf2:	6adb      	ldr	r3, [r3, #44]	; 0x2c
 8002cf4:	4413      	add	r3, r2
 8002cf6:	f503 6311 	add.w	r3, r3, #2320	; 0x910
 8002cfa:	461a      	mov	r2, r3
 8002cfc:	2300      	movs	r3, #0
 8002cfe:	6013      	str	r3, [r2, #0]
 8002d00:	bf00      	nop
 8002d02:	9b01      	ldr	r3, [sp, #4]
 8002d04:	f8d3 30dc 	ldr.w	r3, [r3, #220]	; 0xdc
 8002d08:	6adb      	ldr	r3, [r3, #44]	; 0x2c
 8002d0a:	3310      	adds	r3, #16
 8002d0c:	681b      	ldr	r3, [r3, #0]
 8002d0e:	f003 0320 	and.w	r3, r3, #32
 8002d12:	2b00      	cmp	r3, #0
 8002d14:	d1f5      	bne.n	8002d02 <dwc_flush_txfifo+0xb0>
 8002d16:	bf00      	nop
 8002d18:	b004      	add	sp, #16
 8002d1a:	4770      	bx	lr

08002d1c <dwc_poll>:
 8002d1c:	b500      	push	{lr}
 8002d1e:	b089      	sub	sp, #36	; 0x24
 8002d20:	9001      	str	r0, [sp, #4]
 8002d22:	9b01      	ldr	r3, [sp, #4]
 8002d24:	f8d3 30dc 	ldr.w	r3, [r3, #220]	; 0xdc
 8002d28:	6adb      	ldr	r3, [r3, #44]	; 0x2c
 8002d2a:	3314      	adds	r3, #20
 8002d2c:	681b      	ldr	r3, [r3, #0]
 8002d2e:	9305      	str	r3, [sp, #20]
 8002d30:	9b05      	ldr	r3, [sp, #20]
 8002d32:	f403 5300 	and.w	r3, r3, #8192	; 0x2000
 8002d36:	2b00      	cmp	r3, #0
 8002d38:	d013      	beq.n	8002d62 <dwc_poll+0x46>
 8002d3a:	9b01      	ldr	r3, [sp, #4]
 8002d3c:	f8d3 30dc 	ldr.w	r3, [r3, #220]	; 0xdc
 8002d40:	6adb      	ldr	r3, [r3, #44]	; 0x2c
 8002d42:	3314      	adds	r3, #20
 8002d44:	461a      	mov	r2, r3
 8002d46:	f44f 5300 	mov.w	r3, #8192	; 0x2000
 8002d4a:	6013      	str	r3, [r2, #0]
 8002d4c:	9b01      	ldr	r3, [sp, #4]
 8002d4e:	f8d3 30dc 	ldr.w	r3, [r3, #220]	; 0xdc
 8002d52:	8e5a      	ldrh	r2, [r3, #50]	; 0x32
 8002d54:	9b01      	ldr	r3, [sp, #4]
 8002d56:	f8a3 20e0 	strh.w	r2, [r3, #224]	; 0xe0
 8002d5a:	9801      	ldr	r0, [sp, #4]
 8002d5c:	f7fe fa14 	bl	8001188 <_usbd_reset>
 8002d60:	e182      	b.n	8003068 <dwc_poll+0x34c>
 8002d62:	2300      	movs	r3, #0
 8002d64:	9307      	str	r3, [sp, #28]
 8002d66:	e037      	b.n	8002dd8 <dwc_poll+0xbc>
 8002d68:	9b07      	ldr	r3, [sp, #28]
 8002d6a:	015b      	lsls	r3, r3, #5
 8002d6c:	461a      	mov	r2, r3
 8002d6e:	9b01      	ldr	r3, [sp, #4]
 8002d70:	f8d3 30dc 	ldr.w	r3, [r3, #220]	; 0xdc
 8002d74:	6adb      	ldr	r3, [r3, #44]	; 0x2c
 8002d76:	4413      	add	r3, r2
 8002d78:	f603 1308 	addw	r3, r3, #2312	; 0x908
 8002d7c:	681b      	ldr	r3, [r3, #0]
 8002d7e:	f003 0301 	and.w	r3, r3, #1
 8002d82:	2b00      	cmp	r3, #0
 8002d84:	d025      	beq.n	8002dd2 <dwc_poll+0xb6>
 8002d86:	9901      	ldr	r1, [sp, #4]
 8002d88:	9a07      	ldr	r2, [sp, #28]
 8002d8a:	4613      	mov	r3, r2
 8002d8c:	005b      	lsls	r3, r3, #1
 8002d8e:	4413      	add	r3, r2
 8002d90:	009b      	lsls	r3, r3, #2
 8002d92:	440b      	add	r3, r1
 8002d94:	3368      	adds	r3, #104	; 0x68
 8002d96:	681b      	ldr	r3, [r3, #0]
 8002d98:	2b00      	cmp	r3, #0
 8002d9a:	d00d      	beq.n	8002db8 <dwc_poll+0x9c>
 8002d9c:	9901      	ldr	r1, [sp, #4]
 8002d9e:	9a07      	ldr	r2, [sp, #28]
 8002da0:	4613      	mov	r3, r2
 8002da2:	005b      	lsls	r3, r3, #1
 8002da4:	4413      	add	r3, r2
 8002da6:	009b      	lsls	r3, r3, #2
 8002da8:	440b      	add	r3, r1
 8002daa:	3368      	adds	r3, #104	; 0x68
 8002dac:	681b      	ldr	r3, [r3, #0]
 8002dae:	9a07      	ldr	r2, [sp, #28]
 8002db0:	b2d2      	uxtb	r2, r2
 8002db2:	4611      	mov	r1, r2
 8002db4:	9801      	ldr	r0, [sp, #4]
 8002db6:	4798      	blx	r3
 8002db8:	9b07      	ldr	r3, [sp, #28]
 8002dba:	015b      	lsls	r3, r3, #5
 8002dbc:	461a      	mov	r2, r3
 8002dbe:	9b01      	ldr	r3, [sp, #4]
 8002dc0:	f8d3 30dc 	ldr.w	r3, [r3, #220]	; 0xdc
 8002dc4:	6adb      	ldr	r3, [r3, #44]	; 0x2c
 8002dc6:	4413      	add	r3, r2
 8002dc8:	f603 1308 	addw	r3, r3, #2312	; 0x908
 8002dcc:	461a      	mov	r2, r3
 8002dce:	2301      	movs	r3, #1
 8002dd0:	6013      	str	r3, [r2, #0]
 8002dd2:	9b07      	ldr	r3, [sp, #28]
 8002dd4:	3301      	adds	r3, #1
 8002dd6:	9307      	str	r3, [sp, #28]
 8002dd8:	9b07      	ldr	r3, [sp, #28]
 8002dda:	2b03      	cmp	r3, #3
 8002ddc:	ddc4      	ble.n	8002d68 <dwc_poll+0x4c>
 8002dde:	9b05      	ldr	r3, [sp, #20]
 8002de0:	f003 0310 	and.w	r3, r3, #16
 8002de4:	2b00      	cmp	r3, #0
 8002de6:	f000 80e0 	beq.w	8002faa <dwc_poll+0x28e>
 8002dea:	9b01      	ldr	r3, [sp, #4]
 8002dec:	f8d3 30dc 	ldr.w	r3, [r3, #220]	; 0xdc
 8002df0:	6adb      	ldr	r3, [r3, #44]	; 0x2c
 8002df2:	3320      	adds	r3, #32
 8002df4:	681b      	ldr	r3, [r3, #0]
 8002df6:	9304      	str	r3, [sp, #16]
 8002df8:	9b04      	ldr	r3, [sp, #16]
 8002dfa:	f403 13f0 	and.w	r3, r3, #1966080	; 0x1e0000
 8002dfe:	9303      	str	r3, [sp, #12]
 8002e00:	9b04      	ldr	r3, [sp, #16]
 8002e02:	b2db      	uxtb	r3, r3
 8002e04:	f003 030f 	and.w	r3, r3, #15
 8002e08:	f88d 300b 	strb.w	r3, [sp, #11]
 8002e0c:	9b03      	ldr	r3, [sp, #12]
 8002e0e:	f5b3 2f00 	cmp.w	r3, #524288	; 0x80000
 8002e12:	d10e      	bne.n	8002e32 <dwc_poll+0x116>
 8002e14:	f89d 200b 	ldrb.w	r2, [sp, #11]
 8002e18:	9901      	ldr	r1, [sp, #4]
 8002e1a:	4613      	mov	r3, r2
 8002e1c:	005b      	lsls	r3, r3, #1
 8002e1e:	4413      	add	r3, r2
 8002e20:	009b      	lsls	r3, r3, #2
 8002e22:	440b      	add	r3, r1
 8002e24:	3370      	adds	r3, #112	; 0x70
 8002e26:	681b      	ldr	r3, [r3, #0]
 8002e28:	f89d 200b 	ldrb.w	r2, [sp, #11]
 8002e2c:	4611      	mov	r1, r2
 8002e2e:	9801      	ldr	r0, [sp, #4]
 8002e30:	4798      	blx	r3
 8002e32:	9b03      	ldr	r3, [sp, #12]
 8002e34:	f5b3 2fc0 	cmp.w	r3, #393216	; 0x60000
 8002e38:	d003      	beq.n	8002e42 <dwc_poll+0x126>
 8002e3a:	9b03      	ldr	r3, [sp, #12]
 8002e3c:	f5b3 2f00 	cmp.w	r3, #524288	; 0x80000
 8002e40:	d137      	bne.n	8002eb2 <dwc_poll+0x196>
 8002e42:	f89d 200b 	ldrb.w	r2, [sp, #11]
 8002e46:	f89d 300b 	ldrb.w	r3, [sp, #11]
 8002e4a:	015b      	lsls	r3, r3, #5
 8002e4c:	4619      	mov	r1, r3
 8002e4e:	9b01      	ldr	r3, [sp, #4]
 8002e50:	f8d3 30dc 	ldr.w	r3, [r3, #220]	; 0xdc
 8002e54:	6adb      	ldr	r3, [r3, #44]	; 0x2c
 8002e56:	440b      	add	r3, r1
 8002e58:	f503 6331 	add.w	r3, r3, #2832	; 0xb10
 8002e5c:	4619      	mov	r1, r3
 8002e5e:	9b01      	ldr	r3, [sp, #4]
 8002e60:	323a      	adds	r2, #58	; 0x3a
 8002e62:	f853 3022 	ldr.w	r3, [r3, r2, lsl #2]
 8002e66:	600b      	str	r3, [r1, #0]
 8002e68:	f89d 300b 	ldrb.w	r3, [sp, #11]
 8002e6c:	3358      	adds	r3, #88	; 0x58
 8002e6e:	015b      	lsls	r3, r3, #5
 8002e70:	461a      	mov	r2, r3
 8002e72:	9b01      	ldr	r3, [sp, #4]
 8002e74:	f8d3 30dc 	ldr.w	r3, [r3, #220]	; 0xdc
 8002e78:	6adb      	ldr	r3, [r3, #44]	; 0x2c
 8002e7a:	4413      	add	r3, r2
 8002e7c:	681b      	ldr	r3, [r3, #0]
 8002e7e:	f89d 200b 	ldrb.w	r2, [sp, #11]
 8002e82:	9901      	ldr	r1, [sp, #4]
 8002e84:	440a      	add	r2, r1
 8002e86:	f892 20e4 	ldrb.w	r2, [r2, #228]	; 0xe4
 8002e8a:	2a00      	cmp	r2, #0
 8002e8c:	d002      	beq.n	8002e94 <dwc_poll+0x178>
 8002e8e:	f04f 4208 	mov.w	r2, #2281701376	; 0x88000000
 8002e92:	e001      	b.n	8002e98 <dwc_poll+0x17c>
 8002e94:	f04f 4204 	mov.w	r2, #2214592512	; 0x84000000
 8002e98:	f89d 100b 	ldrb.w	r1, [sp, #11]
 8002e9c:	3158      	adds	r1, #88	; 0x58
 8002e9e:	0149      	lsls	r1, r1, #5
 8002ea0:	4608      	mov	r0, r1
 8002ea2:	9901      	ldr	r1, [sp, #4]
 8002ea4:	f8d1 10dc 	ldr.w	r1, [r1, #220]	; 0xdc
 8002ea8:	6ac9      	ldr	r1, [r1, #44]	; 0x2c
 8002eaa:	4401      	add	r1, r0
 8002eac:	4313      	orrs	r3, r2
 8002eae:	600b      	str	r3, [r1, #0]
 8002eb0:	e0da      	b.n	8003068 <dwc_poll+0x34c>
 8002eb2:	9b03      	ldr	r3, [sp, #12]
 8002eb4:	f5b3 2f80 	cmp.w	r3, #262144	; 0x40000
 8002eb8:	d004      	beq.n	8002ec4 <dwc_poll+0x1a8>
 8002eba:	9b03      	ldr	r3, [sp, #12]
 8002ebc:	f5b3 2f40 	cmp.w	r3, #786432	; 0xc0000
 8002ec0:	f040 80d1 	bne.w	8003066 <dwc_poll+0x34a>
 8002ec4:	9b03      	ldr	r3, [sp, #12]
 8002ec6:	f5b3 2f40 	cmp.w	r3, #786432	; 0xc0000
 8002eca:	d103      	bne.n	8002ed4 <dwc_poll+0x1b8>
 8002ecc:	2302      	movs	r3, #2
 8002ece:	f88d 301b 	strb.w	r3, [sp, #27]
 8002ed2:	e002      	b.n	8002eda <dwc_poll+0x1be>
 8002ed4:	2301      	movs	r3, #1
 8002ed6:	f88d 301b 	strb.w	r3, [sp, #27]
 8002eda:	f89d 301b 	ldrb.w	r3, [sp, #27]
 8002ede:	2b02      	cmp	r3, #2
 8002ee0:	d115      	bne.n	8002f0e <dwc_poll+0x1f2>
 8002ee2:	f89d 300b 	ldrb.w	r3, [sp, #11]
 8002ee6:	015b      	lsls	r3, r3, #5
 8002ee8:	461a      	mov	r2, r3
 8002eea:	9b01      	ldr	r3, [sp, #4]
 8002eec:	f8d3 30dc 	ldr.w	r3, [r3, #220]	; 0xdc
 8002ef0:	6adb      	ldr	r3, [r3, #44]	; 0x2c
 8002ef2:	4413      	add	r3, r2
 8002ef4:	f503 6311 	add.w	r3, r3, #2320	; 0x910
 8002ef8:	681b      	ldr	r3, [r3, #0]
 8002efa:	f403 2300 	and.w	r3, r3, #524288	; 0x80000
 8002efe:	2b00      	cmp	r3, #0
 8002f00:	d005      	beq.n	8002f0e <dwc_poll+0x1f2>
 8002f02:	f89d 300b 	ldrb.w	r3, [sp, #11]
 8002f06:	4619      	mov	r1, r3
 8002f08:	9801      	ldr	r0, [sp, #4]
 8002f0a:	f7ff fea2 	bl	8002c52 <dwc_flush_txfifo>
 8002f0e:	9b04      	ldr	r3, [sp, #16]
 8002f10:	091b      	lsrs	r3, r3, #4
 8002f12:	b29b      	uxth	r3, r3
 8002f14:	f3c3 030a 	ubfx	r3, r3, #0, #11
 8002f18:	b29a      	uxth	r2, r3
 8002f1a:	9b01      	ldr	r3, [sp, #4]
 8002f1c:	f8a3 20f8 	strh.w	r2, [r3, #248]	; 0xf8
 8002f20:	f89d 301b 	ldrb.w	r3, [sp, #27]
 8002f24:	2b02      	cmp	r3, #2
 8002f26:	d109      	bne.n	8002f3c <dwc_poll+0x220>
 8002f28:	9b01      	ldr	r3, [sp, #4]
 8002f2a:	f103 0230 	add.w	r2, r3, #48	; 0x30
 8002f2e:	f89d 100b 	ldrb.w	r1, [sp, #11]
 8002f32:	2308      	movs	r3, #8
 8002f34:	9801      	ldr	r0, [sp, #4]
 8002f36:	f7ff fe2e 	bl	8002b96 <dwc_ep_read_packet>
 8002f3a:	e01e      	b.n	8002f7a <dwc_poll+0x25e>
 8002f3c:	f89d 200b 	ldrb.w	r2, [sp, #11]
 8002f40:	f89d 001b 	ldrb.w	r0, [sp, #27]
 8002f44:	9901      	ldr	r1, [sp, #4]
 8002f46:	4613      	mov	r3, r2
 8002f48:	005b      	lsls	r3, r3, #1
 8002f4a:	4413      	add	r3, r2
 8002f4c:	4403      	add	r3, r0
 8002f4e:	331a      	adds	r3, #26
 8002f50:	f851 3023 	ldr.w	r3, [r1, r3, lsl #2]
 8002f54:	2b00      	cmp	r3, #0
 8002f56:	d010      	beq.n	8002f7a <dwc_poll+0x25e>
 8002f58:	f89d 200b 	ldrb.w	r2, [sp, #11]
 8002f5c:	f89d 001b 	ldrb.w	r0, [sp, #27]
 8002f60:	9901      	ldr	r1, [sp, #4]
 8002f62:	4613      	mov	r3, r2
 8002f64:	005b      	lsls	r3, r3, #1
 8002f66:	4413      	add	r3, r2
 8002f68:	4403      	add	r3, r0
 8002f6a:	331a      	adds	r3, #26
 8002f6c:	f851 3023 	ldr.w	r3, [r1, r3, lsl #2]
 8002f70:	f89d 200b 	ldrb.w	r2, [sp, #11]
 8002f74:	4611      	mov	r1, r2
 8002f76:	9801      	ldr	r0, [sp, #4]
 8002f78:	4798      	blx	r3
 8002f7a:	2300      	movs	r3, #0
 8002f7c:	9307      	str	r3, [sp, #28]
 8002f7e:	e009      	b.n	8002f94 <dwc_poll+0x278>
 8002f80:	9b01      	ldr	r3, [sp, #4]
 8002f82:	f8d3 30dc 	ldr.w	r3, [r3, #220]	; 0xdc
 8002f86:	6adb      	ldr	r3, [r3, #44]	; 0x2c
 8002f88:	f503 5380 	add.w	r3, r3, #4096	; 0x1000
 8002f8c:	681b      	ldr	r3, [r3, #0]
 8002f8e:	9b07      	ldr	r3, [sp, #28]
 8002f90:	3304      	adds	r3, #4
 8002f92:	9307      	str	r3, [sp, #28]
 8002f94:	9b01      	ldr	r3, [sp, #4]
 8002f96:	f8b3 30f8 	ldrh.w	r3, [r3, #248]	; 0xf8
 8002f9a:	461a      	mov	r2, r3
 8002f9c:	9b07      	ldr	r3, [sp, #28]
 8002f9e:	4293      	cmp	r3, r2
 8002fa0:	dbee      	blt.n	8002f80 <dwc_poll+0x264>
 8002fa2:	9b01      	ldr	r3, [sp, #4]
 8002fa4:	2200      	movs	r2, #0
 8002fa6:	f8a3 20f8 	strh.w	r2, [r3, #248]	; 0xf8
 8002faa:	9b05      	ldr	r3, [sp, #20]
 8002fac:	f403 6300 	and.w	r3, r3, #2048	; 0x800
 8002fb0:	2b00      	cmp	r3, #0
 8002fb2:	d00f      	beq.n	8002fd4 <dwc_poll+0x2b8>
 8002fb4:	9b01      	ldr	r3, [sp, #4]
 8002fb6:	6a1b      	ldr	r3, [r3, #32]
 8002fb8:	2b00      	cmp	r3, #0
 8002fba:	d002      	beq.n	8002fc2 <dwc_poll+0x2a6>
 8002fbc:	9b01      	ldr	r3, [sp, #4]
 8002fbe:	6a1b      	ldr	r3, [r3, #32]
 8002fc0:	4798      	blx	r3
 8002fc2:	9b01      	ldr	r3, [sp, #4]
 8002fc4:	f8d3 30dc 	ldr.w	r3, [r3, #220]	; 0xdc
 8002fc8:	6adb      	ldr	r3, [r3, #44]	; 0x2c
 8002fca:	3314      	adds	r3, #20
 8002fcc:	461a      	mov	r2, r3
 8002fce:	f44f 6300 	mov.w	r3, #2048	; 0x800
 8002fd2:	6013      	str	r3, [r2, #0]
 8002fd4:	9b05      	ldr	r3, [sp, #20]
 8002fd6:	2b00      	cmp	r3, #0
 8002fd8:	da0f      	bge.n	8002ffa <dwc_poll+0x2de>
 8002fda:	9b01      	ldr	r3, [sp, #4]
 8002fdc:	6a5b      	ldr	r3, [r3, #36]	; 0x24
 8002fde:	2b00      	cmp	r3, #0
 8002fe0:	d002      	beq.n	8002fe8 <dwc_poll+0x2cc>
 8002fe2:	9b01      	ldr	r3, [sp, #4]
 8002fe4:	6a5b      	ldr	r3, [r3, #36]	; 0x24
 8002fe6:	4798      	blx	r3
 8002fe8:	9b01      	ldr	r3, [sp, #4]
 8002fea:	f8d3 30dc 	ldr.w	r3, [r3, #220]	; 0xdc
 8002fee:	6adb      	ldr	r3, [r3, #44]	; 0x2c
 8002ff0:	3314      	adds	r3, #20
 8002ff2:	461a      	mov	r2, r3
 8002ff4:	f04f 4300 	mov.w	r3, #2147483648	; 0x80000000
 8002ff8:	6013      	str	r3, [r2, #0]
 8002ffa:	9b05      	ldr	r3, [sp, #20]
 8002ffc:	f003 0308 	and.w	r3, r3, #8
 8003000:	2b00      	cmp	r3, #0
 8003002:	d00e      	beq.n	8003022 <dwc_poll+0x306>
 8003004:	9b01      	ldr	r3, [sp, #4]
 8003006:	6a9b      	ldr	r3, [r3, #40]	; 0x28
 8003008:	2b00      	cmp	r3, #0
 800300a:	d002      	beq.n	8003012 <dwc_poll+0x2f6>
 800300c:	9b01      	ldr	r3, [sp, #4]
 800300e:	6a9b      	ldr	r3, [r3, #40]	; 0x28
 8003010:	4798      	blx	r3
 8003012:	9b01      	ldr	r3, [sp, #4]
 8003014:	f8d3 30dc 	ldr.w	r3, [r3, #220]	; 0xdc
 8003018:	6adb      	ldr	r3, [r3, #44]	; 0x2c
 800301a:	3314      	adds	r3, #20
 800301c:	461a      	mov	r2, r3
 800301e:	2308      	movs	r3, #8
 8003020:	6013      	str	r3, [r2, #0]
 8003022:	9b01      	ldr	r3, [sp, #4]
 8003024:	6a9b      	ldr	r3, [r3, #40]	; 0x28
 8003026:	2b00      	cmp	r3, #0
 8003028:	d00e      	beq.n	8003048 <dwc_poll+0x32c>
 800302a:	9b01      	ldr	r3, [sp, #4]
 800302c:	f8d3 30dc 	ldr.w	r3, [r3, #220]	; 0xdc
 8003030:	6adb      	ldr	r3, [r3, #44]	; 0x2c
 8003032:	3318      	adds	r3, #24
 8003034:	681b      	ldr	r3, [r3, #0]
 8003036:	9a01      	ldr	r2, [sp, #4]
 8003038:	f8d2 20dc 	ldr.w	r2, [r2, #220]	; 0xdc
 800303c:	6ad2      	ldr	r2, [r2, #44]	; 0x2c
 800303e:	3218      	adds	r2, #24
 8003040:	f043 0308 	orr.w	r3, r3, #8
 8003044:	6013      	str	r3, [r2, #0]
 8003046:	e00f      	b.n	8003068 <dwc_poll+0x34c>
 8003048:	9b01      	ldr	r3, [sp, #4]
 800304a:	f8d3 30dc 	ldr.w	r3, [r3, #220]	; 0xdc
 800304e:	6adb      	ldr	r3, [r3, #44]	; 0x2c
 8003050:	3318      	adds	r3, #24
 8003052:	681b      	ldr	r3, [r3, #0]
 8003054:	9a01      	ldr	r2, [sp, #4]
 8003056:	f8d2 20dc 	ldr.w	r2, [r2, #220]	; 0xdc
 800305a:	6ad2      	ldr	r2, [r2, #44]	; 0x2c
 800305c:	3218      	adds	r2, #24
 800305e:	f023 0308 	bic.w	r3, r3, #8
 8003062:	6013      	str	r3, [r2, #0]
 8003064:	e000      	b.n	8003068 <dwc_poll+0x34c>
 8003066:	bf00      	nop
 8003068:	b009      	add	sp, #36	; 0x24
 800306a:	f85d fb04 	ldr.w	pc, [sp], #4

0800306e <dwc_disconnect>:
 800306e:	b082      	sub	sp, #8
 8003070:	9001      	str	r0, [sp, #4]
 8003072:	460b      	mov	r3, r1
 8003074:	f88d 3003 	strb.w	r3, [sp, #3]
 8003078:	f89d 3003 	ldrb.w	r3, [sp, #3]
 800307c:	2b00      	cmp	r3, #0
 800307e:	d010      	beq.n	80030a2 <dwc_disconnect+0x34>
 8003080:	9b01      	ldr	r3, [sp, #4]
 8003082:	f8d3 30dc 	ldr.w	r3, [r3, #220]	; 0xdc
 8003086:	6adb      	ldr	r3, [r3, #44]	; 0x2c
 8003088:	f603 0304 	addw	r3, r3, #2052	; 0x804
 800308c:	681b      	ldr	r3, [r3, #0]
 800308e:	9a01      	ldr	r2, [sp, #4]
 8003090:	f8d2 20dc 	ldr.w	r2, [r2, #220]	; 0xdc
 8003094:	6ad2      	ldr	r2, [r2, #44]	; 0x2c
 8003096:	f602 0204 	addw	r2, r2, #2052	; 0x804
 800309a:	f043 0302 	orr.w	r3, r3, #2
 800309e:	6013      	str	r3, [r2, #0]
 80030a0:	e00f      	b.n	80030c2 <dwc_disconnect+0x54>
 80030a2:	9b01      	ldr	r3, [sp, #4]
 80030a4:	f8d3 30dc 	ldr.w	r3, [r3, #220]	; 0xdc
 80030a8:	6adb      	ldr	r3, [r3, #44]	; 0x2c
 80030aa:	f603 0304 	addw	r3, r3, #2052	; 0x804
 80030ae:	681b      	ldr	r3, [r3, #0]
 80030b0:	9a01      	ldr	r2, [sp, #4]
 80030b2:	f8d2 20dc 	ldr.w	r2, [r2, #220]	; 0xdc
 80030b6:	6ad2      	ldr	r2, [r2, #44]	; 0x2c
 80030b8:	f602 0204 	addw	r2, r2, #2052	; 0x804
 80030bc:	f023 0302 	bic.w	r3, r3, #2
 80030c0:	6013      	str	r3, [r2, #0]
 80030c2:	bf00      	nop
 80030c4:	b002      	add	sp, #8
 80030c6:	4770      	bx	lr

080030c8 <stm32f107_usbd_init>:
 80030c8:	b508      	push	{r3, lr}
 80030ca:	f240 6087 	movw	r0, #1671	; 0x687
 80030ce:	f7fd f873 	bl	80001b8 <rcc_periph_clock_enable>
 80030d2:	4b2e      	ldr	r3, [pc, #184]	; (800318c <stm32f107_usbd_init+0xc4>)
 80030d4:	681b      	ldr	r3, [r3, #0]
 80030d6:	4a2d      	ldr	r2, [pc, #180]	; (800318c <stm32f107_usbd_init+0xc4>)
 80030d8:	f043 0340 	orr.w	r3, r3, #64	; 0x40
 80030dc:	6013      	str	r3, [r2, #0]
 80030de:	bf00      	nop
 80030e0:	4b2b      	ldr	r3, [pc, #172]	; (8003190 <stm32f107_usbd_init+0xc8>)
 80030e2:	681b      	ldr	r3, [r3, #0]
 80030e4:	2b00      	cmp	r3, #0
 80030e6:	dafb      	bge.n	80030e0 <stm32f107_usbd_init+0x18>
 80030e8:	4b29      	ldr	r3, [pc, #164]	; (8003190 <stm32f107_usbd_init+0xc8>)
 80030ea:	681b      	ldr	r3, [r3, #0]
 80030ec:	4a28      	ldr	r2, [pc, #160]	; (8003190 <stm32f107_usbd_init+0xc8>)
 80030ee:	f043 0301 	orr.w	r3, r3, #1
 80030f2:	6013      	str	r3, [r2, #0]
 80030f4:	bf00      	nop
 80030f6:	4b26      	ldr	r3, [pc, #152]	; (8003190 <stm32f107_usbd_init+0xc8>)
 80030f8:	681b      	ldr	r3, [r3, #0]
 80030fa:	f003 0301 	and.w	r3, r3, #1
 80030fe:	2b00      	cmp	r3, #0
 8003100:	d1f9      	bne.n	80030f6 <stm32f107_usbd_init+0x2e>
 8003102:	4b24      	ldr	r3, [pc, #144]	; (8003194 <stm32f107_usbd_init+0xcc>)
 8003104:	681b      	ldr	r3, [r3, #0]
 8003106:	f5b3 5f00 	cmp.w	r3, #8192	; 0x2000
 800310a:	d306      	bcc.n	800311a <stm32f107_usbd_init+0x52>
 800310c:	4b22      	ldr	r3, [pc, #136]	; (8003198 <stm32f107_usbd_init+0xd0>)
 800310e:	681b      	ldr	r3, [r3, #0]
 8003110:	4a21      	ldr	r2, [pc, #132]	; (8003198 <stm32f107_usbd_init+0xd0>)
 8003112:	f443 1304 	orr.w	r3, r3, #2162688	; 0x210000
 8003116:	6013      	str	r3, [r2, #0]
 8003118:	e005      	b.n	8003126 <stm32f107_usbd_init+0x5e>
 800311a:	4b1f      	ldr	r3, [pc, #124]	; (8003198 <stm32f107_usbd_init+0xd0>)
 800311c:	681b      	ldr	r3, [r3, #0]
 800311e:	4a1e      	ldr	r2, [pc, #120]	; (8003198 <stm32f107_usbd_init+0xd0>)
 8003120:	f443 2310 	orr.w	r3, r3, #589824	; 0x90000
 8003124:	6013      	str	r3, [r2, #0]
 8003126:	4b1d      	ldr	r3, [pc, #116]	; (800319c <stm32f107_usbd_init+0xd4>)
 8003128:	681b      	ldr	r3, [r3, #0]
 800312a:	4a1c      	ldr	r2, [pc, #112]	; (800319c <stm32f107_usbd_init+0xd4>)
 800312c:	f023 0302 	bic.w	r3, r3, #2
 8003130:	6013      	str	r3, [r2, #0]
 8003132:	4b16      	ldr	r3, [pc, #88]	; (800318c <stm32f107_usbd_init+0xc4>)
 8003134:	681b      	ldr	r3, [r3, #0]
 8003136:	4a15      	ldr	r2, [pc, #84]	; (800318c <stm32f107_usbd_init+0xc4>)
 8003138:	f043 4380 	orr.w	r3, r3, #1073741824	; 0x40000000
 800313c:	f443 5370 	orr.w	r3, r3, #15360	; 0x3c00
 8003140:	6013      	str	r3, [r2, #0]
 8003142:	4b17      	ldr	r3, [pc, #92]	; (80031a0 <stm32f107_usbd_init+0xd8>)
 8003144:	2202      	movs	r2, #2
 8003146:	601a      	str	r2, [r3, #0]
 8003148:	4b16      	ldr	r3, [pc, #88]	; (80031a4 <stm32f107_usbd_init+0xdc>)
 800314a:	681b      	ldr	r3, [r3, #0]
 800314c:	4a15      	ldr	r2, [pc, #84]	; (80031a4 <stm32f107_usbd_init+0xdc>)
 800314e:	f043 0303 	orr.w	r3, r3, #3
 8003152:	6013      	str	r3, [r2, #0]
 8003154:	4b14      	ldr	r3, [pc, #80]	; (80031a8 <stm32f107_usbd_init+0xe0>)
 8003156:	2200      	movs	r2, #0
 8003158:	601a      	str	r2, [r3, #0]
 800315a:	2280      	movs	r2, #128	; 0x80
 800315c:	4b13      	ldr	r3, [pc, #76]	; (80031ac <stm32f107_usbd_init+0xe4>)
 800315e:	601a      	str	r2, [r3, #0]
 8003160:	2280      	movs	r2, #128	; 0x80
 8003162:	4b13      	ldr	r3, [pc, #76]	; (80031b0 <stm32f107_usbd_init+0xe8>)
 8003164:	f8a3 20e0 	strh.w	r2, [r3, #224]	; 0xe0
 8003168:	4b12      	ldr	r3, [pc, #72]	; (80031b4 <stm32f107_usbd_init+0xec>)
 800316a:	681b      	ldr	r3, [r3, #0]
 800316c:	4a11      	ldr	r2, [pc, #68]	; (80031b4 <stm32f107_usbd_init+0xec>)
 800316e:	f043 0301 	orr.w	r3, r3, #1
 8003172:	6013      	str	r3, [r2, #0]
 8003174:	4b10      	ldr	r3, [pc, #64]	; (80031b8 <stm32f107_usbd_init+0xf0>)
 8003176:	4a11      	ldr	r2, [pc, #68]	; (80031bc <stm32f107_usbd_init+0xf4>)
 8003178:	601a      	str	r2, [r3, #0]
 800317a:	4b11      	ldr	r3, [pc, #68]	; (80031c0 <stm32f107_usbd_init+0xf8>)
 800317c:	220f      	movs	r2, #15
 800317e:	601a      	str	r2, [r3, #0]
 8003180:	4b10      	ldr	r3, [pc, #64]	; (80031c4 <stm32f107_usbd_init+0xfc>)
 8003182:	2201      	movs	r2, #1
 8003184:	601a      	str	r2, [r3, #0]
 8003186:	4b0a      	ldr	r3, [pc, #40]	; (80031b0 <stm32f107_usbd_init+0xe8>)
 8003188:	4618      	mov	r0, r3
 800318a:	bd08      	pop	{r3, pc}
 800318c:	5000000c 	.word	0x5000000c
 8003190:	50000010 	.word	0x50000010
 8003194:	5000003c 	.word	0x5000003c
 8003198:	50000038 	.word	0x50000038
 800319c:	50000804 	.word	0x50000804
 80031a0:	50000014 	.word	0x50000014
 80031a4:	50000800 	.word	0x50000800
 80031a8:	50000e00 	.word	0x50000e00
 80031ac:	50000024 	.word	0x50000024
 80031b0:	200001c8 	.word	0x200001c8
 80031b4:	50000008 	.word	0x50000008
 80031b8:	50000018 	.word	0x50000018
 80031bc:	80042810 	.word	0x80042810
 80031c0:	5000081c 	.word	0x5000081c
 80031c4:	50000810 	.word	0x50000810

080031c8 <_init_data>:
 80031c8:	b082      	sub	sp, #8
 80031ca:	4b10      	ldr	r3, [pc, #64]	; (800320c <_init_data+0x44>)
 80031cc:	9301      	str	r3, [sp, #4]
 80031ce:	4b10      	ldr	r3, [pc, #64]	; (8003210 <_init_data+0x48>)
 80031d0:	9300      	str	r3, [sp, #0]
 80031d2:	e007      	b.n	80031e4 <_init_data+0x1c>
 80031d4:	9a01      	ldr	r2, [sp, #4]
 80031d6:	1d13      	adds	r3, r2, #4
 80031d8:	9301      	str	r3, [sp, #4]
 80031da:	9b00      	ldr	r3, [sp, #0]
 80031dc:	1d19      	adds	r1, r3, #4
 80031de:	9100      	str	r1, [sp, #0]
 80031e0:	6812      	ldr	r2, [r2, #0]
 80031e2:	601a      	str	r2, [r3, #0]
 80031e4:	9b00      	ldr	r3, [sp, #0]
 80031e6:	4a0b      	ldr	r2, [pc, #44]	; (8003214 <_init_data+0x4c>)
 80031e8:	4293      	cmp	r3, r2
 80031ea:	d3f3      	bcc.n	80031d4 <_init_data+0xc>
 80031ec:	4b0a      	ldr	r3, [pc, #40]	; (8003218 <_init_data+0x50>)
 80031ee:	9300      	str	r3, [sp, #0]
 80031f0:	e005      	b.n	80031fe <_init_data+0x36>
 80031f2:	9b00      	ldr	r3, [sp, #0]
 80031f4:	2200      	movs	r2, #0
 80031f6:	601a      	str	r2, [r3, #0]
 80031f8:	9b00      	ldr	r3, [sp, #0]
 80031fa:	3304      	adds	r3, #4
 80031fc:	9300      	str	r3, [sp, #0]
 80031fe:	9b00      	ldr	r3, [sp, #0]
 8003200:	4a06      	ldr	r2, [pc, #24]	; (800321c <_init_data+0x54>)
 8003202:	4293      	cmp	r3, r2
 8003204:	d3f5      	bcc.n	80031f2 <_init_data+0x2a>
 8003206:	bf00      	nop
 8003208:	b002      	add	sp, #8
 800320a:	4770      	bx	lr
 800320c:	08006638 	.word	0x08006638
 8003210:	20000000 	.word	0x20000000
 8003214:	20000084 	.word	0x20000084
 8003218:	20000084 	.word	0x20000084
 800321c:	200002d4 	.word	0x200002d4

08003220 <Reset_Handler>:
 8003220:	b508      	push	{r3, lr}
 8003222:	f7ff ffd1 	bl	80031c8 <_init_data>
 8003226:	4b06      	ldr	r3, [pc, #24]	; (8003240 <Reset_Handler+0x20>)
 8003228:	f8d3 3088 	ldr.w	r3, [r3, #136]	; 0x88
 800322c:	4a04      	ldr	r2, [pc, #16]	; (8003240 <Reset_Handler+0x20>)
 800322e:	f443 0370 	orr.w	r3, r3, #15728640	; 0xf00000
 8003232:	f8c2 3088 	str.w	r3, [r2, #136]	; 0x88
 8003236:	f000 f805 	bl	8003244 <reset_clock>
 800323a:	f7fd fba3 	bl	8000984 <main>
 800323e:	e7fe      	b.n	800323e <Reset_Handler+0x1e>
 8003240:	e000ed00 	.word	0xe000ed00

08003244 <reset_clock>:
 8003244:	4b0d      	ldr	r3, [pc, #52]	; (800327c <reset_clock+0x38>)
 8003246:	2201      	movs	r2, #1
 8003248:	601a      	str	r2, [r3, #0]
 800324a:	4b0c      	ldr	r3, [pc, #48]	; (800327c <reset_clock+0x38>)
 800324c:	2200      	movs	r2, #0
 800324e:	609a      	str	r2, [r3, #8]
 8003250:	4b0a      	ldr	r3, [pc, #40]	; (800327c <reset_clock+0x38>)
 8003252:	681b      	ldr	r3, [r3, #0]
 8003254:	4a09      	ldr	r2, [pc, #36]	; (800327c <reset_clock+0x38>)
 8003256:	f023 7384 	bic.w	r3, r3, #17301504	; 0x1080000
 800325a:	f423 3380 	bic.w	r3, r3, #65536	; 0x10000
 800325e:	6013      	str	r3, [r2, #0]
 8003260:	4b06      	ldr	r3, [pc, #24]	; (800327c <reset_clock+0x38>)
 8003262:	4a07      	ldr	r2, [pc, #28]	; (8003280 <reset_clock+0x3c>)
 8003264:	605a      	str	r2, [r3, #4]
 8003266:	4b05      	ldr	r3, [pc, #20]	; (800327c <reset_clock+0x38>)
 8003268:	681b      	ldr	r3, [r3, #0]
 800326a:	4a04      	ldr	r2, [pc, #16]	; (800327c <reset_clock+0x38>)
 800326c:	f423 2380 	bic.w	r3, r3, #262144	; 0x40000
 8003270:	6013      	str	r3, [r2, #0]
 8003272:	4b02      	ldr	r3, [pc, #8]	; (800327c <reset_clock+0x38>)
 8003274:	2200      	movs	r2, #0
 8003276:	60da      	str	r2, [r3, #12]
 8003278:	bf00      	nop
 800327a:	4770      	bx	lr
 800327c:	40023800 	.word	0x40023800
 8003280:	24003010 	.word	0x24003010

08003284 <set_sysclk_to_168>:
 8003284:	b508      	push	{r3, lr}
 8003286:	f7ff ffdd 	bl	8003244 <reset_clock>
 800328a:	4b29      	ldr	r3, [pc, #164]	; (8003330 <set_sysclk_to_168+0xac>)
 800328c:	681b      	ldr	r3, [r3, #0]
 800328e:	4a28      	ldr	r2, [pc, #160]	; (8003330 <set_sysclk_to_168+0xac>)
 8003290:	f443 3380 	orr.w	r3, r3, #65536	; 0x10000
 8003294:	6013      	str	r3, [r2, #0]
 8003296:	bf00      	nop
 8003298:	4b25      	ldr	r3, [pc, #148]	; (8003330 <set_sysclk_to_168+0xac>)
 800329a:	681b      	ldr	r3, [r3, #0]
 800329c:	f403 3300 	and.w	r3, r3, #131072	; 0x20000
 80032a0:	2b00      	cmp	r3, #0
 80032a2:	d0f9      	beq.n	8003298 <set_sysclk_to_168+0x14>
 80032a4:	4b22      	ldr	r3, [pc, #136]	; (8003330 <set_sysclk_to_168+0xac>)
 80032a6:	6c1b      	ldr	r3, [r3, #64]	; 0x40
 80032a8:	4a21      	ldr	r2, [pc, #132]	; (8003330 <set_sysclk_to_168+0xac>)
 80032aa:	f043 5380 	orr.w	r3, r3, #268435456	; 0x10000000
 80032ae:	6413      	str	r3, [r2, #64]	; 0x40
 80032b0:	4b20      	ldr	r3, [pc, #128]	; (8003334 <set_sysclk_to_168+0xb0>)
 80032b2:	681b      	ldr	r3, [r3, #0]
 80032b4:	4a1f      	ldr	r2, [pc, #124]	; (8003334 <set_sysclk_to_168+0xb0>)
 80032b6:	f443 4380 	orr.w	r3, r3, #16384	; 0x4000
 80032ba:	6013      	str	r3, [r2, #0]
 80032bc:	4b1c      	ldr	r3, [pc, #112]	; (8003330 <set_sysclk_to_168+0xac>)
 80032be:	4a1c      	ldr	r2, [pc, #112]	; (8003330 <set_sysclk_to_168+0xac>)
 80032c0:	689b      	ldr	r3, [r3, #8]
 80032c2:	6093      	str	r3, [r2, #8]
 80032c4:	4b1a      	ldr	r3, [pc, #104]	; (8003330 <set_sysclk_to_168+0xac>)
 80032c6:	689b      	ldr	r3, [r3, #8]
 80032c8:	4a19      	ldr	r2, [pc, #100]	; (8003330 <set_sysclk_to_168+0xac>)
 80032ca:	f443 53a0 	orr.w	r3, r3, #5120	; 0x1400
 80032ce:	6093      	str	r3, [r2, #8]
 80032d0:	4b17      	ldr	r3, [pc, #92]	; (8003330 <set_sysclk_to_168+0xac>)
 80032d2:	689b      	ldr	r3, [r3, #8]
 80032d4:	4a16      	ldr	r2, [pc, #88]	; (8003330 <set_sysclk_to_168+0xac>)
 80032d6:	f443 4300 	orr.w	r3, r3, #32768	; 0x8000
 80032da:	6093      	str	r3, [r2, #8]
 80032dc:	4b14      	ldr	r3, [pc, #80]	; (8003330 <set_sysclk_to_168+0xac>)
 80032de:	4a16      	ldr	r2, [pc, #88]	; (8003338 <set_sysclk_to_168+0xb4>)
 80032e0:	605a      	str	r2, [r3, #4]
 80032e2:	4b13      	ldr	r3, [pc, #76]	; (8003330 <set_sysclk_to_168+0xac>)
 80032e4:	681b      	ldr	r3, [r3, #0]
 80032e6:	4a12      	ldr	r2, [pc, #72]	; (8003330 <set_sysclk_to_168+0xac>)
 80032e8:	f043 7380 	orr.w	r3, r3, #16777216	; 0x1000000
 80032ec:	6013      	str	r3, [r2, #0]
 80032ee:	bf00      	nop
 80032f0:	4b0f      	ldr	r3, [pc, #60]	; (8003330 <set_sysclk_to_168+0xac>)
 80032f2:	681b      	ldr	r3, [r3, #0]
 80032f4:	f003 7300 	and.w	r3, r3, #33554432	; 0x2000000
 80032f8:	2b00      	cmp	r3, #0
 80032fa:	d0f9      	beq.n	80032f0 <set_sysclk_to_168+0x6c>
 80032fc:	4b0f      	ldr	r3, [pc, #60]	; (800333c <set_sysclk_to_168+0xb8>)
 80032fe:	f240 7205 	movw	r2, #1797	; 0x705
 8003302:	601a      	str	r2, [r3, #0]
 8003304:	4b0a      	ldr	r3, [pc, #40]	; (8003330 <set_sysclk_to_168+0xac>)
 8003306:	689b      	ldr	r3, [r3, #8]
 8003308:	4a09      	ldr	r2, [pc, #36]	; (8003330 <set_sysclk_to_168+0xac>)
 800330a:	f023 0303 	bic.w	r3, r3, #3
 800330e:	6093      	str	r3, [r2, #8]
 8003310:	4b07      	ldr	r3, [pc, #28]	; (8003330 <set_sysclk_to_168+0xac>)
 8003312:	689b      	ldr	r3, [r3, #8]
 8003314:	4a06      	ldr	r2, [pc, #24]	; (8003330 <set_sysclk_to_168+0xac>)
 8003316:	f043 0302 	orr.w	r3, r3, #2
 800331a:	6093      	str	r3, [r2, #8]
 800331c:	bf00      	nop
 800331e:	4b04      	ldr	r3, [pc, #16]	; (8003330 <set_sysclk_to_168+0xac>)
 8003320:	689b      	ldr	r3, [r3, #8]
 8003322:	f003 0308 	and.w	r3, r3, #8
 8003326:	2b08      	cmp	r3, #8
 8003328:	d1f9      	bne.n	800331e <set_sysclk_to_168+0x9a>
 800332a:	bf00      	nop
 800332c:	bd08      	pop	{r3, pc}
 800332e:	bf00      	nop
 8003330:	40023800 	.word	0x40023800
 8003334:	40007000 	.word	0x40007000
 8003338:	07405408 	.word	0x07405408
 800333c:	40023c00 	.word	0x40023c00

08003340 <sin>:
 8003340:	b530      	push	{r4, r5, lr}
 8003342:	4a1f      	ldr	r2, [pc, #124]	; (80033c0 <sin+0x80>)
 8003344:	f021 4300 	bic.w	r3, r1, #2147483648	; 0x80000000
 8003348:	4293      	cmp	r3, r2
 800334a:	b087      	sub	sp, #28
 800334c:	dd1c      	ble.n	8003388 <sin+0x48>
 800334e:	4a1d      	ldr	r2, [pc, #116]	; (80033c4 <sin+0x84>)
 8003350:	4293      	cmp	r3, r2
 8003352:	dd05      	ble.n	8003360 <sin+0x20>
 8003354:	4602      	mov	r2, r0
 8003356:	460b      	mov	r3, r1
 8003358:	f002 fa68 	bl	800582c <__aeabi_dsub>
 800335c:	b007      	add	sp, #28
 800335e:	bd30      	pop	{r4, r5, pc}
 8003360:	aa02      	add	r2, sp, #8
 8003362:	f000 ff25 	bl	80041b0 <__ieee754_rem_pio2>
 8003366:	f000 0003 	and.w	r0, r0, #3
 800336a:	2801      	cmp	r0, #1
 800336c:	e9dd 2304 	ldrd	r2, r3, [sp, #16]
 8003370:	d012      	beq.n	8003398 <sin+0x58>
 8003372:	2802      	cmp	r0, #2
 8003374:	d01c      	beq.n	80033b0 <sin+0x70>
 8003376:	b1a0      	cbz	r0, 80033a2 <sin+0x62>
 8003378:	e9dd 0102 	ldrd	r0, r1, [sp, #8]
 800337c:	f001 f9fc 	bl	8004778 <__kernel_cos>
 8003380:	f101 4100 	add.w	r1, r1, #2147483648	; 0x80000000
 8003384:	b007      	add	sp, #28
 8003386:	bd30      	pop	{r4, r5, pc}
 8003388:	2300      	movs	r3, #0
 800338a:	9300      	str	r3, [sp, #0]
 800338c:	2200      	movs	r2, #0
 800338e:	2300      	movs	r3, #0
 8003390:	f001 ff1a 	bl	80051c8 <__kernel_sin>
 8003394:	b007      	add	sp, #28
 8003396:	bd30      	pop	{r4, r5, pc}
 8003398:	e9dd 0102 	ldrd	r0, r1, [sp, #8]
 800339c:	f001 f9ec 	bl	8004778 <__kernel_cos>
 80033a0:	e7dc      	b.n	800335c <sin+0x1c>
 80033a2:	2401      	movs	r4, #1
 80033a4:	e9dd 0102 	ldrd	r0, r1, [sp, #8]
 80033a8:	9400      	str	r4, [sp, #0]
 80033aa:	f001 ff0d 	bl	80051c8 <__kernel_sin>
 80033ae:	e7d5      	b.n	800335c <sin+0x1c>
 80033b0:	2401      	movs	r4, #1
 80033b2:	e9dd 0102 	ldrd	r0, r1, [sp, #8]
 80033b6:	9400      	str	r4, [sp, #0]
 80033b8:	f001 ff06 	bl	80051c8 <__kernel_sin>
 80033bc:	e7e0      	b.n	8003380 <sin+0x40>
 80033be:	bf00      	nop
 80033c0:	3fe921fb 	.word	0x3fe921fb
 80033c4:	7fefffff 	.word	0x7fefffff

080033c8 <pow>:
 80033c8:	e92d 4ff0 	stmdb	sp!, {r4, r5, r6, r7, r8, r9, sl, fp, lr}
 80033cc:	f8df 932c 	ldr.w	r9, [pc, #812]	; 80036fc <pow+0x334>
 80033d0:	b08d      	sub	sp, #52	; 0x34
 80033d2:	4606      	mov	r6, r0
 80033d4:	460f      	mov	r7, r1
 80033d6:	4614      	mov	r4, r2
 80033d8:	461d      	mov	r5, r3
 80033da:	f000 f995 	bl	8003708 <__ieee754_pow>
 80033de:	f999 8000 	ldrsb.w	r8, [r9]
 80033e2:	f1b8 3fff 	cmp.w	r8, #4294967295
 80033e6:	e9cd 0100 	strd	r0, r1, [sp]
 80033ea:	d036      	beq.n	800345a <pow+0x92>
 80033ec:	4622      	mov	r2, r4
 80033ee:	462b      	mov	r3, r5
 80033f0:	4620      	mov	r0, r4
 80033f2:	4629      	mov	r1, r5
 80033f4:	f002 fe6c 	bl	80060d0 <__aeabi_dcmpun>
 80033f8:	4683      	mov	fp, r0
 80033fa:	bb70      	cbnz	r0, 800345a <pow+0x92>
 80033fc:	4632      	mov	r2, r6
 80033fe:	463b      	mov	r3, r7
 8003400:	4630      	mov	r0, r6
 8003402:	4639      	mov	r1, r7
 8003404:	f002 fe64 	bl	80060d0 <__aeabi_dcmpun>
 8003408:	4682      	mov	sl, r0
 800340a:	2800      	cmp	r0, #0
 800340c:	f040 80a2 	bne.w	8003554 <pow+0x18c>
 8003410:	4630      	mov	r0, r6
 8003412:	4639      	mov	r1, r7
 8003414:	2200      	movs	r2, #0
 8003416:	2300      	movs	r3, #0
 8003418:	f002 fe28 	bl	800606c <__aeabi_dcmpeq>
 800341c:	b310      	cbz	r0, 8003464 <pow+0x9c>
 800341e:	2200      	movs	r2, #0
 8003420:	2300      	movs	r3, #0
 8003422:	4620      	mov	r0, r4
 8003424:	4629      	mov	r1, r5
 8003426:	f002 fe21 	bl	800606c <__aeabi_dcmpeq>
 800342a:	4683      	mov	fp, r0
 800342c:	2800      	cmp	r0, #0
 800342e:	d067      	beq.n	8003500 <pow+0x138>
 8003430:	ed9f 7ba7 	vldr	d7, [pc, #668]	; 80036d0 <pow+0x308>
 8003434:	2201      	movs	r2, #1
 8003436:	4bac      	ldr	r3, [pc, #688]	; (80036e8 <pow+0x320>)
 8003438:	f8cd a028 	str.w	sl, [sp, #40]	; 0x28
 800343c:	9202      	str	r2, [sp, #8]
 800343e:	e9cd 6704 	strd	r6, r7, [sp, #16]
 8003442:	e9cd 4506 	strd	r4, r5, [sp, #24]
 8003446:	ed8d 7b08 	vstr	d7, [sp, #32]
 800344a:	9303      	str	r3, [sp, #12]
 800344c:	f1b8 0f00 	cmp.w	r8, #0
 8003450:	d041      	beq.n	80034d6 <pow+0x10e>
 8003452:	ed9f 7ba1 	vldr	d7, [pc, #644]	; 80036d8 <pow+0x310>
 8003456:	ed8d 7b00 	vstr	d7, [sp]
 800345a:	e9dd 0100 	ldrd	r0, r1, [sp]
 800345e:	b00d      	add	sp, #52	; 0x34
 8003460:	e8bd 8ff0 	ldmia.w	sp!, {r4, r5, r6, r7, r8, r9, sl, fp, pc}
 8003464:	e9dd 0100 	ldrd	r0, r1, [sp]
 8003468:	f001 ff68 	bl	800533c <finite>
 800346c:	4680      	mov	r8, r0
 800346e:	2800      	cmp	r0, #0
 8003470:	f000 808d 	beq.w	800358e <pow+0x1c6>
 8003474:	f04f 0a00 	mov.w	sl, #0
 8003478:	f04f 0b00 	mov.w	fp, #0
 800347c:	e9dd 0100 	ldrd	r0, r1, [sp]
 8003480:	4652      	mov	r2, sl
 8003482:	465b      	mov	r3, fp
 8003484:	f002 fdf2 	bl	800606c <__aeabi_dcmpeq>
 8003488:	2800      	cmp	r0, #0
 800348a:	d0e6      	beq.n	800345a <pow+0x92>
 800348c:	4630      	mov	r0, r6
 800348e:	4639      	mov	r1, r7
 8003490:	f001 ff54 	bl	800533c <finite>
 8003494:	2800      	cmp	r0, #0
 8003496:	d0e0      	beq.n	800345a <pow+0x92>
 8003498:	4620      	mov	r0, r4
 800349a:	4629      	mov	r1, r5
 800349c:	f001 ff4e 	bl	800533c <finite>
 80034a0:	2800      	cmp	r0, #0
 80034a2:	d0da      	beq.n	800345a <pow+0x92>
 80034a4:	f999 3000 	ldrsb.w	r3, [r9]
 80034a8:	4a8f      	ldr	r2, [pc, #572]	; (80036e8 <pow+0x320>)
 80034aa:	9203      	str	r2, [sp, #12]
 80034ac:	2104      	movs	r1, #4
 80034ae:	2200      	movs	r2, #0
 80034b0:	2b02      	cmp	r3, #2
 80034b2:	e9cd 6704 	strd	r6, r7, [sp, #16]
 80034b6:	e9cd 4506 	strd	r4, r5, [sp, #24]
 80034ba:	e9cd ab08 	strd	sl, fp, [sp, #32]
 80034be:	9102      	str	r1, [sp, #8]
 80034c0:	920a      	str	r2, [sp, #40]	; 0x28
 80034c2:	d003      	beq.n	80034cc <pow+0x104>
 80034c4:	a802      	add	r0, sp, #8
 80034c6:	f001 ffbf 	bl	8005448 <matherr>
 80034ca:	b950      	cbnz	r0, 80034e2 <pow+0x11a>
 80034cc:	f002 f8da 	bl	8005684 <__errno>
 80034d0:	2322      	movs	r3, #34	; 0x22
 80034d2:	6003      	str	r3, [r0, #0]
 80034d4:	e005      	b.n	80034e2 <pow+0x11a>
 80034d6:	a802      	add	r0, sp, #8
 80034d8:	f001 ffb6 	bl	8005448 <matherr>
 80034dc:	2800      	cmp	r0, #0
 80034de:	f000 809b 	beq.w	8003618 <pow+0x250>
 80034e2:	9b0a      	ldr	r3, [sp, #40]	; 0x28
 80034e4:	b11b      	cbz	r3, 80034ee <pow+0x126>
 80034e6:	f002 f8cd 	bl	8005684 <__errno>
 80034ea:	9b0a      	ldr	r3, [sp, #40]	; 0x28
 80034ec:	6003      	str	r3, [r0, #0]
 80034ee:	ed9d 7b08 	vldr	d7, [sp, #32]
 80034f2:	ed8d 7b00 	vstr	d7, [sp]
 80034f6:	e9dd 0100 	ldrd	r0, r1, [sp]
 80034fa:	b00d      	add	sp, #52	; 0x34
 80034fc:	e8bd 8ff0 	ldmia.w	sp!, {r4, r5, r6, r7, r8, r9, sl, fp, pc}
 8003500:	4620      	mov	r0, r4
 8003502:	4629      	mov	r1, r5
 8003504:	f001 ff1a 	bl	800533c <finite>
 8003508:	2800      	cmp	r0, #0
 800350a:	d0a6      	beq.n	800345a <pow+0x92>
 800350c:	2200      	movs	r2, #0
 800350e:	2300      	movs	r3, #0
 8003510:	4620      	mov	r0, r4
 8003512:	4629      	mov	r1, r5
 8003514:	f002 fdb4 	bl	8006080 <__aeabi_dcmplt>
 8003518:	2800      	cmp	r0, #0
 800351a:	d09e      	beq.n	800345a <pow+0x92>
 800351c:	4a72      	ldr	r2, [pc, #456]	; (80036e8 <pow+0x320>)
 800351e:	f999 3000 	ldrsb.w	r3, [r9]
 8003522:	f8cd b028 	str.w	fp, [sp, #40]	; 0x28
 8003526:	2101      	movs	r1, #1
 8003528:	e9cd 6704 	strd	r6, r7, [sp, #16]
 800352c:	e9cd 4506 	strd	r4, r5, [sp, #24]
 8003530:	e9cd 1202 	strd	r1, r2, [sp, #8]
 8003534:	2b00      	cmp	r3, #0
 8003536:	d074      	beq.n	8003622 <pow+0x25a>
 8003538:	496c      	ldr	r1, [pc, #432]	; (80036ec <pow+0x324>)
 800353a:	2000      	movs	r0, #0
 800353c:	2b02      	cmp	r3, #2
 800353e:	e9cd 0108 	strd	r0, r1, [sp, #32]
 8003542:	d172      	bne.n	800362a <pow+0x262>
 8003544:	f002 f89e 	bl	8005684 <__errno>
 8003548:	2321      	movs	r3, #33	; 0x21
 800354a:	6003      	str	r3, [r0, #0]
 800354c:	9b0a      	ldr	r3, [sp, #40]	; 0x28
 800354e:	2b00      	cmp	r3, #0
 8003550:	d0cd      	beq.n	80034ee <pow+0x126>
 8003552:	e7c8      	b.n	80034e6 <pow+0x11e>
 8003554:	2200      	movs	r2, #0
 8003556:	2300      	movs	r3, #0
 8003558:	4620      	mov	r0, r4
 800355a:	4629      	mov	r1, r5
 800355c:	f002 fd86 	bl	800606c <__aeabi_dcmpeq>
 8003560:	2800      	cmp	r0, #0
 8003562:	f43f af7a 	beq.w	800345a <pow+0x92>
 8003566:	4b62      	ldr	r3, [pc, #392]	; (80036f0 <pow+0x328>)
 8003568:	495f      	ldr	r1, [pc, #380]	; (80036e8 <pow+0x320>)
 800356a:	f8cd b028 	str.w	fp, [sp, #40]	; 0x28
 800356e:	2200      	movs	r2, #0
 8003570:	2001      	movs	r0, #1
 8003572:	f1b8 0f02 	cmp.w	r8, #2
 8003576:	e9cd 6704 	strd	r6, r7, [sp, #16]
 800357a:	9002      	str	r0, [sp, #8]
 800357c:	e9cd 4506 	strd	r4, r5, [sp, #24]
 8003580:	e9cd 2308 	strd	r2, r3, [sp, #32]
 8003584:	9103      	str	r1, [sp, #12]
 8003586:	d1a6      	bne.n	80034d6 <pow+0x10e>
 8003588:	e9cd 2300 	strd	r2, r3, [sp]
 800358c:	e765      	b.n	800345a <pow+0x92>
 800358e:	4630      	mov	r0, r6
 8003590:	4639      	mov	r1, r7
 8003592:	f001 fed3 	bl	800533c <finite>
 8003596:	2800      	cmp	r0, #0
 8003598:	f43f af6c 	beq.w	8003474 <pow+0xac>
 800359c:	4620      	mov	r0, r4
 800359e:	4629      	mov	r1, r5
 80035a0:	f001 fecc 	bl	800533c <finite>
 80035a4:	2800      	cmp	r0, #0
 80035a6:	f43f af65 	beq.w	8003474 <pow+0xac>
 80035aa:	e9dd 2300 	ldrd	r2, r3, [sp]
 80035ae:	4610      	mov	r0, r2
 80035b0:	4619      	mov	r1, r3
 80035b2:	f002 fd8d 	bl	80060d0 <__aeabi_dcmpun>
 80035b6:	f999 a000 	ldrsb.w	sl, [r9]
 80035ba:	2800      	cmp	r0, #0
 80035bc:	d16b      	bne.n	8003696 <pow+0x2ce>
 80035be:	2303      	movs	r3, #3
 80035c0:	f8df c124 	ldr.w	ip, [pc, #292]	; 80036e8 <pow+0x320>
 80035c4:	900a      	str	r0, [sp, #40]	; 0x28
 80035c6:	4629      	mov	r1, r5
 80035c8:	4620      	mov	r0, r4
 80035ca:	9302      	str	r3, [sp, #8]
 80035cc:	2200      	movs	r2, #0
 80035ce:	4b49      	ldr	r3, [pc, #292]	; (80036f4 <pow+0x32c>)
 80035d0:	f8cd c00c 	str.w	ip, [sp, #12]
 80035d4:	e9cd 4506 	strd	r4, r5, [sp, #24]
 80035d8:	e9cd 6704 	strd	r6, r7, [sp, #16]
 80035dc:	f002 fade 	bl	8005b9c <__aeabi_dmul>
 80035e0:	4604      	mov	r4, r0
 80035e2:	460d      	mov	r5, r1
 80035e4:	f1ba 0f00 	cmp.w	sl, #0
 80035e8:	d125      	bne.n	8003636 <pow+0x26e>
 80035ea:	f8df b114 	ldr.w	fp, [pc, #276]	; 8003700 <pow+0x338>
 80035ee:	f04f 4a60 	mov.w	sl, #3758096384	; 0xe0000000
 80035f2:	2200      	movs	r2, #0
 80035f4:	2300      	movs	r3, #0
 80035f6:	4630      	mov	r0, r6
 80035f8:	4639      	mov	r1, r7
 80035fa:	e9cd ab08 	strd	sl, fp, [sp, #32]
 80035fe:	f002 fd3f 	bl	8006080 <__aeabi_dcmplt>
 8003602:	bb38      	cbnz	r0, 8003654 <pow+0x28c>
 8003604:	a802      	add	r0, sp, #8
 8003606:	f001 ff1f 	bl	8005448 <matherr>
 800360a:	2800      	cmp	r0, #0
 800360c:	d19e      	bne.n	800354c <pow+0x184>
 800360e:	f002 f839 	bl	8005684 <__errno>
 8003612:	2322      	movs	r3, #34	; 0x22
 8003614:	6003      	str	r3, [r0, #0]
 8003616:	e799      	b.n	800354c <pow+0x184>
 8003618:	f002 f834 	bl	8005684 <__errno>
 800361c:	2321      	movs	r3, #33	; 0x21
 800361e:	6003      	str	r3, [r0, #0]
 8003620:	e75f      	b.n	80034e2 <pow+0x11a>
 8003622:	ed9f 7b2b 	vldr	d7, [pc, #172]	; 80036d0 <pow+0x308>
 8003626:	ed8d 7b08 	vstr	d7, [sp, #32]
 800362a:	a802      	add	r0, sp, #8
 800362c:	f001 ff0c 	bl	8005448 <matherr>
 8003630:	2800      	cmp	r0, #0
 8003632:	d18b      	bne.n	800354c <pow+0x184>
 8003634:	e786      	b.n	8003544 <pow+0x17c>
 8003636:	ed9f 7b2a 	vldr	d7, [pc, #168]	; 80036e0 <pow+0x318>
 800363a:	2200      	movs	r2, #0
 800363c:	2300      	movs	r3, #0
 800363e:	4630      	mov	r0, r6
 8003640:	4639      	mov	r1, r7
 8003642:	ed8d 7b08 	vstr	d7, [sp, #32]
 8003646:	f002 fd1b 	bl	8006080 <__aeabi_dcmplt>
 800364a:	b9a0      	cbnz	r0, 8003676 <pow+0x2ae>
 800364c:	f1ba 0f02 	cmp.w	sl, #2
 8003650:	d0dd      	beq.n	800360e <pow+0x246>
 8003652:	e7d7      	b.n	8003604 <pow+0x23c>
 8003654:	4620      	mov	r0, r4
 8003656:	4629      	mov	r1, r5
 8003658:	f001 fefe 	bl	8005458 <rint>
 800365c:	4622      	mov	r2, r4
 800365e:	462b      	mov	r3, r5
 8003660:	f002 fd04 	bl	800606c <__aeabi_dcmpeq>
 8003664:	b9a0      	cbnz	r0, 8003690 <pow+0x2c8>
 8003666:	4b24      	ldr	r3, [pc, #144]	; (80036f8 <pow+0x330>)
 8003668:	f999 a000 	ldrsb.w	sl, [r9]
 800366c:	f04f 4260 	mov.w	r2, #3758096384	; 0xe0000000
 8003670:	e9cd 2308 	strd	r2, r3, [sp, #32]
 8003674:	e7ea      	b.n	800364c <pow+0x284>
 8003676:	4620      	mov	r0, r4
 8003678:	4629      	mov	r1, r5
 800367a:	f001 feed 	bl	8005458 <rint>
 800367e:	4622      	mov	r2, r4
 8003680:	462b      	mov	r3, r5
 8003682:	f002 fcf3 	bl	800606c <__aeabi_dcmpeq>
 8003686:	b918      	cbnz	r0, 8003690 <pow+0x2c8>
 8003688:	4b18      	ldr	r3, [pc, #96]	; (80036ec <pow+0x324>)
 800368a:	2200      	movs	r2, #0
 800368c:	e9cd 2308 	strd	r2, r3, [sp, #32]
 8003690:	f999 a000 	ldrsb.w	sl, [r9]
 8003694:	e7da      	b.n	800364c <pow+0x284>
 8003696:	2201      	movs	r2, #1
 8003698:	4b13      	ldr	r3, [pc, #76]	; (80036e8 <pow+0x320>)
 800369a:	f8cd 8028 	str.w	r8, [sp, #40]	; 0x28
 800369e:	9202      	str	r2, [sp, #8]
 80036a0:	e9cd 6704 	strd	r6, r7, [sp, #16]
 80036a4:	e9cd 4506 	strd	r4, r5, [sp, #24]
 80036a8:	9303      	str	r3, [sp, #12]
 80036aa:	f1ba 0f00 	cmp.w	sl, #0
 80036ae:	d0b8      	beq.n	8003622 <pow+0x25a>
 80036b0:	2200      	movs	r2, #0
 80036b2:	2300      	movs	r3, #0
 80036b4:	4610      	mov	r0, r2
 80036b6:	4619      	mov	r1, r3
 80036b8:	f002 fb9a 	bl	8005df0 <__aeabi_ddiv>
 80036bc:	f1ba 0f02 	cmp.w	sl, #2
 80036c0:	e9cd 0108 	strd	r0, r1, [sp, #32]
 80036c4:	f43f af3e 	beq.w	8003544 <pow+0x17c>
 80036c8:	e7af      	b.n	800362a <pow+0x262>
 80036ca:	bf00      	nop
 80036cc:	f3af 8000 	nop.w
	...
 80036dc:	3ff00000 	.word	0x3ff00000
 80036e0:	00000000 	.word	0x00000000
 80036e4:	7ff00000 	.word	0x7ff00000
 80036e8:	08006448 	.word	0x08006448
 80036ec:	fff00000 	.word	0xfff00000
 80036f0:	3ff00000 	.word	0x3ff00000
 80036f4:	3fe00000 	.word	0x3fe00000
 80036f8:	c7efffff 	.word	0xc7efffff
 80036fc:	2000001c 	.word	0x2000001c
 8003700:	47efffff 	.word	0x47efffff
 8003704:	00000000 	.word	0x00000000

08003708 <__ieee754_pow>:
 8003708:	e92d 4ff0 	stmdb	sp!, {r4, r5, r6, r7, r8, r9, sl, fp, lr}
 800370c:	f023 4500 	bic.w	r5, r3, #2147483648	; 0x80000000
 8003710:	ea55 0402 	orrs.w	r4, r5, r2
 8003714:	b093      	sub	sp, #76	; 0x4c
 8003716:	d00d      	beq.n	8003734 <__ieee754_pow+0x2c>
 8003718:	4e6b      	ldr	r6, [pc, #428]	; (80038c8 <__ieee754_pow+0x1c0>)
 800371a:	f021 4400 	bic.w	r4, r1, #2147483648	; 0x80000000
 800371e:	42b4      	cmp	r4, r6
 8003720:	460f      	mov	r7, r1
 8003722:	4682      	mov	sl, r0
 8003724:	dd0b      	ble.n	800373e <__ieee754_pow+0x36>
 8003726:	f104 4440 	add.w	r4, r4, #3221225472	; 0xc0000000
 800372a:	f504 1480 	add.w	r4, r4, #1048576	; 0x100000
 800372e:	ea54 030a 	orrs.w	r3, r4, sl
 8003732:	d150      	bne.n	80037d6 <__ieee754_pow+0xce>
 8003734:	4965      	ldr	r1, [pc, #404]	; (80038cc <__ieee754_pow+0x1c4>)
 8003736:	2000      	movs	r0, #0
 8003738:	b013      	add	sp, #76	; 0x4c
 800373a:	e8bd 8ff0 	ldmia.w	sp!, {r4, r5, r6, r7, r8, r9, sl, fp, pc}
 800373e:	469b      	mov	fp, r3
 8003740:	4694      	mov	ip, r2
 8003742:	d047      	beq.n	80037d4 <__ieee754_pow+0xcc>
 8003744:	42b5      	cmp	r5, r6
 8003746:	dcee      	bgt.n	8003726 <__ieee754_pow+0x1e>
 8003748:	4e5f      	ldr	r6, [pc, #380]	; (80038c8 <__ieee754_pow+0x1c0>)
 800374a:	42b5      	cmp	r5, r6
 800374c:	d05d      	beq.n	800380a <__ieee754_pow+0x102>
 800374e:	2f00      	cmp	r7, #0
 8003750:	4680      	mov	r8, r0
 8003752:	4689      	mov	r9, r1
 8003754:	e9cd 2300 	strd	r2, r3, [sp]
 8003758:	db5b      	blt.n	8003812 <__ieee754_pow+0x10a>
 800375a:	2600      	movs	r6, #0
 800375c:	f1bc 0f00 	cmp.w	ip, #0
 8003760:	d10e      	bne.n	8003780 <__ieee754_pow+0x78>
 8003762:	4b59      	ldr	r3, [pc, #356]	; (80038c8 <__ieee754_pow+0x1c0>)
 8003764:	429d      	cmp	r5, r3
 8003766:	d03f      	beq.n	80037e8 <__ieee754_pow+0xe0>
 8003768:	4b58      	ldr	r3, [pc, #352]	; (80038cc <__ieee754_pow+0x1c4>)
 800376a:	429d      	cmp	r5, r3
 800376c:	f000 8088 	beq.w	8003880 <__ieee754_pow+0x178>
 8003770:	f1bb 4f80 	cmp.w	fp, #1073741824	; 0x40000000
 8003774:	f000 809c 	beq.w	80038b0 <__ieee754_pow+0x1a8>
 8003778:	4b55      	ldr	r3, [pc, #340]	; (80038d0 <__ieee754_pow+0x1c8>)
 800377a:	459b      	cmp	fp, r3
 800377c:	f000 83b8 	beq.w	8003ef0 <__ieee754_pow+0x7e8>
 8003780:	4640      	mov	r0, r8
 8003782:	4649      	mov	r1, r9
 8003784:	f001 fdd6 	bl	8005334 <fabs>
 8003788:	f1ba 0f00 	cmp.w	sl, #0
 800378c:	d106      	bne.n	800379c <__ieee754_pow+0x94>
 800378e:	2c00      	cmp	r4, #0
 8003790:	d059      	beq.n	8003846 <__ieee754_pow+0x13e>
 8003792:	4b4e      	ldr	r3, [pc, #312]	; (80038cc <__ieee754_pow+0x1c4>)
 8003794:	f027 4240 	bic.w	r2, r7, #3221225472	; 0xc0000000
 8003798:	429a      	cmp	r2, r3
 800379a:	d054      	beq.n	8003846 <__ieee754_pow+0x13e>
 800379c:	0fff      	lsrs	r7, r7, #31
 800379e:	3f01      	subs	r7, #1
 80037a0:	ea56 0307 	orrs.w	r3, r6, r7
 80037a4:	d073      	beq.n	800388e <__ieee754_pow+0x186>
 80037a6:	4b4b      	ldr	r3, [pc, #300]	; (80038d4 <__ieee754_pow+0x1cc>)
 80037a8:	429d      	cmp	r5, r3
 80037aa:	f340 809b 	ble.w	80038e4 <__ieee754_pow+0x1dc>
 80037ae:	f103 7304 	add.w	r3, r3, #34603008	; 0x2100000
 80037b2:	429d      	cmp	r5, r3
 80037b4:	f340 843e 	ble.w	8004034 <__ieee754_pow+0x92c>
 80037b8:	4b47      	ldr	r3, [pc, #284]	; (80038d8 <__ieee754_pow+0x1d0>)
 80037ba:	429c      	cmp	r4, r3
 80037bc:	dd72      	ble.n	80038a4 <__ieee754_pow+0x19c>
 80037be:	f1bb 0f00 	cmp.w	fp, #0
 80037c2:	dd72      	ble.n	80038aa <__ieee754_pow+0x1a2>
 80037c4:	a33e      	add	r3, pc, #248	; (adr r3, 80038c0 <__ieee754_pow+0x1b8>)
 80037c6:	e9d3 2300 	ldrd	r2, r3, [r3]
 80037ca:	4610      	mov	r0, r2
 80037cc:	4619      	mov	r1, r3
 80037ce:	f002 f9e5 	bl	8005b9c <__aeabi_dmul>
 80037d2:	e7b1      	b.n	8003738 <__ieee754_pow+0x30>
 80037d4:	b128      	cbz	r0, 80037e2 <__ieee754_pow+0xda>
 80037d6:	4841      	ldr	r0, [pc, #260]	; (80038dc <__ieee754_pow+0x1d4>)
 80037d8:	b013      	add	sp, #76	; 0x4c
 80037da:	e8bd 4ff0 	ldmia.w	sp!, {r4, r5, r6, r7, r8, r9, sl, fp, lr}
 80037de:	f001 be35 	b.w	800544c <nan>
 80037e2:	42a5      	cmp	r5, r4
 80037e4:	dcf7      	bgt.n	80037d6 <__ieee754_pow+0xce>
 80037e6:	e7af      	b.n	8003748 <__ieee754_pow+0x40>
 80037e8:	f104 4340 	add.w	r3, r4, #3221225472	; 0xc0000000
 80037ec:	f503 1380 	add.w	r3, r3, #1048576	; 0x100000
 80037f0:	ea53 030a 	orrs.w	r3, r3, sl
 80037f4:	d09e      	beq.n	8003734 <__ieee754_pow+0x2c>
 80037f6:	4b38      	ldr	r3, [pc, #224]	; (80038d8 <__ieee754_pow+0x1d0>)
 80037f8:	429c      	cmp	r4, r3
 80037fa:	f340 8383 	ble.w	8003f04 <__ieee754_pow+0x7fc>
 80037fe:	f1bb 0f00 	cmp.w	fp, #0
 8003802:	db52      	blt.n	80038aa <__ieee754_pow+0x1a2>
 8003804:	e9dd 0100 	ldrd	r0, r1, [sp]
 8003808:	e796      	b.n	8003738 <__ieee754_pow+0x30>
 800380a:	f1bc 0f00 	cmp.w	ip, #0
 800380e:	d09e      	beq.n	800374e <__ieee754_pow+0x46>
 8003810:	e789      	b.n	8003726 <__ieee754_pow+0x1e>
 8003812:	4b33      	ldr	r3, [pc, #204]	; (80038e0 <__ieee754_pow+0x1d8>)
 8003814:	429d      	cmp	r5, r3
 8003816:	dc31      	bgt.n	800387c <__ieee754_pow+0x174>
 8003818:	f1a3 7354 	sub.w	r3, r3, #55574528	; 0x3500000
 800381c:	429d      	cmp	r5, r3
 800381e:	dd9c      	ble.n	800375a <__ieee754_pow+0x52>
 8003820:	152b      	asrs	r3, r5, #20
 8003822:	f2a3 33ff 	subw	r3, r3, #1023	; 0x3ff
 8003826:	2b14      	cmp	r3, #20
 8003828:	f340 83a5 	ble.w	8003f76 <__ieee754_pow+0x86e>
 800382c:	f1c3 0334 	rsb	r3, r3, #52	; 0x34
 8003830:	fa2c f203 	lsr.w	r2, ip, r3
 8003834:	fa02 f303 	lsl.w	r3, r2, r3
 8003838:	4563      	cmp	r3, ip
 800383a:	d18e      	bne.n	800375a <__ieee754_pow+0x52>
 800383c:	f002 0201 	and.w	r2, r2, #1
 8003840:	f1c2 0602 	rsb	r6, r2, #2
 8003844:	e78a      	b.n	800375c <__ieee754_pow+0x54>
 8003846:	f1bb 0f00 	cmp.w	fp, #0
 800384a:	da05      	bge.n	8003858 <__ieee754_pow+0x150>
 800384c:	4602      	mov	r2, r0
 800384e:	460b      	mov	r3, r1
 8003850:	2000      	movs	r0, #0
 8003852:	491e      	ldr	r1, [pc, #120]	; (80038cc <__ieee754_pow+0x1c4>)
 8003854:	f002 facc 	bl	8005df0 <__aeabi_ddiv>
 8003858:	2f00      	cmp	r7, #0
 800385a:	f6bf af6d 	bge.w	8003738 <__ieee754_pow+0x30>
 800385e:	f104 4440 	add.w	r4, r4, #3221225472	; 0xc0000000
 8003862:	f504 1480 	add.w	r4, r4, #1048576	; 0x100000
 8003866:	ea54 0306 	orrs.w	r3, r4, r6
 800386a:	f000 843f 	beq.w	80040ec <__ieee754_pow+0x9e4>
 800386e:	2e01      	cmp	r6, #1
 8003870:	f47f af62 	bne.w	8003738 <__ieee754_pow+0x30>
 8003874:	f101 4300 	add.w	r3, r1, #2147483648	; 0x80000000
 8003878:	4619      	mov	r1, r3
 800387a:	e75d      	b.n	8003738 <__ieee754_pow+0x30>
 800387c:	2602      	movs	r6, #2
 800387e:	e76d      	b.n	800375c <__ieee754_pow+0x54>
 8003880:	f1bb 0f00 	cmp.w	fp, #0
 8003884:	f2c0 8348 	blt.w	8003f18 <__ieee754_pow+0x810>
 8003888:	4640      	mov	r0, r8
 800388a:	4649      	mov	r1, r9
 800388c:	e754      	b.n	8003738 <__ieee754_pow+0x30>
 800388e:	4642      	mov	r2, r8
 8003890:	464b      	mov	r3, r9
 8003892:	4610      	mov	r0, r2
 8003894:	4619      	mov	r1, r3
 8003896:	f001 ffc9 	bl	800582c <__aeabi_dsub>
 800389a:	4602      	mov	r2, r0
 800389c:	460b      	mov	r3, r1
 800389e:	f002 faa7 	bl	8005df0 <__aeabi_ddiv>
 80038a2:	e749      	b.n	8003738 <__ieee754_pow+0x30>
 80038a4:	f1bb 0f00 	cmp.w	fp, #0
 80038a8:	db8c      	blt.n	80037c4 <__ieee754_pow+0xbc>
 80038aa:	2000      	movs	r0, #0
 80038ac:	2100      	movs	r1, #0
 80038ae:	e743      	b.n	8003738 <__ieee754_pow+0x30>
 80038b0:	4642      	mov	r2, r8
 80038b2:	464b      	mov	r3, r9
 80038b4:	4640      	mov	r0, r8
 80038b6:	4649      	mov	r1, r9
 80038b8:	f002 f970 	bl	8005b9c <__aeabi_dmul>
 80038bc:	e73c      	b.n	8003738 <__ieee754_pow+0x30>
 80038be:	bf00      	nop
 80038c0:	8800759c 	.word	0x8800759c
 80038c4:	7e37e43c 	.word	0x7e37e43c
 80038c8:	7ff00000 	.word	0x7ff00000
 80038cc:	3ff00000 	.word	0x3ff00000
 80038d0:	3fe00000 	.word	0x3fe00000
 80038d4:	41e00000 	.word	0x41e00000
 80038d8:	3fefffff 	.word	0x3fefffff
 80038dc:	0800644c 	.word	0x0800644c
 80038e0:	433fffff 	.word	0x433fffff
 80038e4:	f5b4 1f80 	cmp.w	r4, #1048576	; 0x100000
 80038e8:	f280 8361 	bge.w	8003fae <__ieee754_pow+0x8a6>
 80038ec:	2200      	movs	r2, #0
 80038ee:	4bd2      	ldr	r3, [pc, #840]	; (8003c38 <__ieee754_pow+0x530>)
 80038f0:	f002 f954 	bl	8005b9c <__aeabi_dmul>
 80038f4:	f06f 0c34 	mvn.w	ip, #52	; 0x34
 80038f8:	460c      	mov	r4, r1
 80038fa:	1523      	asrs	r3, r4, #20
 80038fc:	4dcf      	ldr	r5, [pc, #828]	; (8003c3c <__ieee754_pow+0x534>)
 80038fe:	f3c4 0213 	ubfx	r2, r4, #0, #20
 8003902:	f2a3 33ff 	subw	r3, r3, #1023	; 0x3ff
 8003906:	f042 547f 	orr.w	r4, r2, #1069547520	; 0x3fc00000
 800390a:	4463      	add	r3, ip
 800390c:	42aa      	cmp	r2, r5
 800390e:	930b      	str	r3, [sp, #44]	; 0x2c
 8003910:	f444 1440 	orr.w	r4, r4, #3145728	; 0x300000
 8003914:	f340 833f 	ble.w	8003f96 <__ieee754_pow+0x88e>
 8003918:	4bc9      	ldr	r3, [pc, #804]	; (8003c40 <__ieee754_pow+0x538>)
 800391a:	429a      	cmp	r2, r3
 800391c:	f340 8404 	ble.w	8004128 <__ieee754_pow+0xa20>
 8003920:	ed9f 7baf 	vldr	d7, [pc, #700]	; 8003be0 <__ieee754_pow+0x4d8>
 8003924:	ed8d 7b08 	vstr	d7, [sp, #32]
 8003928:	ed8d 7b10 	vstr	d7, [sp, #64]	; 0x40
 800392c:	ed9f 7bae 	vldr	d7, [pc, #696]	; 8003be8 <__ieee754_pow+0x4e0>
 8003930:	9b0b      	ldr	r3, [sp, #44]	; 0x2c
 8003932:	ed8d 7b06 	vstr	d7, [sp, #24]
 8003936:	3301      	adds	r3, #1
 8003938:	930b      	str	r3, [sp, #44]	; 0x2c
 800393a:	f5a4 1480 	sub.w	r4, r4, #1048576	; 0x100000
 800393e:	2500      	movs	r5, #0
 8003940:	e9dd 2306 	ldrd	r2, r3, [sp, #24]
 8003944:	4621      	mov	r1, r4
 8003946:	4682      	mov	sl, r0
 8003948:	f001 ff70 	bl	800582c <__aeabi_dsub>
 800394c:	46a3      	mov	fp, r4
 800394e:	e9dd 2306 	ldrd	r2, r3, [sp, #24]
 8003952:	4680      	mov	r8, r0
 8003954:	4689      	mov	r9, r1
 8003956:	4650      	mov	r0, sl
 8003958:	4621      	mov	r1, r4
 800395a:	e9cd ab0c 	strd	sl, fp, [sp, #48]	; 0x30
 800395e:	f001 ff67 	bl	8005830 <__adddf3>
 8003962:	4602      	mov	r2, r0
 8003964:	460b      	mov	r3, r1
 8003966:	2000      	movs	r0, #0
 8003968:	49b6      	ldr	r1, [pc, #728]	; (8003c44 <__ieee754_pow+0x53c>)
 800396a:	f002 fa41 	bl	8005df0 <__aeabi_ddiv>
 800396e:	460a      	mov	r2, r1
 8003970:	4601      	mov	r1, r0
 8003972:	e9cd 120e 	strd	r1, r2, [sp, #56]	; 0x38
 8003976:	4613      	mov	r3, r2
 8003978:	4649      	mov	r1, r9
 800397a:	4602      	mov	r2, r0
 800397c:	4640      	mov	r0, r8
 800397e:	f002 f90d 	bl	8005b9c <__aeabi_dmul>
 8003982:	1063      	asrs	r3, r4, #1
 8003984:	f043 5300 	orr.w	r3, r3, #536870912	; 0x20000000
 8003988:	4682      	mov	sl, r0
 800398a:	468b      	mov	fp, r1
 800398c:	f503 2300 	add.w	r3, r3, #524288	; 0x80000
 8003990:	468c      	mov	ip, r1
 8003992:	e9cd ab04 	strd	sl, fp, [sp, #16]
 8003996:	1959      	adds	r1, r3, r5
 8003998:	46d3      	mov	fp, sl
 800399a:	2300      	movs	r3, #0
 800399c:	e9cd bc02 	strd	fp, ip, [sp, #8]
 80039a0:	9302      	str	r3, [sp, #8]
 80039a2:	e9dd ab02 	ldrd	sl, fp, [sp, #8]
 80039a6:	2000      	movs	r0, #0
 80039a8:	4604      	mov	r4, r0
 80039aa:	460d      	mov	r5, r1
 80039ac:	4602      	mov	r2, r0
 80039ae:	460b      	mov	r3, r1
 80039b0:	4650      	mov	r0, sl
 80039b2:	4659      	mov	r1, fp
 80039b4:	f002 f8f2 	bl	8005b9c <__aeabi_dmul>
 80039b8:	4602      	mov	r2, r0
 80039ba:	460b      	mov	r3, r1
 80039bc:	4640      	mov	r0, r8
 80039be:	4649      	mov	r1, r9
 80039c0:	f001 ff34 	bl	800582c <__aeabi_dsub>
 80039c4:	e9dd 2306 	ldrd	r2, r3, [sp, #24]
 80039c8:	4680      	mov	r8, r0
 80039ca:	4689      	mov	r9, r1
 80039cc:	4620      	mov	r0, r4
 80039ce:	4629      	mov	r1, r5
 80039d0:	f001 ff2c 	bl	800582c <__aeabi_dsub>
 80039d4:	4602      	mov	r2, r0
 80039d6:	460b      	mov	r3, r1
 80039d8:	e9dd 010c 	ldrd	r0, r1, [sp, #48]	; 0x30
 80039dc:	f001 ff26 	bl	800582c <__aeabi_dsub>
 80039e0:	4652      	mov	r2, sl
 80039e2:	465b      	mov	r3, fp
 80039e4:	f002 f8da 	bl	8005b9c <__aeabi_dmul>
 80039e8:	4602      	mov	r2, r0
 80039ea:	460b      	mov	r3, r1
 80039ec:	4640      	mov	r0, r8
 80039ee:	4649      	mov	r1, r9
 80039f0:	f001 ff1c 	bl	800582c <__aeabi_dsub>
 80039f4:	e9dd 230e 	ldrd	r2, r3, [sp, #56]	; 0x38
 80039f8:	f002 f8d0 	bl	8005b9c <__aeabi_dmul>
 80039fc:	e9dd 4504 	ldrd	r4, r5, [sp, #16]
 8003a00:	e9cd 0106 	strd	r0, r1, [sp, #24]
 8003a04:	4622      	mov	r2, r4
 8003a06:	462b      	mov	r3, r5
 8003a08:	4620      	mov	r0, r4
 8003a0a:	4629      	mov	r1, r5
 8003a0c:	f002 f8c6 	bl	8005b9c <__aeabi_dmul>
 8003a10:	a377      	add	r3, pc, #476	; (adr r3, 8003bf0 <__ieee754_pow+0x4e8>)
 8003a12:	e9d3 2300 	ldrd	r2, r3, [r3]
 8003a16:	4604      	mov	r4, r0
 8003a18:	460d      	mov	r5, r1
 8003a1a:	f002 f8bf 	bl	8005b9c <__aeabi_dmul>
 8003a1e:	a376      	add	r3, pc, #472	; (adr r3, 8003bf8 <__ieee754_pow+0x4f0>)
 8003a20:	e9d3 2300 	ldrd	r2, r3, [r3]
 8003a24:	f001 ff04 	bl	8005830 <__adddf3>
 8003a28:	4622      	mov	r2, r4
 8003a2a:	462b      	mov	r3, r5
 8003a2c:	f002 f8b6 	bl	8005b9c <__aeabi_dmul>
 8003a30:	a373      	add	r3, pc, #460	; (adr r3, 8003c00 <__ieee754_pow+0x4f8>)
 8003a32:	e9d3 2300 	ldrd	r2, r3, [r3]
 8003a36:	f001 fefb 	bl	8005830 <__adddf3>
 8003a3a:	4622      	mov	r2, r4
 8003a3c:	462b      	mov	r3, r5
 8003a3e:	f002 f8ad 	bl	8005b9c <__aeabi_dmul>
 8003a42:	a371      	add	r3, pc, #452	; (adr r3, 8003c08 <__ieee754_pow+0x500>)
 8003a44:	e9d3 2300 	ldrd	r2, r3, [r3]
 8003a48:	f001 fef2 	bl	8005830 <__adddf3>
 8003a4c:	4622      	mov	r2, r4
 8003a4e:	462b      	mov	r3, r5
 8003a50:	f002 f8a4 	bl	8005b9c <__aeabi_dmul>
 8003a54:	a36e      	add	r3, pc, #440	; (adr r3, 8003c10 <__ieee754_pow+0x508>)
 8003a56:	e9d3 2300 	ldrd	r2, r3, [r3]
 8003a5a:	f001 fee9 	bl	8005830 <__adddf3>
 8003a5e:	4622      	mov	r2, r4
 8003a60:	462b      	mov	r3, r5
 8003a62:	f002 f89b 	bl	8005b9c <__aeabi_dmul>
 8003a66:	a36c      	add	r3, pc, #432	; (adr r3, 8003c18 <__ieee754_pow+0x510>)
 8003a68:	e9d3 2300 	ldrd	r2, r3, [r3]
 8003a6c:	f001 fee0 	bl	8005830 <__adddf3>
 8003a70:	4622      	mov	r2, r4
 8003a72:	4680      	mov	r8, r0
 8003a74:	4689      	mov	r9, r1
 8003a76:	462b      	mov	r3, r5
 8003a78:	4620      	mov	r0, r4
 8003a7a:	4629      	mov	r1, r5
 8003a7c:	f002 f88e 	bl	8005b9c <__aeabi_dmul>
 8003a80:	4602      	mov	r2, r0
 8003a82:	460b      	mov	r3, r1
 8003a84:	4640      	mov	r0, r8
 8003a86:	4649      	mov	r1, r9
 8003a88:	f002 f888 	bl	8005b9c <__aeabi_dmul>
 8003a8c:	4652      	mov	r2, sl
 8003a8e:	4604      	mov	r4, r0
 8003a90:	460d      	mov	r5, r1
 8003a92:	465b      	mov	r3, fp
 8003a94:	e9dd 0104 	ldrd	r0, r1, [sp, #16]
 8003a98:	f001 feca 	bl	8005830 <__adddf3>
 8003a9c:	e9dd 2306 	ldrd	r2, r3, [sp, #24]
 8003aa0:	f002 f87c 	bl	8005b9c <__aeabi_dmul>
 8003aa4:	4622      	mov	r2, r4
 8003aa6:	462b      	mov	r3, r5
 8003aa8:	f001 fec2 	bl	8005830 <__adddf3>
 8003aac:	4652      	mov	r2, sl
 8003aae:	4680      	mov	r8, r0
 8003ab0:	4689      	mov	r9, r1
 8003ab2:	465b      	mov	r3, fp
 8003ab4:	4650      	mov	r0, sl
 8003ab6:	4659      	mov	r1, fp
 8003ab8:	f002 f870 	bl	8005b9c <__aeabi_dmul>
 8003abc:	2200      	movs	r2, #0
 8003abe:	4b62      	ldr	r3, [pc, #392]	; (8003c48 <__ieee754_pow+0x540>)
 8003ac0:	e9cd 010c 	strd	r0, r1, [sp, #48]	; 0x30
 8003ac4:	f001 feb4 	bl	8005830 <__adddf3>
 8003ac8:	4642      	mov	r2, r8
 8003aca:	464b      	mov	r3, r9
 8003acc:	f001 feb0 	bl	8005830 <__adddf3>
 8003ad0:	9802      	ldr	r0, [sp, #8]
 8003ad2:	460d      	mov	r5, r1
 8003ad4:	4604      	mov	r4, r0
 8003ad6:	4622      	mov	r2, r4
 8003ad8:	462b      	mov	r3, r5
 8003ada:	4650      	mov	r0, sl
 8003adc:	4659      	mov	r1, fp
 8003ade:	f002 f85d 	bl	8005b9c <__aeabi_dmul>
 8003ae2:	2200      	movs	r2, #0
 8003ae4:	4682      	mov	sl, r0
 8003ae6:	468b      	mov	fp, r1
 8003ae8:	4b57      	ldr	r3, [pc, #348]	; (8003c48 <__ieee754_pow+0x540>)
 8003aea:	4620      	mov	r0, r4
 8003aec:	4629      	mov	r1, r5
 8003aee:	f001 fe9d 	bl	800582c <__aeabi_dsub>
 8003af2:	e9dd 230c 	ldrd	r2, r3, [sp, #48]	; 0x30
 8003af6:	f001 fe99 	bl	800582c <__aeabi_dsub>
 8003afa:	4602      	mov	r2, r0
 8003afc:	460b      	mov	r3, r1
 8003afe:	4640      	mov	r0, r8
 8003b00:	4649      	mov	r1, r9
 8003b02:	f001 fe93 	bl	800582c <__aeabi_dsub>
 8003b06:	e9dd 2304 	ldrd	r2, r3, [sp, #16]
 8003b0a:	f002 f847 	bl	8005b9c <__aeabi_dmul>
 8003b0e:	4622      	mov	r2, r4
 8003b10:	4680      	mov	r8, r0
 8003b12:	4689      	mov	r9, r1
 8003b14:	462b      	mov	r3, r5
 8003b16:	e9dd 0106 	ldrd	r0, r1, [sp, #24]
 8003b1a:	f002 f83f 	bl	8005b9c <__aeabi_dmul>
 8003b1e:	4602      	mov	r2, r0
 8003b20:	460b      	mov	r3, r1
 8003b22:	4640      	mov	r0, r8
 8003b24:	4649      	mov	r1, r9
 8003b26:	f001 fe83 	bl	8005830 <__adddf3>
 8003b2a:	4680      	mov	r8, r0
 8003b2c:	4689      	mov	r9, r1
 8003b2e:	4602      	mov	r2, r0
 8003b30:	460b      	mov	r3, r1
 8003b32:	4650      	mov	r0, sl
 8003b34:	4659      	mov	r1, fp
 8003b36:	f001 fe7b 	bl	8005830 <__adddf3>
 8003b3a:	9802      	ldr	r0, [sp, #8]
 8003b3c:	a338      	add	r3, pc, #224	; (adr r3, 8003c20 <__ieee754_pow+0x518>)
 8003b3e:	e9d3 2300 	ldrd	r2, r3, [r3]
 8003b42:	4604      	mov	r4, r0
 8003b44:	460d      	mov	r5, r1
 8003b46:	f002 f829 	bl	8005b9c <__aeabi_dmul>
 8003b4a:	4652      	mov	r2, sl
 8003b4c:	e9cd 0104 	strd	r0, r1, [sp, #16]
 8003b50:	465b      	mov	r3, fp
 8003b52:	4620      	mov	r0, r4
 8003b54:	4629      	mov	r1, r5
 8003b56:	f001 fe69 	bl	800582c <__aeabi_dsub>
 8003b5a:	4602      	mov	r2, r0
 8003b5c:	460b      	mov	r3, r1
 8003b5e:	4640      	mov	r0, r8
 8003b60:	4649      	mov	r1, r9
 8003b62:	f001 fe63 	bl	800582c <__aeabi_dsub>
 8003b66:	a330      	add	r3, pc, #192	; (adr r3, 8003c28 <__ieee754_pow+0x520>)
 8003b68:	e9d3 2300 	ldrd	r2, r3, [r3]
 8003b6c:	f002 f816 	bl	8005b9c <__aeabi_dmul>
 8003b70:	a32f      	add	r3, pc, #188	; (adr r3, 8003c30 <__ieee754_pow+0x528>)
 8003b72:	e9d3 2300 	ldrd	r2, r3, [r3]
 8003b76:	4680      	mov	r8, r0
 8003b78:	4689      	mov	r9, r1
 8003b7a:	4620      	mov	r0, r4
 8003b7c:	4629      	mov	r1, r5
 8003b7e:	f002 f80d 	bl	8005b9c <__aeabi_dmul>
 8003b82:	4602      	mov	r2, r0
 8003b84:	460b      	mov	r3, r1
 8003b86:	4640      	mov	r0, r8
 8003b88:	4649      	mov	r1, r9
 8003b8a:	f001 fe51 	bl	8005830 <__adddf3>
 8003b8e:	e9dd 2310 	ldrd	r2, r3, [sp, #64]	; 0x40
 8003b92:	f001 fe4d 	bl	8005830 <__adddf3>
 8003b96:	4680      	mov	r8, r0
 8003b98:	980b      	ldr	r0, [sp, #44]	; 0x2c
 8003b9a:	4689      	mov	r9, r1
 8003b9c:	f001 ff94 	bl	8005ac8 <__aeabi_i2d>
 8003ba0:	4642      	mov	r2, r8
 8003ba2:	4682      	mov	sl, r0
 8003ba4:	468b      	mov	fp, r1
 8003ba6:	464b      	mov	r3, r9
 8003ba8:	e9dd 0104 	ldrd	r0, r1, [sp, #16]
 8003bac:	f001 fe40 	bl	8005830 <__adddf3>
 8003bb0:	e9dd 2308 	ldrd	r2, r3, [sp, #32]
 8003bb4:	f001 fe3c 	bl	8005830 <__adddf3>
 8003bb8:	4652      	mov	r2, sl
 8003bba:	465b      	mov	r3, fp
 8003bbc:	f001 fe38 	bl	8005830 <__adddf3>
 8003bc0:	9802      	ldr	r0, [sp, #8]
 8003bc2:	4652      	mov	r2, sl
 8003bc4:	465b      	mov	r3, fp
 8003bc6:	4604      	mov	r4, r0
 8003bc8:	460d      	mov	r5, r1
 8003bca:	f001 fe2f 	bl	800582c <__aeabi_dsub>
 8003bce:	e9dd 2308 	ldrd	r2, r3, [sp, #32]
 8003bd2:	f001 fe2b 	bl	800582c <__aeabi_dsub>
 8003bd6:	e9dd 2304 	ldrd	r2, r3, [sp, #16]
 8003bda:	e037      	b.n	8003c4c <__ieee754_pow+0x544>
 8003bdc:	f3af 8000 	nop.w
	...
 8003bec:	3ff00000 	.word	0x3ff00000
 8003bf0:	4a454eef 	.word	0x4a454eef
 8003bf4:	3fca7e28 	.word	0x3fca7e28
 8003bf8:	93c9db65 	.word	0x93c9db65
 8003bfc:	3fcd864a 	.word	0x3fcd864a
 8003c00:	a91d4101 	.word	0xa91d4101
 8003c04:	3fd17460 	.word	0x3fd17460
 8003c08:	518f264d 	.word	0x518f264d
 8003c0c:	3fd55555 	.word	0x3fd55555
 8003c10:	db6fabff 	.word	0xdb6fabff
 8003c14:	3fdb6db6 	.word	0x3fdb6db6
 8003c18:	33333303 	.word	0x33333303
 8003c1c:	3fe33333 	.word	0x3fe33333
 8003c20:	e0000000 	.word	0xe0000000
 8003c24:	3feec709 	.word	0x3feec709
 8003c28:	dc3a03fd 	.word	0xdc3a03fd
 8003c2c:	3feec709 	.word	0x3feec709
 8003c30:	145b01f5 	.word	0x145b01f5
 8003c34:	be3e2fe0 	.word	0xbe3e2fe0
 8003c38:	43400000 	.word	0x43400000
 8003c3c:	0003988e 	.word	0x0003988e
 8003c40:	000bb679 	.word	0x000bb679
 8003c44:	3ff00000 	.word	0x3ff00000
 8003c48:	40080000 	.word	0x40080000
 8003c4c:	f001 fdee 	bl	800582c <__aeabi_dsub>
 8003c50:	460b      	mov	r3, r1
 8003c52:	4602      	mov	r2, r0
 8003c54:	4649      	mov	r1, r9
 8003c56:	4640      	mov	r0, r8
 8003c58:	f001 fde8 	bl	800582c <__aeabi_dsub>
 8003c5c:	3e01      	subs	r6, #1
 8003c5e:	ea56 0307 	orrs.w	r3, r6, r7
 8003c62:	4682      	mov	sl, r0
 8003c64:	468b      	mov	fp, r1
 8003c66:	f000 815e 	beq.w	8003f26 <__ieee754_pow+0x81e>
 8003c6a:	ed9f 7bd3 	vldr	d7, [pc, #844]	; 8003fb8 <__ieee754_pow+0x8b0>
 8003c6e:	ed8d 7b04 	vstr	d7, [sp, #16]
 8003c72:	e9dd 1200 	ldrd	r1, r2, [sp]
 8003c76:	2300      	movs	r3, #0
 8003c78:	460e      	mov	r6, r1
 8003c7a:	4617      	mov	r7, r2
 8003c7c:	e9cd 6702 	strd	r6, r7, [sp, #8]
 8003c80:	9302      	str	r3, [sp, #8]
 8003c82:	e9dd 6702 	ldrd	r6, r7, [sp, #8]
 8003c86:	4608      	mov	r0, r1
 8003c88:	463b      	mov	r3, r7
 8003c8a:	4611      	mov	r1, r2
 8003c8c:	4632      	mov	r2, r6
 8003c8e:	f001 fdcd 	bl	800582c <__aeabi_dsub>
 8003c92:	4622      	mov	r2, r4
 8003c94:	462b      	mov	r3, r5
 8003c96:	f001 ff81 	bl	8005b9c <__aeabi_dmul>
 8003c9a:	e9dd 2300 	ldrd	r2, r3, [sp]
 8003c9e:	4680      	mov	r8, r0
 8003ca0:	4689      	mov	r9, r1
 8003ca2:	4650      	mov	r0, sl
 8003ca4:	4659      	mov	r1, fp
 8003ca6:	f001 ff79 	bl	8005b9c <__aeabi_dmul>
 8003caa:	4602      	mov	r2, r0
 8003cac:	460b      	mov	r3, r1
 8003cae:	4640      	mov	r0, r8
 8003cb0:	4649      	mov	r1, r9
 8003cb2:	f001 fdbd 	bl	8005830 <__adddf3>
 8003cb6:	4632      	mov	r2, r6
 8003cb8:	4680      	mov	r8, r0
 8003cba:	4689      	mov	r9, r1
 8003cbc:	463b      	mov	r3, r7
 8003cbe:	4620      	mov	r0, r4
 8003cc0:	4629      	mov	r1, r5
 8003cc2:	e9cd 8900 	strd	r8, r9, [sp]
 8003cc6:	f001 ff69 	bl	8005b9c <__aeabi_dmul>
 8003cca:	460b      	mov	r3, r1
 8003ccc:	4602      	mov	r2, r0
 8003cce:	4606      	mov	r6, r0
 8003cd0:	460f      	mov	r7, r1
 8003cd2:	4640      	mov	r0, r8
 8003cd4:	4649      	mov	r1, r9
 8003cd6:	f001 fdab 	bl	8005830 <__adddf3>
 8003cda:	4bd1      	ldr	r3, [pc, #836]	; (8004020 <__ieee754_pow+0x918>)
 8003cdc:	4299      	cmp	r1, r3
 8003cde:	4604      	mov	r4, r0
 8003ce0:	460d      	mov	r5, r1
 8003ce2:	468a      	mov	sl, r1
 8003ce4:	f340 8124 	ble.w	8003f30 <__ieee754_pow+0x828>
 8003ce8:	f101 433f 	add.w	r3, r1, #3204448256	; 0xbf000000
 8003cec:	f503 03e0 	add.w	r3, r3, #7340032	; 0x700000
 8003cf0:	4303      	orrs	r3, r0
 8003cf2:	f040 81ff 	bne.w	80040f4 <__ieee754_pow+0x9ec>
 8003cf6:	a3b2      	add	r3, pc, #712	; (adr r3, 8003fc0 <__ieee754_pow+0x8b8>)
 8003cf8:	e9d3 2300 	ldrd	r2, r3, [r3]
 8003cfc:	e9dd 0100 	ldrd	r0, r1, [sp]
 8003d00:	f001 fd96 	bl	8005830 <__adddf3>
 8003d04:	4632      	mov	r2, r6
 8003d06:	4680      	mov	r8, r0
 8003d08:	4689      	mov	r9, r1
 8003d0a:	463b      	mov	r3, r7
 8003d0c:	4620      	mov	r0, r4
 8003d0e:	4629      	mov	r1, r5
 8003d10:	f001 fd8c 	bl	800582c <__aeabi_dsub>
 8003d14:	4602      	mov	r2, r0
 8003d16:	460b      	mov	r3, r1
 8003d18:	4640      	mov	r0, r8
 8003d1a:	4649      	mov	r1, r9
 8003d1c:	f002 f9ce 	bl	80060bc <__aeabi_dcmpgt>
 8003d20:	2800      	cmp	r0, #0
 8003d22:	f040 81e7 	bne.w	80040f4 <__ieee754_pow+0x9ec>
 8003d26:	46a8      	mov	r8, r5
 8003d28:	ea4f 5328 	mov.w	r3, r8, asr #20
 8003d2c:	f2a3 32fe 	subw	r2, r3, #1022	; 0x3fe
 8003d30:	f44f 1380 	mov.w	r3, #1048576	; 0x100000
 8003d34:	4113      	asrs	r3, r2
 8003d36:	4453      	add	r3, sl
 8003d38:	f3c3 520a 	ubfx	r2, r3, #20, #11
 8003d3c:	4db9      	ldr	r5, [pc, #740]	; (8004024 <__ieee754_pow+0x91c>)
 8003d3e:	f2a2 32ff 	subw	r2, r2, #1023	; 0x3ff
 8003d42:	4115      	asrs	r5, r2
 8003d44:	f3c3 0413 	ubfx	r4, r3, #0, #20
 8003d48:	ea23 0105 	bic.w	r1, r3, r5
 8003d4c:	2000      	movs	r0, #0
 8003d4e:	f1c2 0b14 	rsb	fp, r2, #20
 8003d52:	f444 1480 	orr.w	r4, r4, #1048576	; 0x100000
 8003d56:	f1ba 0f00 	cmp.w	sl, #0
 8003d5a:	4602      	mov	r2, r0
 8003d5c:	460b      	mov	r3, r1
 8003d5e:	fa44 fb0b 	asr.w	fp, r4, fp
 8003d62:	4630      	mov	r0, r6
 8003d64:	4639      	mov	r1, r7
 8003d66:	bfb8      	it	lt
 8003d68:	f1cb 0b00 	rsblt	fp, fp, #0
 8003d6c:	f001 fd5e 	bl	800582c <__aeabi_dsub>
 8003d70:	4606      	mov	r6, r0
 8003d72:	460f      	mov	r7, r1
 8003d74:	4632      	mov	r2, r6
 8003d76:	e9dd 0100 	ldrd	r0, r1, [sp]
 8003d7a:	463b      	mov	r3, r7
 8003d7c:	f001 fd58 	bl	8005830 <__adddf3>
 8003d80:	ea4f 5a0b 	mov.w	sl, fp, lsl #20
 8003d84:	460d      	mov	r5, r1
 8003d86:	2400      	movs	r4, #0
 8003d88:	a38f      	add	r3, pc, #572	; (adr r3, 8003fc8 <__ieee754_pow+0x8c0>)
 8003d8a:	e9d3 2300 	ldrd	r2, r3, [r3]
 8003d8e:	4620      	mov	r0, r4
 8003d90:	4629      	mov	r1, r5
 8003d92:	f001 ff03 	bl	8005b9c <__aeabi_dmul>
 8003d96:	4632      	mov	r2, r6
 8003d98:	4680      	mov	r8, r0
 8003d9a:	4689      	mov	r9, r1
 8003d9c:	463b      	mov	r3, r7
 8003d9e:	4620      	mov	r0, r4
 8003da0:	4629      	mov	r1, r5
 8003da2:	f001 fd43 	bl	800582c <__aeabi_dsub>
 8003da6:	4602      	mov	r2, r0
 8003da8:	460b      	mov	r3, r1
 8003daa:	e9dd 0100 	ldrd	r0, r1, [sp]
 8003dae:	f001 fd3d 	bl	800582c <__aeabi_dsub>
 8003db2:	a387      	add	r3, pc, #540	; (adr r3, 8003fd0 <__ieee754_pow+0x8c8>)
 8003db4:	e9d3 2300 	ldrd	r2, r3, [r3]
 8003db8:	f001 fef0 	bl	8005b9c <__aeabi_dmul>
 8003dbc:	a386      	add	r3, pc, #536	; (adr r3, 8003fd8 <__ieee754_pow+0x8d0>)
 8003dbe:	e9d3 2300 	ldrd	r2, r3, [r3]
 8003dc2:	4606      	mov	r6, r0
 8003dc4:	460f      	mov	r7, r1
 8003dc6:	4620      	mov	r0, r4
 8003dc8:	4629      	mov	r1, r5
 8003dca:	f001 fee7 	bl	8005b9c <__aeabi_dmul>
 8003dce:	4602      	mov	r2, r0
 8003dd0:	460b      	mov	r3, r1
 8003dd2:	4630      	mov	r0, r6
 8003dd4:	4639      	mov	r1, r7
 8003dd6:	f001 fd2b 	bl	8005830 <__adddf3>
 8003dda:	4606      	mov	r6, r0
 8003ddc:	460f      	mov	r7, r1
 8003dde:	4602      	mov	r2, r0
 8003de0:	460b      	mov	r3, r1
 8003de2:	4640      	mov	r0, r8
 8003de4:	4649      	mov	r1, r9
 8003de6:	f001 fd23 	bl	8005830 <__adddf3>
 8003dea:	4642      	mov	r2, r8
 8003dec:	464b      	mov	r3, r9
 8003dee:	4604      	mov	r4, r0
 8003df0:	460d      	mov	r5, r1
 8003df2:	f001 fd1b 	bl	800582c <__aeabi_dsub>
 8003df6:	4602      	mov	r2, r0
 8003df8:	460b      	mov	r3, r1
 8003dfa:	4630      	mov	r0, r6
 8003dfc:	4639      	mov	r1, r7
 8003dfe:	f001 fd15 	bl	800582c <__aeabi_dsub>
 8003e02:	4622      	mov	r2, r4
 8003e04:	4680      	mov	r8, r0
 8003e06:	4689      	mov	r9, r1
 8003e08:	462b      	mov	r3, r5
 8003e0a:	4620      	mov	r0, r4
 8003e0c:	4629      	mov	r1, r5
 8003e0e:	f001 fec5 	bl	8005b9c <__aeabi_dmul>
 8003e12:	a373      	add	r3, pc, #460	; (adr r3, 8003fe0 <__ieee754_pow+0x8d8>)
 8003e14:	e9d3 2300 	ldrd	r2, r3, [r3]
 8003e18:	4606      	mov	r6, r0
 8003e1a:	460f      	mov	r7, r1
 8003e1c:	f001 febe 	bl	8005b9c <__aeabi_dmul>
 8003e20:	a371      	add	r3, pc, #452	; (adr r3, 8003fe8 <__ieee754_pow+0x8e0>)
 8003e22:	e9d3 2300 	ldrd	r2, r3, [r3]
 8003e26:	f001 fd01 	bl	800582c <__aeabi_dsub>
 8003e2a:	4632      	mov	r2, r6
 8003e2c:	463b      	mov	r3, r7
 8003e2e:	f001 feb5 	bl	8005b9c <__aeabi_dmul>
 8003e32:	a36f      	add	r3, pc, #444	; (adr r3, 8003ff0 <__ieee754_pow+0x8e8>)
 8003e34:	e9d3 2300 	ldrd	r2, r3, [r3]
 8003e38:	f001 fcfa 	bl	8005830 <__adddf3>
 8003e3c:	4632      	mov	r2, r6
 8003e3e:	463b      	mov	r3, r7
 8003e40:	f001 feac 	bl	8005b9c <__aeabi_dmul>
 8003e44:	a36c      	add	r3, pc, #432	; (adr r3, 8003ff8 <__ieee754_pow+0x8f0>)
 8003e46:	e9d3 2300 	ldrd	r2, r3, [r3]
 8003e4a:	f001 fcef 	bl	800582c <__aeabi_dsub>
 8003e4e:	4632      	mov	r2, r6
 8003e50:	463b      	mov	r3, r7
 8003e52:	f001 fea3 	bl	8005b9c <__aeabi_dmul>
 8003e56:	a36a      	add	r3, pc, #424	; (adr r3, 8004000 <__ieee754_pow+0x8f8>)
 8003e58:	e9d3 2300 	ldrd	r2, r3, [r3]
 8003e5c:	f001 fce8 	bl	8005830 <__adddf3>
 8003e60:	4632      	mov	r2, r6
 8003e62:	463b      	mov	r3, r7
 8003e64:	f001 fe9a 	bl	8005b9c <__aeabi_dmul>
 8003e68:	4602      	mov	r2, r0
 8003e6a:	460b      	mov	r3, r1
 8003e6c:	4620      	mov	r0, r4
 8003e6e:	4629      	mov	r1, r5
 8003e70:	f001 fcdc 	bl	800582c <__aeabi_dsub>
 8003e74:	4606      	mov	r6, r0
 8003e76:	460f      	mov	r7, r1
 8003e78:	4602      	mov	r2, r0
 8003e7a:	460b      	mov	r3, r1
 8003e7c:	4620      	mov	r0, r4
 8003e7e:	4629      	mov	r1, r5
 8003e80:	f001 fe8c 	bl	8005b9c <__aeabi_dmul>
 8003e84:	2200      	movs	r2, #0
 8003e86:	e9cd 0100 	strd	r0, r1, [sp]
 8003e8a:	f04f 4380 	mov.w	r3, #1073741824	; 0x40000000
 8003e8e:	4630      	mov	r0, r6
 8003e90:	4639      	mov	r1, r7
 8003e92:	f001 fccb 	bl	800582c <__aeabi_dsub>
 8003e96:	4602      	mov	r2, r0
 8003e98:	460b      	mov	r3, r1
 8003e9a:	e9dd 0100 	ldrd	r0, r1, [sp]
 8003e9e:	f001 ffa7 	bl	8005df0 <__aeabi_ddiv>
 8003ea2:	4642      	mov	r2, r8
 8003ea4:	4606      	mov	r6, r0
 8003ea6:	460f      	mov	r7, r1
 8003ea8:	464b      	mov	r3, r9
 8003eaa:	4620      	mov	r0, r4
 8003eac:	4629      	mov	r1, r5
 8003eae:	f001 fe75 	bl	8005b9c <__aeabi_dmul>
 8003eb2:	4642      	mov	r2, r8
 8003eb4:	464b      	mov	r3, r9
 8003eb6:	f001 fcbb 	bl	8005830 <__adddf3>
 8003eba:	4602      	mov	r2, r0
 8003ebc:	460b      	mov	r3, r1
 8003ebe:	4630      	mov	r0, r6
 8003ec0:	4639      	mov	r1, r7
 8003ec2:	f001 fcb3 	bl	800582c <__aeabi_dsub>
 8003ec6:	4622      	mov	r2, r4
 8003ec8:	462b      	mov	r3, r5
 8003eca:	f001 fcaf 	bl	800582c <__aeabi_dsub>
 8003ece:	4602      	mov	r2, r0
 8003ed0:	460b      	mov	r3, r1
 8003ed2:	2000      	movs	r0, #0
 8003ed4:	4954      	ldr	r1, [pc, #336]	; (8004028 <__ieee754_pow+0x920>)
 8003ed6:	f001 fca9 	bl	800582c <__aeabi_dsub>
 8003eda:	448a      	add	sl, r1
 8003edc:	f5ba 1f80 	cmp.w	sl, #1048576	; 0x100000
 8003ee0:	f2c0 8132 	blt.w	8004148 <__ieee754_pow+0xa40>
 8003ee4:	4651      	mov	r1, sl
 8003ee6:	e9dd 2304 	ldrd	r2, r3, [sp, #16]
 8003eea:	f001 fe57 	bl	8005b9c <__aeabi_dmul>
 8003eee:	e423      	b.n	8003738 <__ieee754_pow+0x30>
 8003ef0:	2f00      	cmp	r7, #0
 8003ef2:	f6ff ac45 	blt.w	8003780 <__ieee754_pow+0x78>
 8003ef6:	4640      	mov	r0, r8
 8003ef8:	4649      	mov	r1, r9
 8003efa:	b013      	add	sp, #76	; 0x4c
 8003efc:	e8bd 4ff0 	ldmia.w	sp!, {r4, r5, r6, r7, r8, r9, sl, fp, lr}
 8003f00:	f000 bb78 	b.w	80045f4 <__ieee754_sqrt>
 8003f04:	f1bb 0f00 	cmp.w	fp, #0
 8003f08:	f6bf accf 	bge.w	80038aa <__ieee754_pow+0x1a2>
 8003f0c:	e9dd 3400 	ldrd	r3, r4, [sp]
 8003f10:	4618      	mov	r0, r3
 8003f12:	f104 4100 	add.w	r1, r4, #2147483648	; 0x80000000
 8003f16:	e40f      	b.n	8003738 <__ieee754_pow+0x30>
 8003f18:	4642      	mov	r2, r8
 8003f1a:	464b      	mov	r3, r9
 8003f1c:	2000      	movs	r0, #0
 8003f1e:	4942      	ldr	r1, [pc, #264]	; (8004028 <__ieee754_pow+0x920>)
 8003f20:	f001 ff66 	bl	8005df0 <__aeabi_ddiv>
 8003f24:	e408      	b.n	8003738 <__ieee754_pow+0x30>
 8003f26:	ed9f 7b38 	vldr	d7, [pc, #224]	; 8004008 <__ieee754_pow+0x900>
 8003f2a:	ed8d 7b04 	vstr	d7, [sp, #16]
 8003f2e:	e6a0      	b.n	8003c72 <__ieee754_pow+0x56a>
 8003f30:	4b3e      	ldr	r3, [pc, #248]	; (800402c <__ieee754_pow+0x924>)
 8003f32:	f021 4800 	bic.w	r8, r1, #2147483648	; 0x80000000
 8003f36:	4598      	cmp	r8, r3
 8003f38:	f340 80ea 	ble.w	8004110 <__ieee754_pow+0xa08>
 8003f3c:	4b3c      	ldr	r3, [pc, #240]	; (8004030 <__ieee754_pow+0x928>)
 8003f3e:	440b      	add	r3, r1
 8003f40:	4303      	orrs	r3, r0
 8003f42:	d10a      	bne.n	8003f5a <__ieee754_pow+0x852>
 8003f44:	4632      	mov	r2, r6
 8003f46:	463b      	mov	r3, r7
 8003f48:	f001 fc70 	bl	800582c <__aeabi_dsub>
 8003f4c:	e9dd 2300 	ldrd	r2, r3, [sp]
 8003f50:	f002 f8aa 	bl	80060a8 <__aeabi_dcmpge>
 8003f54:	2800      	cmp	r0, #0
 8003f56:	f43f aee7 	beq.w	8003d28 <__ieee754_pow+0x620>
 8003f5a:	e9dd 0104 	ldrd	r0, r1, [sp, #16]
 8003f5e:	a32c      	add	r3, pc, #176	; (adr r3, 8004010 <__ieee754_pow+0x908>)
 8003f60:	e9d3 2300 	ldrd	r2, r3, [r3]
 8003f64:	f001 fe1a 	bl	8005b9c <__aeabi_dmul>
 8003f68:	a329      	add	r3, pc, #164	; (adr r3, 8004010 <__ieee754_pow+0x908>)
 8003f6a:	e9d3 2300 	ldrd	r2, r3, [r3]
 8003f6e:	f001 fe15 	bl	8005b9c <__aeabi_dmul>
 8003f72:	f7ff bbe1 	b.w	8003738 <__ieee754_pow+0x30>
 8003f76:	f1bc 0f00 	cmp.w	ip, #0
 8003f7a:	f040 80d2 	bne.w	8004122 <__ieee754_pow+0xa1a>
 8003f7e:	f1c3 0314 	rsb	r3, r3, #20
 8003f82:	fa45 f203 	asr.w	r2, r5, r3
 8003f86:	fa02 f303 	lsl.w	r3, r2, r3
 8003f8a:	42ab      	cmp	r3, r5
 8003f8c:	f000 80e0 	beq.w	8004150 <__ieee754_pow+0xa48>
 8003f90:	4666      	mov	r6, ip
 8003f92:	f7ff bbe9 	b.w	8003768 <__ieee754_pow+0x60>
 8003f96:	ed9f 7b20 	vldr	d7, [pc, #128]	; 8004018 <__ieee754_pow+0x910>
 8003f9a:	ed8d 7b08 	vstr	d7, [sp, #32]
 8003f9e:	ed8d 7b10 	vstr	d7, [sp, #64]	; 0x40
 8003fa2:	ed9f 7b05 	vldr	d7, [pc, #20]	; 8003fb8 <__ieee754_pow+0x8b0>
 8003fa6:	2500      	movs	r5, #0
 8003fa8:	ed8d 7b06 	vstr	d7, [sp, #24]
 8003fac:	e4c8      	b.n	8003940 <__ieee754_pow+0x238>
 8003fae:	f04f 0c00 	mov.w	ip, #0
 8003fb2:	e4a2      	b.n	80038fa <__ieee754_pow+0x1f2>
 8003fb4:	f3af 8000 	nop.w
 8003fb8:	00000000 	.word	0x00000000
 8003fbc:	3ff00000 	.word	0x3ff00000
 8003fc0:	652b82fe 	.word	0x652b82fe
 8003fc4:	3c971547 	.word	0x3c971547
 8003fc8:	00000000 	.word	0x00000000
 8003fcc:	3fe62e43 	.word	0x3fe62e43
 8003fd0:	fefa39ef 	.word	0xfefa39ef
 8003fd4:	3fe62e42 	.word	0x3fe62e42
 8003fd8:	0ca86c39 	.word	0x0ca86c39
 8003fdc:	be205c61 	.word	0xbe205c61
 8003fe0:	72bea4d0 	.word	0x72bea4d0
 8003fe4:	3e663769 	.word	0x3e663769
 8003fe8:	c5d26bf1 	.word	0xc5d26bf1
 8003fec:	3ebbbd41 	.word	0x3ebbbd41
 8003ff0:	af25de2c 	.word	0xaf25de2c
 8003ff4:	3f11566a 	.word	0x3f11566a
 8003ff8:	16bebd93 	.word	0x16bebd93
 8003ffc:	3f66c16c 	.word	0x3f66c16c
 8004000:	5555553e 	.word	0x5555553e
 8004004:	3fc55555 	.word	0x3fc55555
 8004008:	00000000 	.word	0x00000000
 800400c:	bff00000 	.word	0xbff00000
 8004010:	c2f8f359 	.word	0xc2f8f359
 8004014:	01a56e1f 	.word	0x01a56e1f
	...
 8004020:	408fffff 	.word	0x408fffff
 8004024:	000fffff 	.word	0x000fffff
 8004028:	3ff00000 	.word	0x3ff00000
 800402c:	4090cbff 	.word	0x4090cbff
 8004030:	3f6f3400 	.word	0x3f6f3400
 8004034:	4b5a      	ldr	r3, [pc, #360]	; (80041a0 <__ieee754_pow+0xa98>)
 8004036:	429c      	cmp	r4, r3
 8004038:	f77f ac34 	ble.w	80038a4 <__ieee754_pow+0x19c>
 800403c:	4b59      	ldr	r3, [pc, #356]	; (80041a4 <__ieee754_pow+0xa9c>)
 800403e:	429c      	cmp	r4, r3
 8004040:	f73f abbd 	bgt.w	80037be <__ieee754_pow+0xb6>
 8004044:	2200      	movs	r2, #0
 8004046:	4b57      	ldr	r3, [pc, #348]	; (80041a4 <__ieee754_pow+0xa9c>)
 8004048:	f001 fbf0 	bl	800582c <__aeabi_dsub>
 800404c:	a344      	add	r3, pc, #272	; (adr r3, 8004160 <__ieee754_pow+0xa58>)
 800404e:	e9d3 2300 	ldrd	r2, r3, [r3]
 8004052:	4604      	mov	r4, r0
 8004054:	460d      	mov	r5, r1
 8004056:	f001 fda1 	bl	8005b9c <__aeabi_dmul>
 800405a:	a343      	add	r3, pc, #268	; (adr r3, 8004168 <__ieee754_pow+0xa60>)
 800405c:	e9d3 2300 	ldrd	r2, r3, [r3]
 8004060:	4682      	mov	sl, r0
 8004062:	468b      	mov	fp, r1
 8004064:	4620      	mov	r0, r4
 8004066:	4629      	mov	r1, r5
 8004068:	f001 fd98 	bl	8005b9c <__aeabi_dmul>
 800406c:	2200      	movs	r2, #0
 800406e:	e9cd 0102 	strd	r0, r1, [sp, #8]
 8004072:	4b4d      	ldr	r3, [pc, #308]	; (80041a8 <__ieee754_pow+0xaa0>)
 8004074:	4620      	mov	r0, r4
 8004076:	4629      	mov	r1, r5
 8004078:	f001 fd90 	bl	8005b9c <__aeabi_dmul>
 800407c:	4602      	mov	r2, r0
 800407e:	460b      	mov	r3, r1
 8004080:	a13b      	add	r1, pc, #236	; (adr r1, 8004170 <__ieee754_pow+0xa68>)
 8004082:	e9d1 0100 	ldrd	r0, r1, [r1]
 8004086:	f001 fbd1 	bl	800582c <__aeabi_dsub>
 800408a:	4622      	mov	r2, r4
 800408c:	462b      	mov	r3, r5
 800408e:	f001 fd85 	bl	8005b9c <__aeabi_dmul>
 8004092:	4602      	mov	r2, r0
 8004094:	460b      	mov	r3, r1
 8004096:	2000      	movs	r0, #0
 8004098:	4944      	ldr	r1, [pc, #272]	; (80041ac <__ieee754_pow+0xaa4>)
 800409a:	f001 fbc7 	bl	800582c <__aeabi_dsub>
 800409e:	4622      	mov	r2, r4
 80040a0:	4680      	mov	r8, r0
 80040a2:	4689      	mov	r9, r1
 80040a4:	462b      	mov	r3, r5
 80040a6:	4620      	mov	r0, r4
 80040a8:	4629      	mov	r1, r5
 80040aa:	f001 fd77 	bl	8005b9c <__aeabi_dmul>
 80040ae:	4602      	mov	r2, r0
 80040b0:	460b      	mov	r3, r1
 80040b2:	4640      	mov	r0, r8
 80040b4:	4649      	mov	r1, r9
 80040b6:	f001 fd71 	bl	8005b9c <__aeabi_dmul>
 80040ba:	a32f      	add	r3, pc, #188	; (adr r3, 8004178 <__ieee754_pow+0xa70>)
 80040bc:	e9d3 2300 	ldrd	r2, r3, [r3]
 80040c0:	f001 fd6c 	bl	8005b9c <__aeabi_dmul>
 80040c4:	4602      	mov	r2, r0
 80040c6:	460b      	mov	r3, r1
 80040c8:	e9dd 0102 	ldrd	r0, r1, [sp, #8]
 80040cc:	f001 fbae 	bl	800582c <__aeabi_dsub>
 80040d0:	4602      	mov	r2, r0
 80040d2:	460b      	mov	r3, r1
 80040d4:	4680      	mov	r8, r0
 80040d6:	4689      	mov	r9, r1
 80040d8:	4650      	mov	r0, sl
 80040da:	4659      	mov	r1, fp
 80040dc:	f001 fba8 	bl	8005830 <__adddf3>
 80040e0:	2000      	movs	r0, #0
 80040e2:	4604      	mov	r4, r0
 80040e4:	460d      	mov	r5, r1
 80040e6:	4652      	mov	r2, sl
 80040e8:	465b      	mov	r3, fp
 80040ea:	e5af      	b.n	8003c4c <__ieee754_pow+0x544>
 80040ec:	4602      	mov	r2, r0
 80040ee:	460b      	mov	r3, r1
 80040f0:	f7ff bbcf 	b.w	8003892 <__ieee754_pow+0x18a>
 80040f4:	e9dd 0104 	ldrd	r0, r1, [sp, #16]
 80040f8:	a321      	add	r3, pc, #132	; (adr r3, 8004180 <__ieee754_pow+0xa78>)
 80040fa:	e9d3 2300 	ldrd	r2, r3, [r3]
 80040fe:	f001 fd4d 	bl	8005b9c <__aeabi_dmul>
 8004102:	a31f      	add	r3, pc, #124	; (adr r3, 8004180 <__ieee754_pow+0xa78>)
 8004104:	e9d3 2300 	ldrd	r2, r3, [r3]
 8004108:	f001 fd48 	bl	8005b9c <__aeabi_dmul>
 800410c:	f7ff bb14 	b.w	8003738 <__ieee754_pow+0x30>
 8004110:	4b26      	ldr	r3, [pc, #152]	; (80041ac <__ieee754_pow+0xaa4>)
 8004112:	4598      	cmp	r8, r3
 8004114:	f73f ae08 	bgt.w	8003d28 <__ieee754_pow+0x620>
 8004118:	e9dd 2302 	ldrd	r2, r3, [sp, #8]
 800411c:	4692      	mov	sl, r2
 800411e:	4693      	mov	fp, r2
 8004120:	e631      	b.n	8003d86 <__ieee754_pow+0x67e>
 8004122:	2600      	movs	r6, #0
 8004124:	f7ff bb2c 	b.w	8003780 <__ieee754_pow+0x78>
 8004128:	ed9f 7b17 	vldr	d7, [pc, #92]	; 8004188 <__ieee754_pow+0xa80>
 800412c:	ed8d 7b08 	vstr	d7, [sp, #32]
 8004130:	ed9f 7b17 	vldr	d7, [pc, #92]	; 8004190 <__ieee754_pow+0xa88>
 8004134:	ed8d 7b10 	vstr	d7, [sp, #64]	; 0x40
 8004138:	ed9f 7b17 	vldr	d7, [pc, #92]	; 8004198 <__ieee754_pow+0xa90>
 800413c:	f44f 2580 	mov.w	r5, #262144	; 0x40000
 8004140:	ed8d 7b06 	vstr	d7, [sp, #24]
 8004144:	f7ff bbfc 	b.w	8003940 <__ieee754_pow+0x238>
 8004148:	465a      	mov	r2, fp
 800414a:	f001 fa15 	bl	8005578 <scalbn>
 800414e:	e6ca      	b.n	8003ee6 <__ieee754_pow+0x7de>
 8004150:	f002 0201 	and.w	r2, r2, #1
 8004154:	f1c2 0602 	rsb	r6, r2, #2
 8004158:	f7ff bb06 	b.w	8003768 <__ieee754_pow+0x60>
 800415c:	f3af 8000 	nop.w
 8004160:	60000000 	.word	0x60000000
 8004164:	3ff71547 	.word	0x3ff71547
 8004168:	f85ddf44 	.word	0xf85ddf44
 800416c:	3e54ae0b 	.word	0x3e54ae0b
 8004170:	55555555 	.word	0x55555555
 8004174:	3fd55555 	.word	0x3fd55555
 8004178:	652b82fe 	.word	0x652b82fe
 800417c:	3ff71547 	.word	0x3ff71547
 8004180:	8800759c 	.word	0x8800759c
 8004184:	7e37e43c 	.word	0x7e37e43c
 8004188:	40000000 	.word	0x40000000
 800418c:	3fe2b803 	.word	0x3fe2b803
 8004190:	43cfd006 	.word	0x43cfd006
 8004194:	3e4cfdeb 	.word	0x3e4cfdeb
 8004198:	00000000 	.word	0x00000000
 800419c:	3ff80000 	.word	0x3ff80000
 80041a0:	3feffffe 	.word	0x3feffffe
 80041a4:	3ff00000 	.word	0x3ff00000
 80041a8:	3fd00000 	.word	0x3fd00000
 80041ac:	3fe00000 	.word	0x3fe00000

080041b0 <__ieee754_rem_pio2>:
 80041b0:	e92d 47f0 	stmdb	sp!, {r4, r5, r6, r7, r8, r9, sl, lr}
 80041b4:	4bca      	ldr	r3, [pc, #808]	; (80044e0 <__ieee754_rem_pio2+0x330>)
 80041b6:	f021 4700 	bic.w	r7, r1, #2147483648	; 0x80000000
 80041ba:	429f      	cmp	r7, r3
 80041bc:	b090      	sub	sp, #64	; 0x40
 80041be:	4680      	mov	r8, r0
 80041c0:	4689      	mov	r9, r1
 80041c2:	f340 808f 	ble.w	80042e4 <__ieee754_rem_pio2+0x134>
 80041c6:	4bc7      	ldr	r3, [pc, #796]	; (80044e4 <__ieee754_rem_pio2+0x334>)
 80041c8:	429f      	cmp	r7, r3
 80041ca:	460c      	mov	r4, r1
 80041cc:	4692      	mov	sl, r2
 80041ce:	dc26      	bgt.n	800421e <__ieee754_rem_pio2+0x6e>
 80041d0:	2900      	cmp	r1, #0
 80041d2:	a3b9      	add	r3, pc, #740	; (adr r3, 80044b8 <__ieee754_rem_pio2+0x308>)
 80041d4:	e9d3 2300 	ldrd	r2, r3, [r3]
 80041d8:	f340 808f 	ble.w	80042fa <__ieee754_rem_pio2+0x14a>
 80041dc:	f001 fb26 	bl	800582c <__aeabi_dsub>
 80041e0:	4bc1      	ldr	r3, [pc, #772]	; (80044e8 <__ieee754_rem_pio2+0x338>)
 80041e2:	429f      	cmp	r7, r3
 80041e4:	4604      	mov	r4, r0
 80041e6:	460d      	mov	r5, r1
 80041e8:	f000 8147 	beq.w	800447a <__ieee754_rem_pio2+0x2ca>
 80041ec:	a3b4      	add	r3, pc, #720	; (adr r3, 80044c0 <__ieee754_rem_pio2+0x310>)
 80041ee:	e9d3 2300 	ldrd	r2, r3, [r3]
 80041f2:	f001 fb1b 	bl	800582c <__aeabi_dsub>
 80041f6:	4602      	mov	r2, r0
 80041f8:	460b      	mov	r3, r1
 80041fa:	e9ca 2300 	strd	r2, r3, [sl]
 80041fe:	4620      	mov	r0, r4
 8004200:	4629      	mov	r1, r5
 8004202:	f001 fb13 	bl	800582c <__aeabi_dsub>
 8004206:	a3ae      	add	r3, pc, #696	; (adr r3, 80044c0 <__ieee754_rem_pio2+0x310>)
 8004208:	e9d3 2300 	ldrd	r2, r3, [r3]
 800420c:	f001 fb0e 	bl	800582c <__aeabi_dsub>
 8004210:	2501      	movs	r5, #1
 8004212:	e9ca 0102 	strd	r0, r1, [sl, #8]
 8004216:	4628      	mov	r0, r5
 8004218:	b010      	add	sp, #64	; 0x40
 800421a:	e8bd 87f0 	ldmia.w	sp!, {r4, r5, r6, r7, r8, r9, sl, pc}
 800421e:	4bb3      	ldr	r3, [pc, #716]	; (80044ec <__ieee754_rem_pio2+0x33c>)
 8004220:	429f      	cmp	r7, r3
 8004222:	f340 8089 	ble.w	8004338 <__ieee754_rem_pio2+0x188>
 8004226:	4bb2      	ldr	r3, [pc, #712]	; (80044f0 <__ieee754_rem_pio2+0x340>)
 8004228:	429f      	cmp	r7, r3
 800422a:	f300 811c 	bgt.w	8004466 <__ieee754_rem_pio2+0x2b6>
 800422e:	153d      	asrs	r5, r7, #20
 8004230:	f2a5 4516 	subw	r5, r5, #1046	; 0x416
 8004234:	eba7 5305 	sub.w	r3, r7, r5, lsl #20
 8004238:	4619      	mov	r1, r3
 800423a:	461f      	mov	r7, r3
 800423c:	4606      	mov	r6, r0
 800423e:	f001 ff5d 	bl	80060fc <__aeabi_d2iz>
 8004242:	f001 fc41 	bl	8005ac8 <__aeabi_i2d>
 8004246:	4680      	mov	r8, r0
 8004248:	4689      	mov	r9, r1
 800424a:	4642      	mov	r2, r8
 800424c:	464b      	mov	r3, r9
 800424e:	4630      	mov	r0, r6
 8004250:	4639      	mov	r1, r7
 8004252:	e9cd 890a 	strd	r8, r9, [sp, #40]	; 0x28
 8004256:	f001 fae9 	bl	800582c <__aeabi_dsub>
 800425a:	2200      	movs	r2, #0
 800425c:	4ba5      	ldr	r3, [pc, #660]	; (80044f4 <__ieee754_rem_pio2+0x344>)
 800425e:	f001 fc9d 	bl	8005b9c <__aeabi_dmul>
 8004262:	4689      	mov	r9, r1
 8004264:	4680      	mov	r8, r0
 8004266:	f001 ff49 	bl	80060fc <__aeabi_d2iz>
 800426a:	f001 fc2d 	bl	8005ac8 <__aeabi_i2d>
 800426e:	4606      	mov	r6, r0
 8004270:	460f      	mov	r7, r1
 8004272:	4632      	mov	r2, r6
 8004274:	463b      	mov	r3, r7
 8004276:	4640      	mov	r0, r8
 8004278:	4649      	mov	r1, r9
 800427a:	e9cd 670c 	strd	r6, r7, [sp, #48]	; 0x30
 800427e:	f001 fad5 	bl	800582c <__aeabi_dsub>
 8004282:	2200      	movs	r2, #0
 8004284:	4b9b      	ldr	r3, [pc, #620]	; (80044f4 <__ieee754_rem_pio2+0x344>)
 8004286:	f001 fc89 	bl	8005b9c <__aeabi_dmul>
 800428a:	2200      	movs	r2, #0
 800428c:	2300      	movs	r3, #0
 800428e:	e9cd 010e 	strd	r0, r1, [sp, #56]	; 0x38
 8004292:	f001 feeb 	bl	800606c <__aeabi_dcmpeq>
 8004296:	2800      	cmp	r0, #0
 8004298:	f000 8160 	beq.w	800455c <__ieee754_rem_pio2+0x3ac>
 800429c:	2300      	movs	r3, #0
 800429e:	4630      	mov	r0, r6
 80042a0:	4639      	mov	r1, r7
 80042a2:	2200      	movs	r2, #0
 80042a4:	f001 fee2 	bl	800606c <__aeabi_dcmpeq>
 80042a8:	2800      	cmp	r0, #0
 80042aa:	bf14      	ite	ne
 80042ac:	2301      	movne	r3, #1
 80042ae:	2302      	moveq	r3, #2
 80042b0:	4a91      	ldr	r2, [pc, #580]	; (80044f8 <__ieee754_rem_pio2+0x348>)
 80042b2:	9201      	str	r2, [sp, #4]
 80042b4:	2102      	movs	r1, #2
 80042b6:	462a      	mov	r2, r5
 80042b8:	9100      	str	r1, [sp, #0]
 80042ba:	a80a      	add	r0, sp, #40	; 0x28
 80042bc:	4651      	mov	r1, sl
 80042be:	f000 fb83 	bl	80049c8 <__kernel_rem_pio2>
 80042c2:	2c00      	cmp	r4, #0
 80042c4:	4605      	mov	r5, r0
 80042c6:	da14      	bge.n	80042f2 <__ieee754_rem_pio2+0x142>
 80042c8:	f8da 2004 	ldr.w	r2, [sl, #4]
 80042cc:	f8da 300c 	ldr.w	r3, [sl, #12]
 80042d0:	f102 4200 	add.w	r2, r2, #2147483648	; 0x80000000
 80042d4:	f103 4300 	add.w	r3, r3, #2147483648	; 0x80000000
 80042d8:	4245      	negs	r5, r0
 80042da:	f8ca 2004 	str.w	r2, [sl, #4]
 80042de:	f8ca 300c 	str.w	r3, [sl, #12]
 80042e2:	e006      	b.n	80042f2 <__ieee754_rem_pio2+0x142>
 80042e4:	2000      	movs	r0, #0
 80042e6:	2100      	movs	r1, #0
 80042e8:	e9c2 8900 	strd	r8, r9, [r2]
 80042ec:	e9c2 0102 	strd	r0, r1, [r2, #8]
 80042f0:	2500      	movs	r5, #0
 80042f2:	4628      	mov	r0, r5
 80042f4:	b010      	add	sp, #64	; 0x40
 80042f6:	e8bd 87f0 	ldmia.w	sp!, {r4, r5, r6, r7, r8, r9, sl, pc}
 80042fa:	f001 fa99 	bl	8005830 <__adddf3>
 80042fe:	4b7a      	ldr	r3, [pc, #488]	; (80044e8 <__ieee754_rem_pio2+0x338>)
 8004300:	429f      	cmp	r7, r3
 8004302:	4604      	mov	r4, r0
 8004304:	460d      	mov	r5, r1
 8004306:	f000 810b 	beq.w	8004520 <__ieee754_rem_pio2+0x370>
 800430a:	a36d      	add	r3, pc, #436	; (adr r3, 80044c0 <__ieee754_rem_pio2+0x310>)
 800430c:	e9d3 2300 	ldrd	r2, r3, [r3]
 8004310:	f001 fa8e 	bl	8005830 <__adddf3>
 8004314:	4602      	mov	r2, r0
 8004316:	460b      	mov	r3, r1
 8004318:	e9ca 2300 	strd	r2, r3, [sl]
 800431c:	4629      	mov	r1, r5
 800431e:	4620      	mov	r0, r4
 8004320:	f001 fa84 	bl	800582c <__aeabi_dsub>
 8004324:	a366      	add	r3, pc, #408	; (adr r3, 80044c0 <__ieee754_rem_pio2+0x310>)
 8004326:	e9d3 2300 	ldrd	r2, r3, [r3]
 800432a:	f001 fa81 	bl	8005830 <__adddf3>
 800432e:	f04f 35ff 	mov.w	r5, #4294967295
 8004332:	e9ca 0102 	strd	r0, r1, [sl, #8]
 8004336:	e7dc      	b.n	80042f2 <__ieee754_rem_pio2+0x142>
 8004338:	f000 fffc 	bl	8005334 <fabs>
 800433c:	a362      	add	r3, pc, #392	; (adr r3, 80044c8 <__ieee754_rem_pio2+0x318>)
 800433e:	e9d3 2300 	ldrd	r2, r3, [r3]
 8004342:	4680      	mov	r8, r0
 8004344:	4689      	mov	r9, r1
 8004346:	f001 fc29 	bl	8005b9c <__aeabi_dmul>
 800434a:	2200      	movs	r2, #0
 800434c:	4b6b      	ldr	r3, [pc, #428]	; (80044fc <__ieee754_rem_pio2+0x34c>)
 800434e:	f001 fa6f 	bl	8005830 <__adddf3>
 8004352:	f001 fed3 	bl	80060fc <__aeabi_d2iz>
 8004356:	4605      	mov	r5, r0
 8004358:	f001 fbb6 	bl	8005ac8 <__aeabi_i2d>
 800435c:	a356      	add	r3, pc, #344	; (adr r3, 80044b8 <__ieee754_rem_pio2+0x308>)
 800435e:	e9d3 2300 	ldrd	r2, r3, [r3]
 8004362:	e9cd 0106 	strd	r0, r1, [sp, #24]
 8004366:	f001 fc19 	bl	8005b9c <__aeabi_dmul>
 800436a:	4602      	mov	r2, r0
 800436c:	460b      	mov	r3, r1
 800436e:	4640      	mov	r0, r8
 8004370:	4649      	mov	r1, r9
 8004372:	f001 fa5b 	bl	800582c <__aeabi_dsub>
 8004376:	a352      	add	r3, pc, #328	; (adr r3, 80044c0 <__ieee754_rem_pio2+0x310>)
 8004378:	e9d3 2300 	ldrd	r2, r3, [r3]
 800437c:	4680      	mov	r8, r0
 800437e:	4689      	mov	r9, r1
 8004380:	e9dd 0106 	ldrd	r0, r1, [sp, #24]
 8004384:	e9cd 8902 	strd	r8, r9, [sp, #8]
 8004388:	f001 fc08 	bl	8005b9c <__aeabi_dmul>
 800438c:	2d1f      	cmp	r5, #31
 800438e:	4602      	mov	r2, r0
 8004390:	460b      	mov	r3, r1
 8004392:	e9cd 2304 	strd	r2, r3, [sp, #16]
 8004396:	f340 80b3 	ble.w	8004500 <__ieee754_rem_pio2+0x350>
 800439a:	e9dd 2304 	ldrd	r2, r3, [sp, #16]
 800439e:	e9dd 0102 	ldrd	r0, r1, [sp, #8]
 80043a2:	f001 fa43 	bl	800582c <__aeabi_dsub>
 80043a6:	4680      	mov	r8, r0
 80043a8:	4689      	mov	r9, r1
 80043aa:	153f      	asrs	r7, r7, #20
 80043ac:	f3c9 530a 	ubfx	r3, r9, #20, #11
 80043b0:	1afb      	subs	r3, r7, r3
 80043b2:	2b10      	cmp	r3, #16
 80043b4:	f340 80b1 	ble.w	800451a <__ieee754_rem_pio2+0x36a>
 80043b8:	a345      	add	r3, pc, #276	; (adr r3, 80044d0 <__ieee754_rem_pio2+0x320>)
 80043ba:	e9d3 2300 	ldrd	r2, r3, [r3]
 80043be:	e9dd 0106 	ldrd	r0, r1, [sp, #24]
 80043c2:	f001 fbeb 	bl	8005b9c <__aeabi_dmul>
 80043c6:	4680      	mov	r8, r0
 80043c8:	4689      	mov	r9, r1
 80043ca:	4602      	mov	r2, r0
 80043cc:	460b      	mov	r3, r1
 80043ce:	e9dd 0102 	ldrd	r0, r1, [sp, #8]
 80043d2:	f001 fa2b 	bl	800582c <__aeabi_dsub>
 80043d6:	4602      	mov	r2, r0
 80043d8:	460b      	mov	r3, r1
 80043da:	e9dd 0102 	ldrd	r0, r1, [sp, #8]
 80043de:	e9cd 2308 	strd	r2, r3, [sp, #32]
 80043e2:	f001 fa23 	bl	800582c <__aeabi_dsub>
 80043e6:	4642      	mov	r2, r8
 80043e8:	464b      	mov	r3, r9
 80043ea:	f001 fa1f 	bl	800582c <__aeabi_dsub>
 80043ee:	a33a      	add	r3, pc, #232	; (adr r3, 80044d8 <__ieee754_rem_pio2+0x328>)
 80043f0:	e9d3 2300 	ldrd	r2, r3, [r3]
 80043f4:	4680      	mov	r8, r0
 80043f6:	4689      	mov	r9, r1
 80043f8:	e9dd 0106 	ldrd	r0, r1, [sp, #24]
 80043fc:	f001 fbce 	bl	8005b9c <__aeabi_dmul>
 8004400:	4642      	mov	r2, r8
 8004402:	464b      	mov	r3, r9
 8004404:	f001 fa12 	bl	800582c <__aeabi_dsub>
 8004408:	460b      	mov	r3, r1
 800440a:	e9cd 0104 	strd	r0, r1, [sp, #16]
 800440e:	4602      	mov	r2, r0
 8004410:	e9dd 0108 	ldrd	r0, r1, [sp, #32]
 8004414:	f001 fa0a 	bl	800582c <__aeabi_dsub>
 8004418:	f3c1 530a 	ubfx	r3, r1, #20, #11
 800441c:	1aff      	subs	r7, r7, r3
 800441e:	2f31      	cmp	r7, #49	; 0x31
 8004420:	4680      	mov	r8, r0
 8004422:	4689      	mov	r9, r1
 8004424:	f300 809c 	bgt.w	8004560 <__ieee754_rem_pio2+0x3b0>
 8004428:	ed9d 7b08 	vldr	d7, [sp, #32]
 800442c:	e9ca 8900 	strd	r8, r9, [sl]
 8004430:	ed8d 7b02 	vstr	d7, [sp, #8]
 8004434:	4642      	mov	r2, r8
 8004436:	464b      	mov	r3, r9
 8004438:	e9dd 0102 	ldrd	r0, r1, [sp, #8]
 800443c:	f001 f9f6 	bl	800582c <__aeabi_dsub>
 8004440:	e9dd 2304 	ldrd	r2, r3, [sp, #16]
 8004444:	f001 f9f2 	bl	800582c <__aeabi_dsub>
 8004448:	2c00      	cmp	r4, #0
 800444a:	e9ca 0102 	strd	r0, r1, [sl, #8]
 800444e:	f6bf af50 	bge.w	80042f2 <__ieee754_rem_pio2+0x142>
 8004452:	f109 4400 	add.w	r4, r9, #2147483648	; 0x80000000
 8004456:	f101 4300 	add.w	r3, r1, #2147483648	; 0x80000000
 800445a:	426d      	negs	r5, r5
 800445c:	e9ca 8400 	strd	r8, r4, [sl]
 8004460:	e9ca 0302 	strd	r0, r3, [sl, #8]
 8004464:	e745      	b.n	80042f2 <__ieee754_rem_pio2+0x142>
 8004466:	4602      	mov	r2, r0
 8004468:	460b      	mov	r3, r1
 800446a:	f001 f9df 	bl	800582c <__aeabi_dsub>
 800446e:	2500      	movs	r5, #0
 8004470:	e9ca 0102 	strd	r0, r1, [sl, #8]
 8004474:	e9ca 0100 	strd	r0, r1, [sl]
 8004478:	e73b      	b.n	80042f2 <__ieee754_rem_pio2+0x142>
 800447a:	a315      	add	r3, pc, #84	; (adr r3, 80044d0 <__ieee754_rem_pio2+0x320>)
 800447c:	e9d3 2300 	ldrd	r2, r3, [r3]
 8004480:	f001 f9d4 	bl	800582c <__aeabi_dsub>
 8004484:	a314      	add	r3, pc, #80	; (adr r3, 80044d8 <__ieee754_rem_pio2+0x328>)
 8004486:	e9d3 2300 	ldrd	r2, r3, [r3]
 800448a:	460d      	mov	r5, r1
 800448c:	4604      	mov	r4, r0
 800448e:	f001 f9cd 	bl	800582c <__aeabi_dsub>
 8004492:	4602      	mov	r2, r0
 8004494:	460b      	mov	r3, r1
 8004496:	e9ca 2300 	strd	r2, r3, [sl]
 800449a:	4629      	mov	r1, r5
 800449c:	4620      	mov	r0, r4
 800449e:	f001 f9c5 	bl	800582c <__aeabi_dsub>
 80044a2:	a30d      	add	r3, pc, #52	; (adr r3, 80044d8 <__ieee754_rem_pio2+0x328>)
 80044a4:	e9d3 2300 	ldrd	r2, r3, [r3]
 80044a8:	f001 f9c0 	bl	800582c <__aeabi_dsub>
 80044ac:	2501      	movs	r5, #1
 80044ae:	e9ca 0102 	strd	r0, r1, [sl, #8]
 80044b2:	e71e      	b.n	80042f2 <__ieee754_rem_pio2+0x142>
 80044b4:	f3af 8000 	nop.w
 80044b8:	54400000 	.word	0x54400000
 80044bc:	3ff921fb 	.word	0x3ff921fb
 80044c0:	1a626331 	.word	0x1a626331
 80044c4:	3dd0b461 	.word	0x3dd0b461
 80044c8:	6dc9c883 	.word	0x6dc9c883
 80044cc:	3fe45f30 	.word	0x3fe45f30
 80044d0:	1a600000 	.word	0x1a600000
 80044d4:	3dd0b461 	.word	0x3dd0b461
 80044d8:	2e037073 	.word	0x2e037073
 80044dc:	3ba3198a 	.word	0x3ba3198a
 80044e0:	3fe921fb 	.word	0x3fe921fb
 80044e4:	4002d97b 	.word	0x4002d97b
 80044e8:	3ff921fb 	.word	0x3ff921fb
 80044ec:	413921fb 	.word	0x413921fb
 80044f0:	7fefffff 	.word	0x7fefffff
 80044f4:	41700000 	.word	0x41700000
 80044f8:	080064d0 	.word	0x080064d0
 80044fc:	3fe00000 	.word	0x3fe00000
 8004500:	4640      	mov	r0, r8
 8004502:	4649      	mov	r1, r9
 8004504:	f001 f992 	bl	800582c <__aeabi_dsub>
 8004508:	4b39      	ldr	r3, [pc, #228]	; (80045f0 <__ieee754_rem_pio2+0x440>)
 800450a:	1e6a      	subs	r2, r5, #1
 800450c:	4680      	mov	r8, r0
 800450e:	f853 3022 	ldr.w	r3, [r3, r2, lsl #2]
 8004512:	42bb      	cmp	r3, r7
 8004514:	4689      	mov	r9, r1
 8004516:	f43f af48 	beq.w	80043aa <__ieee754_rem_pio2+0x1fa>
 800451a:	e9ca 8900 	strd	r8, r9, [sl]
 800451e:	e789      	b.n	8004434 <__ieee754_rem_pio2+0x284>
 8004520:	a32b      	add	r3, pc, #172	; (adr r3, 80045d0 <__ieee754_rem_pio2+0x420>)
 8004522:	e9d3 2300 	ldrd	r2, r3, [r3]
 8004526:	f001 f983 	bl	8005830 <__adddf3>
 800452a:	a32b      	add	r3, pc, #172	; (adr r3, 80045d8 <__ieee754_rem_pio2+0x428>)
 800452c:	e9d3 2300 	ldrd	r2, r3, [r3]
 8004530:	460d      	mov	r5, r1
 8004532:	4604      	mov	r4, r0
 8004534:	f001 f97c 	bl	8005830 <__adddf3>
 8004538:	4602      	mov	r2, r0
 800453a:	460b      	mov	r3, r1
 800453c:	e9ca 2300 	strd	r2, r3, [sl]
 8004540:	4629      	mov	r1, r5
 8004542:	4620      	mov	r0, r4
 8004544:	f001 f972 	bl	800582c <__aeabi_dsub>
 8004548:	a323      	add	r3, pc, #140	; (adr r3, 80045d8 <__ieee754_rem_pio2+0x428>)
 800454a:	e9d3 2300 	ldrd	r2, r3, [r3]
 800454e:	f001 f96f 	bl	8005830 <__adddf3>
 8004552:	f04f 35ff 	mov.w	r5, #4294967295
 8004556:	e9ca 0102 	strd	r0, r1, [sl, #8]
 800455a:	e6ca      	b.n	80042f2 <__ieee754_rem_pio2+0x142>
 800455c:	2303      	movs	r3, #3
 800455e:	e6a7      	b.n	80042b0 <__ieee754_rem_pio2+0x100>
 8004560:	a31f      	add	r3, pc, #124	; (adr r3, 80045e0 <__ieee754_rem_pio2+0x430>)
 8004562:	e9d3 2300 	ldrd	r2, r3, [r3]
 8004566:	e9dd 0106 	ldrd	r0, r1, [sp, #24]
 800456a:	f001 fb17 	bl	8005b9c <__aeabi_dmul>
 800456e:	4606      	mov	r6, r0
 8004570:	460f      	mov	r7, r1
 8004572:	4602      	mov	r2, r0
 8004574:	460b      	mov	r3, r1
 8004576:	e9dd 0108 	ldrd	r0, r1, [sp, #32]
 800457a:	f001 f957 	bl	800582c <__aeabi_dsub>
 800457e:	4680      	mov	r8, r0
 8004580:	4689      	mov	r9, r1
 8004582:	4602      	mov	r2, r0
 8004584:	460b      	mov	r3, r1
 8004586:	e9dd 0108 	ldrd	r0, r1, [sp, #32]
 800458a:	e9cd 8902 	strd	r8, r9, [sp, #8]
 800458e:	f001 f94d 	bl	800582c <__aeabi_dsub>
 8004592:	4632      	mov	r2, r6
 8004594:	463b      	mov	r3, r7
 8004596:	f001 f949 	bl	800582c <__aeabi_dsub>
 800459a:	a313      	add	r3, pc, #76	; (adr r3, 80045e8 <__ieee754_rem_pio2+0x438>)
 800459c:	e9d3 2300 	ldrd	r2, r3, [r3]
 80045a0:	4606      	mov	r6, r0
 80045a2:	460f      	mov	r7, r1
 80045a4:	e9dd 0106 	ldrd	r0, r1, [sp, #24]
 80045a8:	f001 faf8 	bl	8005b9c <__aeabi_dmul>
 80045ac:	4632      	mov	r2, r6
 80045ae:	463b      	mov	r3, r7
 80045b0:	f001 f93c 	bl	800582c <__aeabi_dsub>
 80045b4:	4602      	mov	r2, r0
 80045b6:	460b      	mov	r3, r1
 80045b8:	4640      	mov	r0, r8
 80045ba:	4649      	mov	r1, r9
 80045bc:	e9cd 2304 	strd	r2, r3, [sp, #16]
 80045c0:	f001 f934 	bl	800582c <__aeabi_dsub>
 80045c4:	4680      	mov	r8, r0
 80045c6:	4689      	mov	r9, r1
 80045c8:	e7a7      	b.n	800451a <__ieee754_rem_pio2+0x36a>
 80045ca:	bf00      	nop
 80045cc:	f3af 8000 	nop.w
 80045d0:	1a600000 	.word	0x1a600000
 80045d4:	3dd0b461 	.word	0x3dd0b461
 80045d8:	2e037073 	.word	0x2e037073
 80045dc:	3ba3198a 	.word	0x3ba3198a
 80045e0:	2e000000 	.word	0x2e000000
 80045e4:	3ba3198a 	.word	0x3ba3198a
 80045e8:	252049c1 	.word	0x252049c1
 80045ec:	397b839a 	.word	0x397b839a
 80045f0:	08006450 	.word	0x08006450

080045f4 <__ieee754_sqrt>:
 80045f4:	4a5e      	ldr	r2, [pc, #376]	; (8004770 <__ieee754_sqrt+0x17c>)
 80045f6:	438a      	bics	r2, r1
 80045f8:	e92d 41f0 	stmdb	sp!, {r4, r5, r6, r7, r8, lr}
 80045fc:	4604      	mov	r4, r0
 80045fe:	460d      	mov	r5, r1
 8004600:	f000 8095 	beq.w	800472e <__ieee754_sqrt+0x13a>
 8004604:	2900      	cmp	r1, #0
 8004606:	460b      	mov	r3, r1
 8004608:	4606      	mov	r6, r0
 800460a:	4684      	mov	ip, r0
 800460c:	dd56      	ble.n	80046bc <__ieee754_sqrt+0xc8>
 800460e:	150f      	asrs	r7, r1, #20
 8004610:	f000 80a5 	beq.w	800475e <__ieee754_sqrt+0x16a>
 8004614:	f3c3 0313 	ubfx	r3, r3, #0, #20
 8004618:	f2a7 37ff 	subw	r7, r7, #1023	; 0x3ff
 800461c:	f443 1380 	orr.w	r3, r3, #1048576	; 0x100000
 8004620:	ea4f 72dc 	mov.w	r2, ip, lsr #31
 8004624:	07f8      	lsls	r0, r7, #31
 8004626:	eb02 0343 	add.w	r3, r2, r3, lsl #1
 800462a:	ea4f 054c 	mov.w	r5, ip, lsl #1
 800462e:	d504      	bpl.n	800463a <__ieee754_sqrt+0x46>
 8004630:	0fed      	lsrs	r5, r5, #31
 8004632:	eb05 0343 	add.w	r3, r5, r3, lsl #1
 8004636:	ea4f 058c 	mov.w	r5, ip, lsl #2
 800463a:	2600      	movs	r6, #0
 800463c:	107f      	asrs	r7, r7, #1
 800463e:	46b4      	mov	ip, r6
 8004640:	2216      	movs	r2, #22
 8004642:	f44f 1100 	mov.w	r1, #2097152	; 0x200000
 8004646:	eb0c 0001 	add.w	r0, ip, r1
 800464a:	4298      	cmp	r0, r3
 800464c:	ea4f 74d5 	mov.w	r4, r5, lsr #31
 8004650:	ea4f 0545 	mov.w	r5, r5, lsl #1
 8004654:	dc03      	bgt.n	800465e <__ieee754_sqrt+0x6a>
 8004656:	1a1b      	subs	r3, r3, r0
 8004658:	eb00 0c01 	add.w	ip, r0, r1
 800465c:	440e      	add	r6, r1
 800465e:	3a01      	subs	r2, #1
 8004660:	eb04 0343 	add.w	r3, r4, r3, lsl #1
 8004664:	ea4f 0151 	mov.w	r1, r1, lsr #1
 8004668:	d1ed      	bne.n	8004646 <__ieee754_sqrt+0x52>
 800466a:	4610      	mov	r0, r2
 800466c:	4696      	mov	lr, r2
 800466e:	2420      	movs	r4, #32
 8004670:	f04f 4200 	mov.w	r2, #2147483648	; 0x80000000
 8004674:	e009      	b.n	800468a <__ieee754_sqrt+0x96>
 8004676:	d051      	beq.n	800471c <__ieee754_sqrt+0x128>
 8004678:	005b      	lsls	r3, r3, #1
 800467a:	3c01      	subs	r4, #1
 800467c:	eb03 73d5 	add.w	r3, r3, r5, lsr #31
 8004680:	ea4f 0252 	mov.w	r2, r2, lsr #1
 8004684:	ea4f 0545 	mov.w	r5, r5, lsl #1
 8004688:	d037      	beq.n	80046fa <__ieee754_sqrt+0x106>
 800468a:	4563      	cmp	r3, ip
 800468c:	eb02 010e 	add.w	r1, r2, lr
 8004690:	ddf1      	ble.n	8004676 <__ieee754_sqrt+0x82>
 8004692:	2900      	cmp	r1, #0
 8004694:	eb01 0e02 	add.w	lr, r1, r2
 8004698:	db0a      	blt.n	80046b0 <__ieee754_sqrt+0xbc>
 800469a:	46e0      	mov	r8, ip
 800469c:	eba3 030c 	sub.w	r3, r3, ip
 80046a0:	42a9      	cmp	r1, r5
 80046a2:	bf88      	it	hi
 80046a4:	f103 33ff 	addhi.w	r3, r3, #4294967295
 80046a8:	1a6d      	subs	r5, r5, r1
 80046aa:	4410      	add	r0, r2
 80046ac:	46c4      	mov	ip, r8
 80046ae:	e7e3      	b.n	8004678 <__ieee754_sqrt+0x84>
 80046b0:	f1be 0f00 	cmp.w	lr, #0
 80046b4:	dbf1      	blt.n	800469a <__ieee754_sqrt+0xa6>
 80046b6:	f10c 0801 	add.w	r8, ip, #1
 80046ba:	e7ef      	b.n	800469c <__ieee754_sqrt+0xa8>
 80046bc:	f021 4200 	bic.w	r2, r1, #2147483648	; 0x80000000
 80046c0:	4302      	orrs	r2, r0
 80046c2:	d029      	beq.n	8004718 <__ieee754_sqrt+0x124>
 80046c4:	2900      	cmp	r1, #0
 80046c6:	d142      	bne.n	800474e <__ieee754_sqrt+0x15a>
 80046c8:	4601      	mov	r1, r0
 80046ca:	0aca      	lsrs	r2, r1, #11
 80046cc:	3b15      	subs	r3, #21
 80046ce:	0549      	lsls	r1, r1, #21
 80046d0:	2a00      	cmp	r2, #0
 80046d2:	d0fa      	beq.n	80046ca <__ieee754_sqrt+0xd6>
 80046d4:	f412 1080 	ands.w	r0, r2, #1048576	; 0x100000
 80046d8:	d001      	beq.n	80046de <__ieee754_sqrt+0xea>
 80046da:	e044      	b.n	8004766 <__ieee754_sqrt+0x172>
 80046dc:	4660      	mov	r0, ip
 80046de:	0052      	lsls	r2, r2, #1
 80046e0:	02d4      	lsls	r4, r2, #11
 80046e2:	f100 0c01 	add.w	ip, r0, #1
 80046e6:	d5f9      	bpl.n	80046dc <__ieee754_sqrt+0xe8>
 80046e8:	f1cc 0420 	rsb	r4, ip, #32
 80046ec:	fa01 fc0c 	lsl.w	ip, r1, ip
 80046f0:	40e1      	lsrs	r1, r4
 80046f2:	1a1f      	subs	r7, r3, r0
 80046f4:	ea41 0302 	orr.w	r3, r1, r2
 80046f8:	e78c      	b.n	8004614 <__ieee754_sqrt+0x20>
 80046fa:	432b      	orrs	r3, r5
 80046fc:	d121      	bne.n	8004742 <__ieee754_sqrt+0x14e>
 80046fe:	0844      	lsrs	r4, r0, #1
 8004700:	1073      	asrs	r3, r6, #1
 8004702:	f103 537f 	add.w	r3, r3, #1069547520	; 0x3fc00000
 8004706:	07f2      	lsls	r2, r6, #31
 8004708:	f503 1300 	add.w	r3, r3, #2097152	; 0x200000
 800470c:	bf48      	it	mi
 800470e:	f044 4400 	orrmi.w	r4, r4, #2147483648	; 0x80000000
 8004712:	eb03 5107 	add.w	r1, r3, r7, lsl #20
 8004716:	4620      	mov	r0, r4
 8004718:	e8bd 81f0 	ldmia.w	sp!, {r4, r5, r6, r7, r8, pc}
 800471c:	42a9      	cmp	r1, r5
 800471e:	d8ab      	bhi.n	8004678 <__ieee754_sqrt+0x84>
 8004720:	2900      	cmp	r1, #0
 8004722:	eb01 0e02 	add.w	lr, r1, r2
 8004726:	dbc3      	blt.n	80046b0 <__ieee754_sqrt+0xbc>
 8004728:	4698      	mov	r8, r3
 800472a:	2300      	movs	r3, #0
 800472c:	e7bc      	b.n	80046a8 <__ieee754_sqrt+0xb4>
 800472e:	4602      	mov	r2, r0
 8004730:	460b      	mov	r3, r1
 8004732:	f001 fa33 	bl	8005b9c <__aeabi_dmul>
 8004736:	4622      	mov	r2, r4
 8004738:	462b      	mov	r3, r5
 800473a:	f001 f879 	bl	8005830 <__adddf3>
 800473e:	e8bd 81f0 	ldmia.w	sp!, {r4, r5, r6, r7, r8, pc}
 8004742:	1c41      	adds	r1, r0, #1
 8004744:	bf16      	itet	ne
 8004746:	1c42      	addne	r2, r0, #1
 8004748:	3601      	addeq	r6, #1
 800474a:	0854      	lsrne	r4, r2, #1
 800474c:	e7d8      	b.n	8004700 <__ieee754_sqrt+0x10c>
 800474e:	4602      	mov	r2, r0
 8004750:	f001 f86c 	bl	800582c <__aeabi_dsub>
 8004754:	4602      	mov	r2, r0
 8004756:	460b      	mov	r3, r1
 8004758:	f001 fb4a 	bl	8005df0 <__aeabi_ddiv>
 800475c:	e7dc      	b.n	8004718 <__ieee754_sqrt+0x124>
 800475e:	461a      	mov	r2, r3
 8004760:	4631      	mov	r1, r6
 8004762:	463b      	mov	r3, r7
 8004764:	e7b6      	b.n	80046d4 <__ieee754_sqrt+0xe0>
 8004766:	468c      	mov	ip, r1
 8004768:	2420      	movs	r4, #32
 800476a:	f04f 30ff 	mov.w	r0, #4294967295
 800476e:	e7bf      	b.n	80046f0 <__ieee754_sqrt+0xfc>
 8004770:	7ff00000 	.word	0x7ff00000
 8004774:	00000000 	.word	0x00000000

08004778 <__kernel_cos>:
 8004778:	e92d 4ff0 	stmdb	sp!, {r4, r5, r6, r7, r8, r9, sl, fp, lr}
 800477c:	f021 4800 	bic.w	r8, r1, #2147483648	; 0x80000000
 8004780:	f1b8 5f79 	cmp.w	r8, #1044381696	; 0x3e400000
 8004784:	b085      	sub	sp, #20
 8004786:	4606      	mov	r6, r0
 8004788:	460f      	mov	r7, r1
 800478a:	4692      	mov	sl, r2
 800478c:	469b      	mov	fp, r3
 800478e:	da6b      	bge.n	8004868 <__kernel_cos+0xf0>
 8004790:	f001 fcb4 	bl	80060fc <__aeabi_d2iz>
 8004794:	2800      	cmp	r0, #0
 8004796:	f000 80e1 	beq.w	800495c <__kernel_cos+0x1e4>
 800479a:	4632      	mov	r2, r6
 800479c:	463b      	mov	r3, r7
 800479e:	4630      	mov	r0, r6
 80047a0:	4639      	mov	r1, r7
 80047a2:	f001 f9fb 	bl	8005b9c <__aeabi_dmul>
 80047a6:	a374      	add	r3, pc, #464	; (adr r3, 8004978 <__kernel_cos+0x200>)
 80047a8:	e9d3 2300 	ldrd	r2, r3, [r3]
 80047ac:	4604      	mov	r4, r0
 80047ae:	460d      	mov	r5, r1
 80047b0:	f001 f9f4 	bl	8005b9c <__aeabi_dmul>
 80047b4:	a372      	add	r3, pc, #456	; (adr r3, 8004980 <__kernel_cos+0x208>)
 80047b6:	e9d3 2300 	ldrd	r2, r3, [r3]
 80047ba:	f001 f839 	bl	8005830 <__adddf3>
 80047be:	4622      	mov	r2, r4
 80047c0:	462b      	mov	r3, r5
 80047c2:	f001 f9eb 	bl	8005b9c <__aeabi_dmul>
 80047c6:	a370      	add	r3, pc, #448	; (adr r3, 8004988 <__kernel_cos+0x210>)
 80047c8:	e9d3 2300 	ldrd	r2, r3, [r3]
 80047cc:	f001 f82e 	bl	800582c <__aeabi_dsub>
 80047d0:	4622      	mov	r2, r4
 80047d2:	462b      	mov	r3, r5
 80047d4:	f001 f9e2 	bl	8005b9c <__aeabi_dmul>
 80047d8:	a36d      	add	r3, pc, #436	; (adr r3, 8004990 <__kernel_cos+0x218>)
 80047da:	e9d3 2300 	ldrd	r2, r3, [r3]
 80047de:	f001 f827 	bl	8005830 <__adddf3>
 80047e2:	4622      	mov	r2, r4
 80047e4:	462b      	mov	r3, r5
 80047e6:	f001 f9d9 	bl	8005b9c <__aeabi_dmul>
 80047ea:	a36b      	add	r3, pc, #428	; (adr r3, 8004998 <__kernel_cos+0x220>)
 80047ec:	e9d3 2300 	ldrd	r2, r3, [r3]
 80047f0:	f001 f81c 	bl	800582c <__aeabi_dsub>
 80047f4:	4622      	mov	r2, r4
 80047f6:	462b      	mov	r3, r5
 80047f8:	f001 f9d0 	bl	8005b9c <__aeabi_dmul>
 80047fc:	a368      	add	r3, pc, #416	; (adr r3, 80049a0 <__kernel_cos+0x228>)
 80047fe:	e9d3 2300 	ldrd	r2, r3, [r3]
 8004802:	f001 f815 	bl	8005830 <__adddf3>
 8004806:	4622      	mov	r2, r4
 8004808:	462b      	mov	r3, r5
 800480a:	f001 f9c7 	bl	8005b9c <__aeabi_dmul>
 800480e:	e9cd 0100 	strd	r0, r1, [sp]
 8004812:	2200      	movs	r2, #0
 8004814:	4b66      	ldr	r3, [pc, #408]	; (80049b0 <__kernel_cos+0x238>)
 8004816:	4620      	mov	r0, r4
 8004818:	4629      	mov	r1, r5
 800481a:	f001 f9bf 	bl	8005b9c <__aeabi_dmul>
 800481e:	e9dd 2300 	ldrd	r2, r3, [sp]
 8004822:	4680      	mov	r8, r0
 8004824:	4689      	mov	r9, r1
 8004826:	4620      	mov	r0, r4
 8004828:	4629      	mov	r1, r5
 800482a:	f001 f9b7 	bl	8005b9c <__aeabi_dmul>
 800482e:	4652      	mov	r2, sl
 8004830:	4604      	mov	r4, r0
 8004832:	460d      	mov	r5, r1
 8004834:	465b      	mov	r3, fp
 8004836:	4630      	mov	r0, r6
 8004838:	4639      	mov	r1, r7
 800483a:	f001 f9af 	bl	8005b9c <__aeabi_dmul>
 800483e:	4602      	mov	r2, r0
 8004840:	460b      	mov	r3, r1
 8004842:	4620      	mov	r0, r4
 8004844:	4629      	mov	r1, r5
 8004846:	f000 fff1 	bl	800582c <__aeabi_dsub>
 800484a:	4602      	mov	r2, r0
 800484c:	460b      	mov	r3, r1
 800484e:	4640      	mov	r0, r8
 8004850:	4649      	mov	r1, r9
 8004852:	f000 ffeb 	bl	800582c <__aeabi_dsub>
 8004856:	4602      	mov	r2, r0
 8004858:	460b      	mov	r3, r1
 800485a:	2000      	movs	r0, #0
 800485c:	4955      	ldr	r1, [pc, #340]	; (80049b4 <__kernel_cos+0x23c>)
 800485e:	f000 ffe5 	bl	800582c <__aeabi_dsub>
 8004862:	b005      	add	sp, #20
 8004864:	e8bd 8ff0 	ldmia.w	sp!, {r4, r5, r6, r7, r8, r9, sl, fp, pc}
 8004868:	4602      	mov	r2, r0
 800486a:	460b      	mov	r3, r1
 800486c:	f001 f996 	bl	8005b9c <__aeabi_dmul>
 8004870:	a341      	add	r3, pc, #260	; (adr r3, 8004978 <__kernel_cos+0x200>)
 8004872:	e9d3 2300 	ldrd	r2, r3, [r3]
 8004876:	4604      	mov	r4, r0
 8004878:	460d      	mov	r5, r1
 800487a:	f001 f98f 	bl	8005b9c <__aeabi_dmul>
 800487e:	a340      	add	r3, pc, #256	; (adr r3, 8004980 <__kernel_cos+0x208>)
 8004880:	e9d3 2300 	ldrd	r2, r3, [r3]
 8004884:	f000 ffd4 	bl	8005830 <__adddf3>
 8004888:	4622      	mov	r2, r4
 800488a:	462b      	mov	r3, r5
 800488c:	f001 f986 	bl	8005b9c <__aeabi_dmul>
 8004890:	a33d      	add	r3, pc, #244	; (adr r3, 8004988 <__kernel_cos+0x210>)
 8004892:	e9d3 2300 	ldrd	r2, r3, [r3]
 8004896:	f000 ffc9 	bl	800582c <__aeabi_dsub>
 800489a:	4622      	mov	r2, r4
 800489c:	462b      	mov	r3, r5
 800489e:	f001 f97d 	bl	8005b9c <__aeabi_dmul>
 80048a2:	a33b      	add	r3, pc, #236	; (adr r3, 8004990 <__kernel_cos+0x218>)
 80048a4:	e9d3 2300 	ldrd	r2, r3, [r3]
 80048a8:	f000 ffc2 	bl	8005830 <__adddf3>
 80048ac:	4622      	mov	r2, r4
 80048ae:	462b      	mov	r3, r5
 80048b0:	f001 f974 	bl	8005b9c <__aeabi_dmul>
 80048b4:	a338      	add	r3, pc, #224	; (adr r3, 8004998 <__kernel_cos+0x220>)
 80048b6:	e9d3 2300 	ldrd	r2, r3, [r3]
 80048ba:	f000 ffb7 	bl	800582c <__aeabi_dsub>
 80048be:	4622      	mov	r2, r4
 80048c0:	462b      	mov	r3, r5
 80048c2:	f001 f96b 	bl	8005b9c <__aeabi_dmul>
 80048c6:	a336      	add	r3, pc, #216	; (adr r3, 80049a0 <__kernel_cos+0x228>)
 80048c8:	e9d3 2300 	ldrd	r2, r3, [r3]
 80048cc:	f000 ffb0 	bl	8005830 <__adddf3>
 80048d0:	462b      	mov	r3, r5
 80048d2:	4622      	mov	r2, r4
 80048d4:	f001 f962 	bl	8005b9c <__aeabi_dmul>
 80048d8:	4b37      	ldr	r3, [pc, #220]	; (80049b8 <__kernel_cos+0x240>)
 80048da:	4598      	cmp	r8, r3
 80048dc:	e9cd 0100 	strd	r0, r1, [sp]
 80048e0:	dd97      	ble.n	8004812 <__kernel_cos+0x9a>
 80048e2:	4b36      	ldr	r3, [pc, #216]	; (80049bc <__kernel_cos+0x244>)
 80048e4:	4598      	cmp	r8, r3
 80048e6:	dc3e      	bgt.n	8004966 <__kernel_cos+0x1ee>
 80048e8:	f5a8 1300 	sub.w	r3, r8, #2097152	; 0x200000
 80048ec:	2200      	movs	r2, #0
 80048ee:	2000      	movs	r0, #0
 80048f0:	4930      	ldr	r1, [pc, #192]	; (80049b4 <__kernel_cos+0x23c>)
 80048f2:	4690      	mov	r8, r2
 80048f4:	4699      	mov	r9, r3
 80048f6:	f000 ff99 	bl	800582c <__aeabi_dsub>
 80048fa:	e9cd 0102 	strd	r0, r1, [sp, #8]
 80048fe:	2200      	movs	r2, #0
 8004900:	4b2b      	ldr	r3, [pc, #172]	; (80049b0 <__kernel_cos+0x238>)
 8004902:	4620      	mov	r0, r4
 8004904:	4629      	mov	r1, r5
 8004906:	f001 f949 	bl	8005b9c <__aeabi_dmul>
 800490a:	4642      	mov	r2, r8
 800490c:	464b      	mov	r3, r9
 800490e:	f000 ff8d 	bl	800582c <__aeabi_dsub>
 8004912:	e9dd 2300 	ldrd	r2, r3, [sp]
 8004916:	4680      	mov	r8, r0
 8004918:	4689      	mov	r9, r1
 800491a:	4620      	mov	r0, r4
 800491c:	4629      	mov	r1, r5
 800491e:	f001 f93d 	bl	8005b9c <__aeabi_dmul>
 8004922:	4652      	mov	r2, sl
 8004924:	4604      	mov	r4, r0
 8004926:	460d      	mov	r5, r1
 8004928:	465b      	mov	r3, fp
 800492a:	4630      	mov	r0, r6
 800492c:	4639      	mov	r1, r7
 800492e:	f001 f935 	bl	8005b9c <__aeabi_dmul>
 8004932:	4602      	mov	r2, r0
 8004934:	460b      	mov	r3, r1
 8004936:	4620      	mov	r0, r4
 8004938:	4629      	mov	r1, r5
 800493a:	f000 ff77 	bl	800582c <__aeabi_dsub>
 800493e:	4602      	mov	r2, r0
 8004940:	460b      	mov	r3, r1
 8004942:	4640      	mov	r0, r8
 8004944:	4649      	mov	r1, r9
 8004946:	f000 ff71 	bl	800582c <__aeabi_dsub>
 800494a:	4602      	mov	r2, r0
 800494c:	460b      	mov	r3, r1
 800494e:	e9dd 0102 	ldrd	r0, r1, [sp, #8]
 8004952:	f000 ff6b 	bl	800582c <__aeabi_dsub>
 8004956:	b005      	add	sp, #20
 8004958:	e8bd 8ff0 	ldmia.w	sp!, {r4, r5, r6, r7, r8, r9, sl, fp, pc}
 800495c:	4915      	ldr	r1, [pc, #84]	; (80049b4 <__kernel_cos+0x23c>)
 800495e:	2000      	movs	r0, #0
 8004960:	b005      	add	sp, #20
 8004962:	e8bd 8ff0 	ldmia.w	sp!, {r4, r5, r6, r7, r8, r9, sl, fp, pc}
 8004966:	ed9f 7b10 	vldr	d7, [pc, #64]	; 80049a8 <__kernel_cos+0x230>
 800496a:	f04f 0800 	mov.w	r8, #0
 800496e:	ed8d 7b02 	vstr	d7, [sp, #8]
 8004972:	f8df 904c 	ldr.w	r9, [pc, #76]	; 80049c0 <__kernel_cos+0x248>
 8004976:	e7c2      	b.n	80048fe <__kernel_cos+0x186>
 8004978:	be8838d4 	.word	0xbe8838d4
 800497c:	bda8fae9 	.word	0xbda8fae9
 8004980:	bdb4b1c4 	.word	0xbdb4b1c4
 8004984:	3e21ee9e 	.word	0x3e21ee9e
 8004988:	809c52ad 	.word	0x809c52ad
 800498c:	3e927e4f 	.word	0x3e927e4f
 8004990:	19cb1590 	.word	0x19cb1590
 8004994:	3efa01a0 	.word	0x3efa01a0
 8004998:	16c15177 	.word	0x16c15177
 800499c:	3f56c16c 	.word	0x3f56c16c
 80049a0:	5555554c 	.word	0x5555554c
 80049a4:	3fa55555 	.word	0x3fa55555
 80049a8:	00000000 	.word	0x00000000
 80049ac:	3fe70000 	.word	0x3fe70000
 80049b0:	3fe00000 	.word	0x3fe00000
 80049b4:	3ff00000 	.word	0x3ff00000
 80049b8:	3fd33332 	.word	0x3fd33332
 80049bc:	3fe90000 	.word	0x3fe90000
 80049c0:	3fd20000 	.word	0x3fd20000
 80049c4:	00000000 	.word	0x00000000

080049c8 <__kernel_rem_pio2>:
 80049c8:	e92d 4ff0 	stmdb	sp!, {r4, r5, r6, r7, r8, r9, sl, fp, lr}
 80049cc:	f5ad 7d19 	sub.w	sp, sp, #612	; 0x264
 80049d0:	4cbe      	ldr	r4, [pc, #760]	; (8004ccc <__kernel_rem_pio2+0x304>)
 80049d2:	9ea2      	ldr	r6, [sp, #648]	; 0x288
 80049d4:	4dbe      	ldr	r5, [pc, #760]	; (8004cd0 <__kernel_rem_pio2+0x308>)
 80049d6:	f854 6026 	ldr.w	r6, [r4, r6, lsl #2]
 80049da:	9307      	str	r3, [sp, #28]
 80049dc:	1ed4      	subs	r4, r2, #3
 80049de:	fb85 7504 	smull	r7, r5, r5, r4
 80049e2:	17e4      	asrs	r4, r4, #31
 80049e4:	ebc4 04a5 	rsb	r4, r4, r5, asr #2
 80049e8:	ea24 74e4 	bic.w	r4, r4, r4, asr #31
 80049ec:	461d      	mov	r5, r3
 80049ee:	1c63      	adds	r3, r4, #1
 80049f0:	eba3 0383 	sub.w	r3, r3, r3, lsl #2
 80049f4:	3d01      	subs	r5, #1
 80049f6:	eb02 03c3 	add.w	r3, r2, r3, lsl #3
 80049fa:	9305      	str	r3, [sp, #20]
 80049fc:	1973      	adds	r3, r6, r5
 80049fe:	9604      	str	r6, [sp, #16]
 8004a00:	9409      	str	r4, [sp, #36]	; 0x24
 8004a02:	9501      	str	r5, [sp, #4]
 8004a04:	9003      	str	r0, [sp, #12]
 8004a06:	910b      	str	r1, [sp, #44]	; 0x2c
 8004a08:	eba4 0705 	sub.w	r7, r4, r5
 8004a0c:	d41a      	bmi.n	8004a44 <__kernel_rem_pio2+0x7c>
 8004a0e:	443b      	add	r3, r7
 8004a10:	2400      	movs	r4, #0
 8004a12:	2500      	movs	r5, #0
 8004a14:	1c5e      	adds	r6, r3, #1
 8004a16:	f10d 0880 	add.w	r8, sp, #128	; 0x80
 8004a1a:	f8dd 928c 	ldr.w	r9, [sp, #652]	; 0x28c
 8004a1e:	e008      	b.n	8004a32 <__kernel_rem_pio2+0x6a>
 8004a20:	f859 0027 	ldr.w	r0, [r9, r7, lsl #2]
 8004a24:	f001 f850 	bl	8005ac8 <__aeabi_i2d>
 8004a28:	3701      	adds	r7, #1
 8004a2a:	42b7      	cmp	r7, r6
 8004a2c:	e8e8 0102 	strd	r0, r1, [r8], #8
 8004a30:	d008      	beq.n	8004a44 <__kernel_rem_pio2+0x7c>
 8004a32:	2f00      	cmp	r7, #0
 8004a34:	daf4      	bge.n	8004a20 <__kernel_rem_pio2+0x58>
 8004a36:	3701      	adds	r7, #1
 8004a38:	4620      	mov	r0, r4
 8004a3a:	4629      	mov	r1, r5
 8004a3c:	42b7      	cmp	r7, r6
 8004a3e:	e8e8 0102 	strd	r0, r1, [r8], #8
 8004a42:	d1f6      	bne.n	8004a32 <__kernel_rem_pio2+0x6a>
 8004a44:	9b04      	ldr	r3, [sp, #16]
 8004a46:	2b00      	cmp	r3, #0
 8004a48:	9b07      	ldr	r3, [sp, #28]
 8004a4a:	ea4f 03c3 	mov.w	r3, r3, lsl #3
 8004a4e:	9302      	str	r3, [sp, #8]
 8004a50:	db2a      	blt.n	8004aa8 <__kernel_rem_pio2+0xe0>
 8004a52:	9a03      	ldr	r2, [sp, #12]
 8004a54:	a920      	add	r1, sp, #128	; 0x80
 8004a56:	eb02 0803 	add.w	r8, r2, r3
 8004a5a:	eb01 0903 	add.w	r9, r1, r3
 8004a5e:	9b04      	ldr	r3, [sp, #16]
 8004a60:	aa72      	add	r2, sp, #456	; 0x1c8
 8004a62:	eb02 0bc3 	add.w	fp, r2, r3, lsl #3
 8004a66:	f50d 7ae0 	add.w	sl, sp, #448	; 0x1c0
 8004a6a:	9b01      	ldr	r3, [sp, #4]
 8004a6c:	2b00      	cmp	r3, #0
 8004a6e:	f04f 0600 	mov.w	r6, #0
 8004a72:	f04f 0700 	mov.w	r7, #0
 8004a76:	db11      	blt.n	8004a9c <__kernel_rem_pio2+0xd4>
 8004a78:	9c03      	ldr	r4, [sp, #12]
 8004a7a:	464d      	mov	r5, r9
 8004a7c:	e975 2302 	ldrd	r2, r3, [r5, #-8]!
 8004a80:	e8f4 0102 	ldrd	r0, r1, [r4], #8
 8004a84:	f001 f88a 	bl	8005b9c <__aeabi_dmul>
 8004a88:	4602      	mov	r2, r0
 8004a8a:	460b      	mov	r3, r1
 8004a8c:	4630      	mov	r0, r6
 8004a8e:	4639      	mov	r1, r7
 8004a90:	f000 fece 	bl	8005830 <__adddf3>
 8004a94:	4544      	cmp	r4, r8
 8004a96:	4606      	mov	r6, r0
 8004a98:	460f      	mov	r7, r1
 8004a9a:	d1ef      	bne.n	8004a7c <__kernel_rem_pio2+0xb4>
 8004a9c:	e8ea 6702 	strd	r6, r7, [sl], #8
 8004aa0:	45da      	cmp	sl, fp
 8004aa2:	f109 0908 	add.w	r9, r9, #8
 8004aa6:	d1e0      	bne.n	8004a6a <__kernel_rem_pio2+0xa2>
 8004aa8:	e9dd 0402 	ldrd	r0, r4, [sp, #8]
 8004aac:	9904      	ldr	r1, [sp, #16]
 8004aae:	4420      	add	r0, r4
 8004ab0:	008b      	lsls	r3, r1, #2
 8004ab2:	4682      	mov	sl, r0
 8004ab4:	a80b      	add	r0, sp, #44	; 0x2c
 8004ab6:	f1a3 0208 	sub.w	r2, r3, #8
 8004aba:	18c3      	adds	r3, r0, r3
 8004abc:	9308      	str	r3, [sp, #32]
 8004abe:	ab0c      	add	r3, sp, #48	; 0x30
 8004ac0:	4413      	add	r3, r2
 8004ac2:	930a      	str	r3, [sp, #40]	; 0x28
 8004ac4:	468b      	mov	fp, r1
 8004ac6:	ab98      	add	r3, sp, #608	; 0x260
 8004ac8:	eb03 03cb 	add.w	r3, r3, fp, lsl #3
 8004acc:	f1bb 0f00 	cmp.w	fp, #0
 8004ad0:	e953 4528 	ldrd	r4, r5, [r3, #-160]	; 0xa0
 8004ad4:	dd29      	ble.n	8004b2a <__kernel_rem_pio2+0x162>
 8004ad6:	ab70      	add	r3, sp, #448	; 0x1c0
 8004ad8:	eb03 08cb 	add.w	r8, r3, fp, lsl #3
 8004adc:	f10d 0930 	add.w	r9, sp, #48	; 0x30
 8004ae0:	2200      	movs	r2, #0
 8004ae2:	4b7c      	ldr	r3, [pc, #496]	; (8004cd4 <__kernel_rem_pio2+0x30c>)
 8004ae4:	4620      	mov	r0, r4
 8004ae6:	4629      	mov	r1, r5
 8004ae8:	f001 f858 	bl	8005b9c <__aeabi_dmul>
 8004aec:	f001 fb06 	bl	80060fc <__aeabi_d2iz>
 8004af0:	f000 ffea 	bl	8005ac8 <__aeabi_i2d>
 8004af4:	2200      	movs	r2, #0
 8004af6:	4b78      	ldr	r3, [pc, #480]	; (8004cd8 <__kernel_rem_pio2+0x310>)
 8004af8:	4606      	mov	r6, r0
 8004afa:	460f      	mov	r7, r1
 8004afc:	f001 f84e 	bl	8005b9c <__aeabi_dmul>
 8004b00:	4602      	mov	r2, r0
 8004b02:	460b      	mov	r3, r1
 8004b04:	4620      	mov	r0, r4
 8004b06:	4629      	mov	r1, r5
 8004b08:	f000 fe90 	bl	800582c <__aeabi_dsub>
 8004b0c:	f001 faf6 	bl	80060fc <__aeabi_d2iz>
 8004b10:	e978 2302 	ldrd	r2, r3, [r8, #-8]!
 8004b14:	f849 0b04 	str.w	r0, [r9], #4
 8004b18:	4639      	mov	r1, r7
 8004b1a:	4630      	mov	r0, r6
 8004b1c:	f000 fe88 	bl	8005830 <__adddf3>
 8004b20:	ab70      	add	r3, sp, #448	; 0x1c0
 8004b22:	4598      	cmp	r8, r3
 8004b24:	4604      	mov	r4, r0
 8004b26:	460d      	mov	r5, r1
 8004b28:	d1da      	bne.n	8004ae0 <__kernel_rem_pio2+0x118>
 8004b2a:	f8dd 9014 	ldr.w	r9, [sp, #20]
 8004b2e:	4620      	mov	r0, r4
 8004b30:	4629      	mov	r1, r5
 8004b32:	464a      	mov	r2, r9
 8004b34:	f000 fd20 	bl	8005578 <scalbn>
 8004b38:	2200      	movs	r2, #0
 8004b3a:	f04f 537f 	mov.w	r3, #1069547520	; 0x3fc00000
 8004b3e:	4604      	mov	r4, r0
 8004b40:	460d      	mov	r5, r1
 8004b42:	f001 f82b 	bl	8005b9c <__aeabi_dmul>
 8004b46:	f000 fbff 	bl	8005348 <floor>
 8004b4a:	2200      	movs	r2, #0
 8004b4c:	4b63      	ldr	r3, [pc, #396]	; (8004cdc <__kernel_rem_pio2+0x314>)
 8004b4e:	f001 f825 	bl	8005b9c <__aeabi_dmul>
 8004b52:	4602      	mov	r2, r0
 8004b54:	460b      	mov	r3, r1
 8004b56:	4620      	mov	r0, r4
 8004b58:	4629      	mov	r1, r5
 8004b5a:	f000 fe67 	bl	800582c <__aeabi_dsub>
 8004b5e:	460d      	mov	r5, r1
 8004b60:	4604      	mov	r4, r0
 8004b62:	f001 facb 	bl	80060fc <__aeabi_d2iz>
 8004b66:	4680      	mov	r8, r0
 8004b68:	f000 ffae 	bl	8005ac8 <__aeabi_i2d>
 8004b6c:	460b      	mov	r3, r1
 8004b6e:	4602      	mov	r2, r0
 8004b70:	4629      	mov	r1, r5
 8004b72:	4620      	mov	r0, r4
 8004b74:	f000 fe5a 	bl	800582c <__aeabi_dsub>
 8004b78:	464b      	mov	r3, r9
 8004b7a:	2b00      	cmp	r3, #0
 8004b7c:	4606      	mov	r6, r0
 8004b7e:	460f      	mov	r7, r1
 8004b80:	f340 80e1 	ble.w	8004d46 <__kernel_rem_pio2+0x37e>
 8004b84:	f10b 32ff 	add.w	r2, fp, #4294967295
 8004b88:	a90c      	add	r1, sp, #48	; 0x30
 8004b8a:	f1c9 0318 	rsb	r3, r9, #24
 8004b8e:	f851 5022 	ldr.w	r5, [r1, r2, lsl #2]
 8004b92:	fa45 f103 	asr.w	r1, r5, r3
 8004b96:	fa01 f303 	lsl.w	r3, r1, r3
 8004b9a:	a80c      	add	r0, sp, #48	; 0x30
 8004b9c:	1aeb      	subs	r3, r5, r3
 8004b9e:	f840 3022 	str.w	r3, [r0, r2, lsl #2]
 8004ba2:	f1c9 0517 	rsb	r5, r9, #23
 8004ba6:	4488      	add	r8, r1
 8004ba8:	fa43 f505 	asr.w	r5, r3, r5
 8004bac:	2d00      	cmp	r5, #0
 8004bae:	dd2c      	ble.n	8004c0a <__kernel_rem_pio2+0x242>
 8004bb0:	f1bb 0f00 	cmp.w	fp, #0
 8004bb4:	f108 0801 	add.w	r8, r8, #1
 8004bb8:	f340 8281 	ble.w	80050be <__kernel_rem_pio2+0x6f6>
 8004bbc:	9c0c      	ldr	r4, [sp, #48]	; 0x30
 8004bbe:	2c00      	cmp	r4, #0
 8004bc0:	f040 80a7 	bne.w	8004d12 <__kernel_rem_pio2+0x34a>
 8004bc4:	f1bb 0f01 	cmp.w	fp, #1
 8004bc8:	d00a      	beq.n	8004be0 <__kernel_rem_pio2+0x218>
 8004bca:	a90c      	add	r1, sp, #48	; 0x30
 8004bcc:	2201      	movs	r2, #1
 8004bce:	f851 4f04 	ldr.w	r4, [r1, #4]!
 8004bd2:	1c53      	adds	r3, r2, #1
 8004bd4:	2c00      	cmp	r4, #0
 8004bd6:	f040 809e 	bne.w	8004d16 <__kernel_rem_pio2+0x34e>
 8004bda:	459b      	cmp	fp, r3
 8004bdc:	461a      	mov	r2, r3
 8004bde:	d1f6      	bne.n	8004bce <__kernel_rem_pio2+0x206>
 8004be0:	9b05      	ldr	r3, [sp, #20]
 8004be2:	2b00      	cmp	r3, #0
 8004be4:	dd0e      	ble.n	8004c04 <__kernel_rem_pio2+0x23c>
 8004be6:	2b01      	cmp	r3, #1
 8004be8:	f000 80d9 	beq.w	8004d9e <__kernel_rem_pio2+0x3d6>
 8004bec:	2b02      	cmp	r3, #2
 8004bee:	d109      	bne.n	8004c04 <__kernel_rem_pio2+0x23c>
 8004bf0:	f10b 32ff 	add.w	r2, fp, #4294967295
 8004bf4:	ab0c      	add	r3, sp, #48	; 0x30
 8004bf6:	a90c      	add	r1, sp, #48	; 0x30
 8004bf8:	f853 3022 	ldr.w	r3, [r3, r2, lsl #2]
 8004bfc:	f3c3 0315 	ubfx	r3, r3, #0, #22
 8004c00:	f841 3022 	str.w	r3, [r1, r2, lsl #2]
 8004c04:	2d02      	cmp	r5, #2
 8004c06:	f000 80af 	beq.w	8004d68 <__kernel_rem_pio2+0x3a0>
 8004c0a:	2200      	movs	r2, #0
 8004c0c:	2300      	movs	r3, #0
 8004c0e:	4630      	mov	r0, r6
 8004c10:	4639      	mov	r1, r7
 8004c12:	f001 fa2b 	bl	800606c <__aeabi_dcmpeq>
 8004c16:	2800      	cmp	r0, #0
 8004c18:	f000 8253 	beq.w	80050c2 <__kernel_rem_pio2+0x6fa>
 8004c1c:	9b04      	ldr	r3, [sp, #16]
 8004c1e:	f10b 39ff 	add.w	r9, fp, #4294967295
 8004c22:	454b      	cmp	r3, r9
 8004c24:	dc10      	bgt.n	8004c48 <__kernel_rem_pio2+0x280>
 8004c26:	f10b 4380 	add.w	r3, fp, #1073741824	; 0x40000000
 8004c2a:	aa0c      	add	r2, sp, #48	; 0x30
 8004c2c:	3b01      	subs	r3, #1
 8004c2e:	9808      	ldr	r0, [sp, #32]
 8004c30:	eb02 0383 	add.w	r3, r2, r3, lsl #2
 8004c34:	2200      	movs	r2, #0
 8004c36:	f853 1904 	ldr.w	r1, [r3], #-4
 8004c3a:	4283      	cmp	r3, r0
 8004c3c:	ea42 0201 	orr.w	r2, r2, r1
 8004c40:	d1f9      	bne.n	8004c36 <__kernel_rem_pio2+0x26e>
 8004c42:	2a00      	cmp	r2, #0
 8004c44:	f040 80b6 	bne.w	8004db4 <__kernel_rem_pio2+0x3ec>
 8004c48:	9b04      	ldr	r3, [sp, #16]
 8004c4a:	aa0c      	add	r2, sp, #48	; 0x30
 8004c4c:	3b01      	subs	r3, #1
 8004c4e:	f852 3023 	ldr.w	r3, [r2, r3, lsl #2]
 8004c52:	2b00      	cmp	r3, #0
 8004c54:	f040 80a1 	bne.w	8004d9a <__kernel_rem_pio2+0x3d2>
 8004c58:	9a0a      	ldr	r2, [sp, #40]	; 0x28
 8004c5a:	2301      	movs	r3, #1
 8004c5c:	f852 1904 	ldr.w	r1, [r2], #-4
 8004c60:	3301      	adds	r3, #1
 8004c62:	2900      	cmp	r1, #0
 8004c64:	d0fa      	beq.n	8004c5c <__kernel_rem_pio2+0x294>
 8004c66:	445b      	add	r3, fp
 8004c68:	f10b 0901 	add.w	r9, fp, #1
 8004c6c:	4599      	cmp	r9, r3
 8004c6e:	9306      	str	r3, [sp, #24]
 8004c70:	dc4c      	bgt.n	8004d0c <__kernel_rem_pio2+0x344>
 8004c72:	9a09      	ldr	r2, [sp, #36]	; 0x24
 8004c74:	9907      	ldr	r1, [sp, #28]
 8004c76:	eb09 0802 	add.w	r8, r9, r2
 8004c7a:	eb01 050b 	add.w	r5, r1, fp
 8004c7e:	f108 4880 	add.w	r8, r8, #1073741824	; 0x40000000
 8004c82:	eb02 0b03 	add.w	fp, r2, r3
 8004c86:	9ba3      	ldr	r3, [sp, #652]	; 0x28c
 8004c88:	f108 38ff 	add.w	r8, r8, #4294967295
 8004c8c:	eb03 0888 	add.w	r8, r3, r8, lsl #2
 8004c90:	ab70      	add	r3, sp, #448	; 0x1c0
 8004c92:	eb03 09c9 	add.w	r9, r3, r9, lsl #3
 8004c96:	9ba3      	ldr	r3, [sp, #652]	; 0x28c
 8004c98:	a920      	add	r1, sp, #128	; 0x80
 8004c9a:	eb03 038b 	add.w	r3, r3, fp, lsl #2
 8004c9e:	eb01 05c5 	add.w	r5, r1, r5, lsl #3
 8004ca2:	9302      	str	r3, [sp, #8]
 8004ca4:	f858 0f04 	ldr.w	r0, [r8, #4]!
 8004ca8:	f000 ff0e 	bl	8005ac8 <__aeabi_i2d>
 8004cac:	460b      	mov	r3, r1
 8004cae:	9901      	ldr	r1, [sp, #4]
 8004cb0:	4602      	mov	r2, r0
 8004cb2:	2900      	cmp	r1, #0
 8004cb4:	f105 0b08 	add.w	fp, r5, #8
 8004cb8:	e9c5 2300 	strd	r2, r3, [r5]
 8004cbc:	f04f 0600 	mov.w	r6, #0
 8004cc0:	f04f 0700 	mov.w	r7, #0
 8004cc4:	db1c      	blt.n	8004d00 <__kernel_rem_pio2+0x338>
 8004cc6:	9c03      	ldr	r4, [sp, #12]
 8004cc8:	e00c      	b.n	8004ce4 <__kernel_rem_pio2+0x31c>
 8004cca:	bf00      	nop
 8004ccc:	08006618 	.word	0x08006618
 8004cd0:	2aaaaaab 	.word	0x2aaaaaab
 8004cd4:	3e700000 	.word	0x3e700000
 8004cd8:	41700000 	.word	0x41700000
 8004cdc:	40200000 	.word	0x40200000
 8004ce0:	e975 2302 	ldrd	r2, r3, [r5, #-8]!
 8004ce4:	e8f4 0102 	ldrd	r0, r1, [r4], #8
 8004ce8:	f000 ff58 	bl	8005b9c <__aeabi_dmul>
 8004cec:	4602      	mov	r2, r0
 8004cee:	460b      	mov	r3, r1
 8004cf0:	4630      	mov	r0, r6
 8004cf2:	4639      	mov	r1, r7
 8004cf4:	f000 fd9c 	bl	8005830 <__adddf3>
 8004cf8:	4554      	cmp	r4, sl
 8004cfa:	4606      	mov	r6, r0
 8004cfc:	460f      	mov	r7, r1
 8004cfe:	d1ef      	bne.n	8004ce0 <__kernel_rem_pio2+0x318>
 8004d00:	9b02      	ldr	r3, [sp, #8]
 8004d02:	4598      	cmp	r8, r3
 8004d04:	e8e9 6702 	strd	r6, r7, [r9], #8
 8004d08:	465d      	mov	r5, fp
 8004d0a:	d1cb      	bne.n	8004ca4 <__kernel_rem_pio2+0x2dc>
 8004d0c:	f8dd b018 	ldr.w	fp, [sp, #24]
 8004d10:	e6d9      	b.n	8004ac6 <__kernel_rem_pio2+0xfe>
 8004d12:	2301      	movs	r3, #1
 8004d14:	2200      	movs	r2, #0
 8004d16:	a90c      	add	r1, sp, #48	; 0x30
 8004d18:	f1c4 7480 	rsb	r4, r4, #16777216	; 0x1000000
 8004d1c:	459b      	cmp	fp, r3
 8004d1e:	f841 4022 	str.w	r4, [r1, r2, lsl #2]
 8004d22:	dd0e      	ble.n	8004d42 <__kernel_rem_pio2+0x37a>
 8004d24:	f851 2023 	ldr.w	r2, [r1, r3, lsl #2]
 8004d28:	eb01 008b 	add.w	r0, r1, fp, lsl #2
 8004d2c:	eb01 0383 	add.w	r3, r1, r3, lsl #2
 8004d30:	f06f 417f 	mvn.w	r1, #4278190080	; 0xff000000
 8004d34:	e000      	b.n	8004d38 <__kernel_rem_pio2+0x370>
 8004d36:	681a      	ldr	r2, [r3, #0]
 8004d38:	1a8a      	subs	r2, r1, r2
 8004d3a:	f843 2b04 	str.w	r2, [r3], #4
 8004d3e:	4283      	cmp	r3, r0
 8004d40:	d1f9      	bne.n	8004d36 <__kernel_rem_pio2+0x36e>
 8004d42:	2401      	movs	r4, #1
 8004d44:	e74c      	b.n	8004be0 <__kernel_rem_pio2+0x218>
 8004d46:	d106      	bne.n	8004d56 <__kernel_rem_pio2+0x38e>
 8004d48:	f10b 33ff 	add.w	r3, fp, #4294967295
 8004d4c:	aa0c      	add	r2, sp, #48	; 0x30
 8004d4e:	f852 5023 	ldr.w	r5, [r2, r3, lsl #2]
 8004d52:	15ed      	asrs	r5, r5, #23
 8004d54:	e72a      	b.n	8004bac <__kernel_rem_pio2+0x1e4>
 8004d56:	2200      	movs	r2, #0
 8004d58:	4b7b      	ldr	r3, [pc, #492]	; (8004f48 <__kernel_rem_pio2+0x580>)
 8004d5a:	f001 f9a5 	bl	80060a8 <__aeabi_dcmpge>
 8004d5e:	2800      	cmp	r0, #0
 8004d60:	f040 81a3 	bne.w	80050aa <__kernel_rem_pio2+0x6e2>
 8004d64:	4605      	mov	r5, r0
 8004d66:	e750      	b.n	8004c0a <__kernel_rem_pio2+0x242>
 8004d68:	4632      	mov	r2, r6
 8004d6a:	463b      	mov	r3, r7
 8004d6c:	2000      	movs	r0, #0
 8004d6e:	4977      	ldr	r1, [pc, #476]	; (8004f4c <__kernel_rem_pio2+0x584>)
 8004d70:	f000 fd5c 	bl	800582c <__aeabi_dsub>
 8004d74:	4606      	mov	r6, r0
 8004d76:	460f      	mov	r7, r1
 8004d78:	2c00      	cmp	r4, #0
 8004d7a:	f43f af46 	beq.w	8004c0a <__kernel_rem_pio2+0x242>
 8004d7e:	9a05      	ldr	r2, [sp, #20]
 8004d80:	4972      	ldr	r1, [pc, #456]	; (8004f4c <__kernel_rem_pio2+0x584>)
 8004d82:	2000      	movs	r0, #0
 8004d84:	f000 fbf8 	bl	8005578 <scalbn>
 8004d88:	4602      	mov	r2, r0
 8004d8a:	460b      	mov	r3, r1
 8004d8c:	4630      	mov	r0, r6
 8004d8e:	4639      	mov	r1, r7
 8004d90:	f000 fd4c 	bl	800582c <__aeabi_dsub>
 8004d94:	4606      	mov	r6, r0
 8004d96:	460f      	mov	r7, r1
 8004d98:	e737      	b.n	8004c0a <__kernel_rem_pio2+0x242>
 8004d9a:	2301      	movs	r3, #1
 8004d9c:	e763      	b.n	8004c66 <__kernel_rem_pio2+0x29e>
 8004d9e:	f10b 32ff 	add.w	r2, fp, #4294967295
 8004da2:	ab0c      	add	r3, sp, #48	; 0x30
 8004da4:	a90c      	add	r1, sp, #48	; 0x30
 8004da6:	f853 3022 	ldr.w	r3, [r3, r2, lsl #2]
 8004daa:	f3c3 0316 	ubfx	r3, r3, #0, #23
 8004dae:	f841 3022 	str.w	r3, [r1, r2, lsl #2]
 8004db2:	e727      	b.n	8004c04 <__kernel_rem_pio2+0x23c>
 8004db4:	ab0c      	add	r3, sp, #48	; 0x30
 8004db6:	9a05      	ldr	r2, [sp, #20]
 8004db8:	f853 3029 	ldr.w	r3, [r3, r9, lsl #2]
 8004dbc:	3a18      	subs	r2, #24
 8004dbe:	e9cd 8506 	strd	r8, r5, [sp, #24]
 8004dc2:	9205      	str	r2, [sp, #20]
 8004dc4:	b96b      	cbnz	r3, 8004de2 <__kernel_rem_pio2+0x41a>
 8004dc6:	f109 4380 	add.w	r3, r9, #1073741824	; 0x40000000
 8004dca:	3b01      	subs	r3, #1
 8004dcc:	a90c      	add	r1, sp, #48	; 0x30
 8004dce:	eb01 0383 	add.w	r3, r1, r3, lsl #2
 8004dd2:	f853 1904 	ldr.w	r1, [r3], #-4
 8004dd6:	f109 39ff 	add.w	r9, r9, #4294967295
 8004dda:	3a18      	subs	r2, #24
 8004ddc:	2900      	cmp	r1, #0
 8004dde:	d0f8      	beq.n	8004dd2 <__kernel_rem_pio2+0x40a>
 8004de0:	9205      	str	r2, [sp, #20]
 8004de2:	9a05      	ldr	r2, [sp, #20]
 8004de4:	4959      	ldr	r1, [pc, #356]	; (8004f4c <__kernel_rem_pio2+0x584>)
 8004de6:	2000      	movs	r0, #0
 8004de8:	f000 fbc6 	bl	8005578 <scalbn>
 8004dec:	f1b9 0f00 	cmp.w	r9, #0
 8004df0:	4604      	mov	r4, r0
 8004df2:	460d      	mov	r5, r1
 8004df4:	f2c0 81c0 	blt.w	8005178 <__kernel_rem_pio2+0x7b0>
 8004df8:	ea4f 03c9 	mov.w	r3, r9, lsl #3
 8004dfc:	aa70      	add	r2, sp, #448	; 0x1c0
 8004dfe:	eb02 0803 	add.w	r8, r2, r3
 8004e02:	9308      	str	r3, [sp, #32]
 8004e04:	ab0c      	add	r3, sp, #48	; 0x30
 8004e06:	eb03 0689 	add.w	r6, r3, r9, lsl #2
 8004e0a:	f8df b144 	ldr.w	fp, [pc, #324]	; 8004f50 <__kernel_rem_pio2+0x588>
 8004e0e:	f04f 0a00 	mov.w	sl, #0
 8004e12:	f108 0708 	add.w	r7, r8, #8
 8004e16:	3604      	adds	r6, #4
 8004e18:	f856 0d04 	ldr.w	r0, [r6, #-4]!
 8004e1c:	f000 fe54 	bl	8005ac8 <__aeabi_i2d>
 8004e20:	4622      	mov	r2, r4
 8004e22:	462b      	mov	r3, r5
 8004e24:	f000 feba 	bl	8005b9c <__aeabi_dmul>
 8004e28:	465b      	mov	r3, fp
 8004e2a:	e967 0102 	strd	r0, r1, [r7, #-8]!
 8004e2e:	4652      	mov	r2, sl
 8004e30:	4620      	mov	r0, r4
 8004e32:	4629      	mov	r1, r5
 8004e34:	f000 feb2 	bl	8005b9c <__aeabi_dmul>
 8004e38:	ab0c      	add	r3, sp, #48	; 0x30
 8004e3a:	429e      	cmp	r6, r3
 8004e3c:	4604      	mov	r4, r0
 8004e3e:	460d      	mov	r5, r1
 8004e40:	d1ea      	bne.n	8004e18 <__kernel_rem_pio2+0x450>
 8004e42:	ab48      	add	r3, sp, #288	; 0x120
 8004e44:	9303      	str	r3, [sp, #12]
 8004e46:	9301      	str	r3, [sp, #4]
 8004e48:	f8cd 9014 	str.w	r9, [sp, #20]
 8004e4c:	f109 0301 	add.w	r3, r9, #1
 8004e50:	f8dd 9010 	ldr.w	r9, [sp, #16]
 8004e54:	9302      	str	r3, [sp, #8]
 8004e56:	46c3      	mov	fp, r8
 8004e58:	f04f 0a00 	mov.w	sl, #0
 8004e5c:	f1b9 0f00 	cmp.w	r9, #0
 8004e60:	f2c0 812a 	blt.w	80050b8 <__kernel_rem_pio2+0x6f0>
 8004e64:	f8df 80ec 	ldr.w	r8, [pc, #236]	; 8004f54 <__kernel_rem_pio2+0x58c>
 8004e68:	465d      	mov	r5, fp
 8004e6a:	a335      	add	r3, pc, #212	; (adr r3, 8004f40 <__kernel_rem_pio2+0x578>)
 8004e6c:	e9d3 2300 	ldrd	r2, r3, [r3]
 8004e70:	2600      	movs	r6, #0
 8004e72:	2700      	movs	r7, #0
 8004e74:	2400      	movs	r4, #0
 8004e76:	e003      	b.n	8004e80 <__kernel_rem_pio2+0x4b8>
 8004e78:	4554      	cmp	r4, sl
 8004e7a:	dc10      	bgt.n	8004e9e <__kernel_rem_pio2+0x4d6>
 8004e7c:	e8f8 2302 	ldrd	r2, r3, [r8], #8
 8004e80:	e8f5 0102 	ldrd	r0, r1, [r5], #8
 8004e84:	f000 fe8a 	bl	8005b9c <__aeabi_dmul>
 8004e88:	4602      	mov	r2, r0
 8004e8a:	460b      	mov	r3, r1
 8004e8c:	4630      	mov	r0, r6
 8004e8e:	4639      	mov	r1, r7
 8004e90:	f000 fcce 	bl	8005830 <__adddf3>
 8004e94:	3401      	adds	r4, #1
 8004e96:	45a1      	cmp	r9, r4
 8004e98:	4606      	mov	r6, r0
 8004e9a:	460f      	mov	r7, r1
 8004e9c:	daec      	bge.n	8004e78 <__kernel_rem_pio2+0x4b0>
 8004e9e:	9b01      	ldr	r3, [sp, #4]
 8004ea0:	e8e3 6702 	strd	r6, r7, [r3], #8
 8004ea4:	9301      	str	r3, [sp, #4]
 8004ea6:	9b02      	ldr	r3, [sp, #8]
 8004ea8:	f10a 0a01 	add.w	sl, sl, #1
 8004eac:	459a      	cmp	sl, r3
 8004eae:	f1ab 0b08 	sub.w	fp, fp, #8
 8004eb2:	d1d3      	bne.n	8004e5c <__kernel_rem_pio2+0x494>
 8004eb4:	9ba2      	ldr	r3, [sp, #648]	; 0x288
 8004eb6:	f8dd 9014 	ldr.w	r9, [sp, #20]
 8004eba:	2b03      	cmp	r3, #3
 8004ebc:	d839      	bhi.n	8004f32 <__kernel_rem_pio2+0x56a>
 8004ebe:	e8df f013 	tbh	[pc, r3, lsl #1]
 8004ec2:	00d9      	.short	0x00d9
 8004ec4:	00060006 	.word	0x00060006
 8004ec8:	004d      	.short	0x004d
 8004eca:	ab48      	add	r3, sp, #288	; 0x120
 8004ecc:	9303      	str	r3, [sp, #12]
 8004ece:	f1b9 0f00 	cmp.w	r9, #0
 8004ed2:	f04f 0000 	mov.w	r0, #0
 8004ed6:	f04f 0100 	mov.w	r1, #0
 8004eda:	db09      	blt.n	8004ef0 <__kernel_rem_pio2+0x528>
 8004edc:	9d03      	ldr	r5, [sp, #12]
 8004ede:	eb05 04c9 	add.w	r4, r5, r9, lsl #3
 8004ee2:	3408      	adds	r4, #8
 8004ee4:	e974 2302 	ldrd	r2, r3, [r4, #-8]!
 8004ee8:	f000 fca2 	bl	8005830 <__adddf3>
 8004eec:	42a5      	cmp	r5, r4
 8004eee:	d1f9      	bne.n	8004ee4 <__kernel_rem_pio2+0x51c>
 8004ef0:	9b07      	ldr	r3, [sp, #28]
 8004ef2:	2b00      	cmp	r3, #0
 8004ef4:	f040 811e 	bne.w	8005134 <__kernel_rem_pio2+0x76c>
 8004ef8:	9b0b      	ldr	r3, [sp, #44]	; 0x2c
 8004efa:	e9c3 0100 	strd	r0, r1, [r3]
 8004efe:	460b      	mov	r3, r1
 8004f00:	9903      	ldr	r1, [sp, #12]
 8004f02:	4602      	mov	r2, r0
 8004f04:	e9d1 0100 	ldrd	r0, r1, [r1]
 8004f08:	f000 fc90 	bl	800582c <__aeabi_dsub>
 8004f0c:	f1b9 0f00 	cmp.w	r9, #0
 8004f10:	dd0c      	ble.n	8004f2c <__kernel_rem_pio2+0x564>
 8004f12:	ad4a      	add	r5, sp, #296	; 0x128
 8004f14:	2401      	movs	r4, #1
 8004f16:	3401      	adds	r4, #1
 8004f18:	e8f5 2302 	ldrd	r2, r3, [r5], #8
 8004f1c:	f000 fc88 	bl	8005830 <__adddf3>
 8004f20:	45a1      	cmp	r9, r4
 8004f22:	daf8      	bge.n	8004f16 <__kernel_rem_pio2+0x54e>
 8004f24:	9b07      	ldr	r3, [sp, #28]
 8004f26:	2b00      	cmp	r3, #0
 8004f28:	f040 8114 	bne.w	8005154 <__kernel_rem_pio2+0x78c>
 8004f2c:	9b0b      	ldr	r3, [sp, #44]	; 0x2c
 8004f2e:	e9c3 0102 	strd	r0, r1, [r3, #8]
 8004f32:	9b06      	ldr	r3, [sp, #24]
 8004f34:	f003 0007 	and.w	r0, r3, #7
 8004f38:	f50d 7d19 	add.w	sp, sp, #612	; 0x264
 8004f3c:	e8bd 8ff0 	ldmia.w	sp!, {r4, r5, r6, r7, r8, r9, sl, fp, pc}
 8004f40:	40000000 	.word	0x40000000
 8004f44:	3ff921fb 	.word	0x3ff921fb
 8004f48:	3fe00000 	.word	0x3fe00000
 8004f4c:	3ff00000 	.word	0x3ff00000
 8004f50:	3e700000 	.word	0x3e700000
 8004f54:	080065e0 	.word	0x080065e0
 8004f58:	ab48      	add	r3, sp, #288	; 0x120
 8004f5a:	9303      	str	r3, [sp, #12]
 8004f5c:	f1b9 0f00 	cmp.w	r9, #0
 8004f60:	f340 8127 	ble.w	80051b2 <__kernel_rem_pio2+0x7ea>
 8004f64:	9a03      	ldr	r2, [sp, #12]
 8004f66:	f8cd 9010 	str.w	r9, [sp, #16]
 8004f6a:	ea4f 03c9 	mov.w	r3, r9, lsl #3
 8004f6e:	9301      	str	r3, [sp, #4]
 8004f70:	18d3      	adds	r3, r2, r3
 8004f72:	e9d3 ab00 	ldrd	sl, fp, [r3]
 8004f76:	f109 5300 	add.w	r3, r9, #536870912	; 0x20000000
 8004f7a:	3b01      	subs	r3, #1
 8004f7c:	eb02 08c9 	add.w	r8, r2, r9, lsl #3
 8004f80:	9302      	str	r3, [sp, #8]
 8004f82:	4691      	mov	r9, r2
 8004f84:	e978 6702 	ldrd	r6, r7, [r8, #-8]!
 8004f88:	4652      	mov	r2, sl
 8004f8a:	465b      	mov	r3, fp
 8004f8c:	4630      	mov	r0, r6
 8004f8e:	4639      	mov	r1, r7
 8004f90:	f000 fc4e 	bl	8005830 <__adddf3>
 8004f94:	4604      	mov	r4, r0
 8004f96:	460d      	mov	r5, r1
 8004f98:	4602      	mov	r2, r0
 8004f9a:	460b      	mov	r3, r1
 8004f9c:	4630      	mov	r0, r6
 8004f9e:	4639      	mov	r1, r7
 8004fa0:	f000 fc44 	bl	800582c <__aeabi_dsub>
 8004fa4:	4652      	mov	r2, sl
 8004fa6:	465b      	mov	r3, fp
 8004fa8:	f000 fc42 	bl	8005830 <__adddf3>
 8004fac:	45c1      	cmp	r9, r8
 8004fae:	46a2      	mov	sl, r4
 8004fb0:	46ab      	mov	fp, r5
 8004fb2:	e9c8 0102 	strd	r0, r1, [r8, #8]
 8004fb6:	e9c8 4500 	strd	r4, r5, [r8]
 8004fba:	d1e3      	bne.n	8004f84 <__kernel_rem_pio2+0x5bc>
 8004fbc:	f8dd 9010 	ldr.w	r9, [sp, #16]
 8004fc0:	f1b9 0f01 	cmp.w	r9, #1
 8004fc4:	f340 80f5 	ble.w	80051b2 <__kernel_rem_pio2+0x7ea>
 8004fc8:	9b01      	ldr	r3, [sp, #4]
 8004fca:	9a03      	ldr	r2, [sp, #12]
 8004fcc:	9902      	ldr	r1, [sp, #8]
 8004fce:	4413      	add	r3, r2
 8004fd0:	00c9      	lsls	r1, r1, #3
 8004fd2:	e9d3 6700 	ldrd	r6, r7, [r3]
 8004fd6:	f101 0a08 	add.w	sl, r1, #8
 8004fda:	9101      	str	r1, [sp, #4]
 8004fdc:	4492      	add	sl, r2
 8004fde:	f50d 7b94 	add.w	fp, sp, #296	; 0x128
 8004fe2:	e97a 8902 	ldrd	r8, r9, [sl, #-8]!
 8004fe6:	4632      	mov	r2, r6
 8004fe8:	463b      	mov	r3, r7
 8004fea:	4640      	mov	r0, r8
 8004fec:	4649      	mov	r1, r9
 8004fee:	f000 fc1f 	bl	8005830 <__adddf3>
 8004ff2:	4604      	mov	r4, r0
 8004ff4:	460d      	mov	r5, r1
 8004ff6:	4602      	mov	r2, r0
 8004ff8:	460b      	mov	r3, r1
 8004ffa:	4640      	mov	r0, r8
 8004ffc:	4649      	mov	r1, r9
 8004ffe:	f000 fc15 	bl	800582c <__aeabi_dsub>
 8005002:	4632      	mov	r2, r6
 8005004:	463b      	mov	r3, r7
 8005006:	f000 fc13 	bl	8005830 <__adddf3>
 800500a:	45d3      	cmp	fp, sl
 800500c:	4626      	mov	r6, r4
 800500e:	462f      	mov	r7, r5
 8005010:	e9ca 0102 	strd	r0, r1, [sl, #8]
 8005014:	e9ca 4500 	strd	r4, r5, [sl]
 8005018:	d1e3      	bne.n	8004fe2 <__kernel_rem_pio2+0x61a>
 800501a:	9c01      	ldr	r4, [sp, #4]
 800501c:	9b03      	ldr	r3, [sp, #12]
 800501e:	3410      	adds	r4, #16
 8005020:	2000      	movs	r0, #0
 8005022:	2100      	movs	r1, #0
 8005024:	441c      	add	r4, r3
 8005026:	f103 0510 	add.w	r5, r3, #16
 800502a:	e974 2302 	ldrd	r2, r3, [r4, #-8]!
 800502e:	f000 fbff 	bl	8005830 <__adddf3>
 8005032:	42a5      	cmp	r5, r4
 8005034:	d1f9      	bne.n	800502a <__kernel_rem_pio2+0x662>
 8005036:	9c03      	ldr	r4, [sp, #12]
 8005038:	9e07      	ldr	r6, [sp, #28]
 800503a:	e9d4 2300 	ldrd	r2, r3, [r4]
 800503e:	e9d4 4502 	ldrd	r4, r5, [r4, #8]
 8005042:	2e00      	cmp	r6, #0
 8005044:	f000 808a 	beq.w	800515c <__kernel_rem_pio2+0x794>
 8005048:	f103 4700 	add.w	r7, r3, #2147483648	; 0x80000000
 800504c:	f101 4300 	add.w	r3, r1, #2147483648	; 0x80000000
 8005050:	990b      	ldr	r1, [sp, #44]	; 0x2c
 8005052:	e9c1 0304 	strd	r0, r3, [r1, #16]
 8005056:	9b06      	ldr	r3, [sp, #24]
 8005058:	4626      	mov	r6, r4
 800505a:	4694      	mov	ip, r2
 800505c:	f105 4400 	add.w	r4, r5, #2147483648	; 0x80000000
 8005060:	f003 0007 	and.w	r0, r3, #7
 8005064:	e9c1 c700 	strd	ip, r7, [r1]
 8005068:	e9c1 6402 	strd	r6, r4, [r1, #8]
 800506c:	f50d 7d19 	add.w	sp, sp, #612	; 0x264
 8005070:	e8bd 8ff0 	ldmia.w	sp!, {r4, r5, r6, r7, r8, r9, sl, fp, pc}
 8005074:	9c08      	ldr	r4, [sp, #32]
 8005076:	9d03      	ldr	r5, [sp, #12]
 8005078:	3408      	adds	r4, #8
 800507a:	2000      	movs	r0, #0
 800507c:	2100      	movs	r1, #0
 800507e:	442c      	add	r4, r5
 8005080:	e974 2302 	ldrd	r2, r3, [r4, #-8]!
 8005084:	f000 fbd4 	bl	8005830 <__adddf3>
 8005088:	42a5      	cmp	r5, r4
 800508a:	d1f9      	bne.n	8005080 <__kernel_rem_pio2+0x6b8>
 800508c:	9b07      	ldr	r3, [sp, #28]
 800508e:	b113      	cbz	r3, 8005096 <__kernel_rem_pio2+0x6ce>
 8005090:	f101 4300 	add.w	r3, r1, #2147483648	; 0x80000000
 8005094:	4619      	mov	r1, r3
 8005096:	9b0b      	ldr	r3, [sp, #44]	; 0x2c
 8005098:	e9c3 0100 	strd	r0, r1, [r3]
 800509c:	9b06      	ldr	r3, [sp, #24]
 800509e:	f003 0007 	and.w	r0, r3, #7
 80050a2:	f50d 7d19 	add.w	sp, sp, #612	; 0x264
 80050a6:	e8bd 8ff0 	ldmia.w	sp!, {r4, r5, r6, r7, r8, r9, sl, fp, pc}
 80050aa:	f1bb 0f00 	cmp.w	fp, #0
 80050ae:	f108 0801 	add.w	r8, r8, #1
 80050b2:	dd74      	ble.n	800519e <__kernel_rem_pio2+0x7d6>
 80050b4:	2502      	movs	r5, #2
 80050b6:	e581      	b.n	8004bbc <__kernel_rem_pio2+0x1f4>
 80050b8:	2600      	movs	r6, #0
 80050ba:	2700      	movs	r7, #0
 80050bc:	e6ef      	b.n	8004e9e <__kernel_rem_pio2+0x4d6>
 80050be:	2400      	movs	r4, #0
 80050c0:	e58e      	b.n	8004be0 <__kernel_rem_pio2+0x218>
 80050c2:	e9cd 8506 	strd	r8, r5, [sp, #24]
 80050c6:	9d05      	ldr	r5, [sp, #20]
 80050c8:	4630      	mov	r0, r6
 80050ca:	4639      	mov	r1, r7
 80050cc:	426a      	negs	r2, r5
 80050ce:	f000 fa53 	bl	8005578 <scalbn>
 80050d2:	2200      	movs	r2, #0
 80050d4:	4b38      	ldr	r3, [pc, #224]	; (80051b8 <__kernel_rem_pio2+0x7f0>)
 80050d6:	4606      	mov	r6, r0
 80050d8:	460f      	mov	r7, r1
 80050da:	f000 ffe5 	bl	80060a8 <__aeabi_dcmpge>
 80050de:	b300      	cbz	r0, 8005122 <__kernel_rem_pio2+0x75a>
 80050e0:	2200      	movs	r2, #0
 80050e2:	4b36      	ldr	r3, [pc, #216]	; (80051bc <__kernel_rem_pio2+0x7f4>)
 80050e4:	4630      	mov	r0, r6
 80050e6:	4639      	mov	r1, r7
 80050e8:	f000 fd58 	bl	8005b9c <__aeabi_dmul>
 80050ec:	f001 f806 	bl	80060fc <__aeabi_d2iz>
 80050f0:	4604      	mov	r4, r0
 80050f2:	f000 fce9 	bl	8005ac8 <__aeabi_i2d>
 80050f6:	2200      	movs	r2, #0
 80050f8:	4b2f      	ldr	r3, [pc, #188]	; (80051b8 <__kernel_rem_pio2+0x7f0>)
 80050fa:	f000 fd4f 	bl	8005b9c <__aeabi_dmul>
 80050fe:	460b      	mov	r3, r1
 8005100:	4602      	mov	r2, r0
 8005102:	4639      	mov	r1, r7
 8005104:	4630      	mov	r0, r6
 8005106:	f000 fb91 	bl	800582c <__aeabi_dsub>
 800510a:	f000 fff7 	bl	80060fc <__aeabi_d2iz>
 800510e:	f10b 0901 	add.w	r9, fp, #1
 8005112:	ab0c      	add	r3, sp, #48	; 0x30
 8005114:	3518      	adds	r5, #24
 8005116:	f843 002b 	str.w	r0, [r3, fp, lsl #2]
 800511a:	9505      	str	r5, [sp, #20]
 800511c:	f843 4029 	str.w	r4, [r3, r9, lsl #2]
 8005120:	e65f      	b.n	8004de2 <__kernel_rem_pio2+0x41a>
 8005122:	4630      	mov	r0, r6
 8005124:	4639      	mov	r1, r7
 8005126:	f000 ffe9 	bl	80060fc <__aeabi_d2iz>
 800512a:	ab0c      	add	r3, sp, #48	; 0x30
 800512c:	46d9      	mov	r9, fp
 800512e:	f843 002b 	str.w	r0, [r3, fp, lsl #2]
 8005132:	e656      	b.n	8004de2 <__kernel_rem_pio2+0x41a>
 8005134:	9c0b      	ldr	r4, [sp, #44]	; 0x2c
 8005136:	f101 4300 	add.w	r3, r1, #2147483648	; 0x80000000
 800513a:	e9c4 0300 	strd	r0, r3, [r4]
 800513e:	460b      	mov	r3, r1
 8005140:	9903      	ldr	r1, [sp, #12]
 8005142:	4602      	mov	r2, r0
 8005144:	e9d1 0100 	ldrd	r0, r1, [r1]
 8005148:	f000 fb70 	bl	800582c <__aeabi_dsub>
 800514c:	f1b9 0f00 	cmp.w	r9, #0
 8005150:	f73f aedf 	bgt.w	8004f12 <__kernel_rem_pio2+0x54a>
 8005154:	f101 4300 	add.w	r3, r1, #2147483648	; 0x80000000
 8005158:	4619      	mov	r1, r3
 800515a:	e6e7      	b.n	8004f2c <__kernel_rem_pio2+0x564>
 800515c:	9e0b      	ldr	r6, [sp, #44]	; 0x2c
 800515e:	e9c6 2300 	strd	r2, r3, [r6]
 8005162:	9b06      	ldr	r3, [sp, #24]
 8005164:	e9c6 0104 	strd	r0, r1, [r6, #16]
 8005168:	f003 0007 	and.w	r0, r3, #7
 800516c:	e9c6 4502 	strd	r4, r5, [r6, #8]
 8005170:	f50d 7d19 	add.w	sp, sp, #612	; 0x264
 8005174:	e8bd 8ff0 	ldmia.w	sp!, {r4, r5, r6, r7, r8, r9, sl, fp, pc}
 8005178:	9ba2      	ldr	r3, [sp, #648]	; 0x288
 800517a:	2b03      	cmp	r3, #3
 800517c:	f63f aed9 	bhi.w	8004f32 <__kernel_rem_pio2+0x56a>
 8005180:	a201      	add	r2, pc, #4	; (adr r2, 8005188 <__kernel_rem_pio2+0x7c0>)
 8005182:	f852 f023 	ldr.w	pc, [r2, r3, lsl #2]
 8005186:	bf00      	nop
 8005188:	08005199 	.word	0x08005199
 800518c:	08004ecb 	.word	0x08004ecb
 8005190:	08004ecb 	.word	0x08004ecb
 8005194:	08004f59 	.word	0x08004f59
 8005198:	2000      	movs	r0, #0
 800519a:	2100      	movs	r1, #0
 800519c:	e776      	b.n	800508c <__kernel_rem_pio2+0x6c4>
 800519e:	4632      	mov	r2, r6
 80051a0:	463b      	mov	r3, r7
 80051a2:	2000      	movs	r0, #0
 80051a4:	4906      	ldr	r1, [pc, #24]	; (80051c0 <__kernel_rem_pio2+0x7f8>)
 80051a6:	f000 fb41 	bl	800582c <__aeabi_dsub>
 80051aa:	2502      	movs	r5, #2
 80051ac:	4606      	mov	r6, r0
 80051ae:	460f      	mov	r7, r1
 80051b0:	e52b      	b.n	8004c0a <__kernel_rem_pio2+0x242>
 80051b2:	2000      	movs	r0, #0
 80051b4:	2100      	movs	r1, #0
 80051b6:	e73e      	b.n	8005036 <__kernel_rem_pio2+0x66e>
 80051b8:	41700000 	.word	0x41700000
 80051bc:	3e700000 	.word	0x3e700000
 80051c0:	3ff00000 	.word	0x3ff00000
 80051c4:	00000000 	.word	0x00000000

080051c8 <__kernel_sin>:
 80051c8:	e92d 4ff0 	stmdb	sp!, {r4, r5, r6, r7, r8, r9, sl, fp, lr}
 80051cc:	f021 4600 	bic.w	r6, r1, #2147483648	; 0x80000000
 80051d0:	f1b6 5f79 	cmp.w	r6, #1044381696	; 0x3e400000
 80051d4:	b085      	sub	sp, #20
 80051d6:	4604      	mov	r4, r0
 80051d8:	460d      	mov	r5, r1
 80051da:	4690      	mov	r8, r2
 80051dc:	4699      	mov	r9, r3
 80051de:	da04      	bge.n	80051ea <__kernel_sin+0x22>
 80051e0:	f000 ff8c 	bl	80060fc <__aeabi_d2iz>
 80051e4:	2800      	cmp	r0, #0
 80051e6:	f000 8085 	beq.w	80052f4 <__kernel_sin+0x12c>
 80051ea:	4622      	mov	r2, r4
 80051ec:	462b      	mov	r3, r5
 80051ee:	4620      	mov	r0, r4
 80051f0:	4629      	mov	r1, r5
 80051f2:	f000 fcd3 	bl	8005b9c <__aeabi_dmul>
 80051f6:	4606      	mov	r6, r0
 80051f8:	460f      	mov	r7, r1
 80051fa:	4602      	mov	r2, r0
 80051fc:	460b      	mov	r3, r1
 80051fe:	4620      	mov	r0, r4
 8005200:	4629      	mov	r1, r5
 8005202:	f000 fccb 	bl	8005b9c <__aeabi_dmul>
 8005206:	a341      	add	r3, pc, #260	; (adr r3, 800530c <__kernel_sin+0x144>)
 8005208:	e9d3 2300 	ldrd	r2, r3, [r3]
 800520c:	4682      	mov	sl, r0
 800520e:	468b      	mov	fp, r1
 8005210:	4630      	mov	r0, r6
 8005212:	4639      	mov	r1, r7
 8005214:	f000 fcc2 	bl	8005b9c <__aeabi_dmul>
 8005218:	a33e      	add	r3, pc, #248	; (adr r3, 8005314 <__kernel_sin+0x14c>)
 800521a:	e9d3 2300 	ldrd	r2, r3, [r3]
 800521e:	f000 fb05 	bl	800582c <__aeabi_dsub>
 8005222:	4632      	mov	r2, r6
 8005224:	463b      	mov	r3, r7
 8005226:	f000 fcb9 	bl	8005b9c <__aeabi_dmul>
 800522a:	a33c      	add	r3, pc, #240	; (adr r3, 800531c <__kernel_sin+0x154>)
 800522c:	e9d3 2300 	ldrd	r2, r3, [r3]
 8005230:	f000 fafe 	bl	8005830 <__adddf3>
 8005234:	4632      	mov	r2, r6
 8005236:	463b      	mov	r3, r7
 8005238:	f000 fcb0 	bl	8005b9c <__aeabi_dmul>
 800523c:	a339      	add	r3, pc, #228	; (adr r3, 8005324 <__kernel_sin+0x15c>)
 800523e:	e9d3 2300 	ldrd	r2, r3, [r3]
 8005242:	f000 faf3 	bl	800582c <__aeabi_dsub>
 8005246:	4632      	mov	r2, r6
 8005248:	463b      	mov	r3, r7
 800524a:	f000 fca7 	bl	8005b9c <__aeabi_dmul>
 800524e:	a337      	add	r3, pc, #220	; (adr r3, 800532c <__kernel_sin+0x164>)
 8005250:	e9d3 2300 	ldrd	r2, r3, [r3]
 8005254:	f000 faec 	bl	8005830 <__adddf3>
 8005258:	9b0e      	ldr	r3, [sp, #56]	; 0x38
 800525a:	e9cd 0100 	strd	r0, r1, [sp]
 800525e:	b39b      	cbz	r3, 80052c8 <__kernel_sin+0x100>
 8005260:	2200      	movs	r2, #0
 8005262:	4b29      	ldr	r3, [pc, #164]	; (8005308 <__kernel_sin+0x140>)
 8005264:	4640      	mov	r0, r8
 8005266:	4649      	mov	r1, r9
 8005268:	f000 fc98 	bl	8005b9c <__aeabi_dmul>
 800526c:	e9dd 2300 	ldrd	r2, r3, [sp]
 8005270:	e9cd 0102 	strd	r0, r1, [sp, #8]
 8005274:	4650      	mov	r0, sl
 8005276:	4659      	mov	r1, fp
 8005278:	f000 fc90 	bl	8005b9c <__aeabi_dmul>
 800527c:	4602      	mov	r2, r0
 800527e:	460b      	mov	r3, r1
 8005280:	e9dd 0102 	ldrd	r0, r1, [sp, #8]
 8005284:	f000 fad2 	bl	800582c <__aeabi_dsub>
 8005288:	4632      	mov	r2, r6
 800528a:	463b      	mov	r3, r7
 800528c:	f000 fc86 	bl	8005b9c <__aeabi_dmul>
 8005290:	4642      	mov	r2, r8
 8005292:	464b      	mov	r3, r9
 8005294:	f000 faca 	bl	800582c <__aeabi_dsub>
 8005298:	a319      	add	r3, pc, #100	; (adr r3, 8005300 <__kernel_sin+0x138>)
 800529a:	e9d3 2300 	ldrd	r2, r3, [r3]
 800529e:	4606      	mov	r6, r0
 80052a0:	460f      	mov	r7, r1
 80052a2:	4650      	mov	r0, sl
 80052a4:	4659      	mov	r1, fp
 80052a6:	f000 fc79 	bl	8005b9c <__aeabi_dmul>
 80052aa:	4602      	mov	r2, r0
 80052ac:	460b      	mov	r3, r1
 80052ae:	4630      	mov	r0, r6
 80052b0:	4639      	mov	r1, r7
 80052b2:	f000 fabd 	bl	8005830 <__adddf3>
 80052b6:	4602      	mov	r2, r0
 80052b8:	460b      	mov	r3, r1
 80052ba:	4620      	mov	r0, r4
 80052bc:	4629      	mov	r1, r5
 80052be:	f000 fab5 	bl	800582c <__aeabi_dsub>
 80052c2:	b005      	add	sp, #20
 80052c4:	e8bd 8ff0 	ldmia.w	sp!, {r4, r5, r6, r7, r8, r9, sl, fp, pc}
 80052c8:	4602      	mov	r2, r0
 80052ca:	460b      	mov	r3, r1
 80052cc:	4630      	mov	r0, r6
 80052ce:	4639      	mov	r1, r7
 80052d0:	f000 fc64 	bl	8005b9c <__aeabi_dmul>
 80052d4:	a30a      	add	r3, pc, #40	; (adr r3, 8005300 <__kernel_sin+0x138>)
 80052d6:	e9d3 2300 	ldrd	r2, r3, [r3]
 80052da:	f000 faa7 	bl	800582c <__aeabi_dsub>
 80052de:	4652      	mov	r2, sl
 80052e0:	465b      	mov	r3, fp
 80052e2:	f000 fc5b 	bl	8005b9c <__aeabi_dmul>
 80052e6:	4622      	mov	r2, r4
 80052e8:	462b      	mov	r3, r5
 80052ea:	f000 faa1 	bl	8005830 <__adddf3>
 80052ee:	b005      	add	sp, #20
 80052f0:	e8bd 8ff0 	ldmia.w	sp!, {r4, r5, r6, r7, r8, r9, sl, fp, pc}
 80052f4:	4620      	mov	r0, r4
 80052f6:	4629      	mov	r1, r5
 80052f8:	b005      	add	sp, #20
 80052fa:	e8bd 8ff0 	ldmia.w	sp!, {r4, r5, r6, r7, r8, r9, sl, fp, pc}
 80052fe:	bf00      	nop
 8005300:	55555549 	.word	0x55555549
 8005304:	3fc55555 	.word	0x3fc55555
 8005308:	3fe00000 	.word	0x3fe00000
 800530c:	5acfd57c 	.word	0x5acfd57c
 8005310:	3de5d93a 	.word	0x3de5d93a
 8005314:	8a2b9ceb 	.word	0x8a2b9ceb
 8005318:	3e5ae5e6 	.word	0x3e5ae5e6
 800531c:	57b1fe7d 	.word	0x57b1fe7d
 8005320:	3ec71de3 	.word	0x3ec71de3
 8005324:	19c161d5 	.word	0x19c161d5
 8005328:	3f2a01a0 	.word	0x3f2a01a0
 800532c:	1110f8a6 	.word	0x1110f8a6
 8005330:	3f811111 	.word	0x3f811111

08005334 <fabs>:
 8005334:	f021 4300 	bic.w	r3, r1, #2147483648	; 0x80000000
 8005338:	4619      	mov	r1, r3
 800533a:	4770      	bx	lr

0800533c <finite>:
 800533c:	f041 4100 	orr.w	r1, r1, #2147483648	; 0x80000000
 8005340:	f501 1080 	add.w	r0, r1, #1048576	; 0x100000
 8005344:	0fc0      	lsrs	r0, r0, #31
 8005346:	4770      	bx	lr

08005348 <floor>:
 8005348:	e92d 41f0 	stmdb	sp!, {r4, r5, r6, r7, r8, lr}
 800534c:	f3c1 570a 	ubfx	r7, r1, #20, #11
 8005350:	f2a7 35ff 	subw	r5, r7, #1023	; 0x3ff
 8005354:	2d13      	cmp	r5, #19
 8005356:	4602      	mov	r2, r0
 8005358:	460b      	mov	r3, r1
 800535a:	460c      	mov	r4, r1
 800535c:	4688      	mov	r8, r1
 800535e:	4606      	mov	r6, r0
 8005360:	dc1d      	bgt.n	800539e <floor+0x56>
 8005362:	2d00      	cmp	r5, #0
 8005364:	db3c      	blt.n	80053e0 <floor+0x98>
 8005366:	4f36      	ldr	r7, [pc, #216]	; (8005440 <floor+0xf8>)
 8005368:	412f      	asrs	r7, r5
 800536a:	ea01 0c07 	and.w	ip, r1, r7
 800536e:	ea5c 0c00 	orrs.w	ip, ip, r0
 8005372:	d019      	beq.n	80053a8 <floor+0x60>
 8005374:	a330      	add	r3, pc, #192	; (adr r3, 8005438 <floor+0xf0>)
 8005376:	e9d3 2300 	ldrd	r2, r3, [r3]
 800537a:	f000 fa59 	bl	8005830 <__adddf3>
 800537e:	2200      	movs	r2, #0
 8005380:	2300      	movs	r3, #0
 8005382:	f000 fe9b 	bl	80060bc <__aeabi_dcmpgt>
 8005386:	b3c8      	cbz	r0, 80053fc <floor+0xb4>
 8005388:	2c00      	cmp	r4, #0
 800538a:	da04      	bge.n	8005396 <floor+0x4e>
 800538c:	f44f 1380 	mov.w	r3, #1048576	; 0x100000
 8005390:	fa43 f505 	asr.w	r5, r3, r5
 8005394:	44a8      	add	r8, r5
 8005396:	ea28 0407 	bic.w	r4, r8, r7
 800539a:	2600      	movs	r6, #0
 800539c:	e02e      	b.n	80053fc <floor+0xb4>
 800539e:	2d33      	cmp	r5, #51	; 0x33
 80053a0:	dd06      	ble.n	80053b0 <floor+0x68>
 80053a2:	f5b5 6f80 	cmp.w	r5, #1024	; 0x400
 80053a6:	d02d      	beq.n	8005404 <floor+0xbc>
 80053a8:	4610      	mov	r0, r2
 80053aa:	4619      	mov	r1, r3
 80053ac:	e8bd 81f0 	ldmia.w	sp!, {r4, r5, r6, r7, r8, pc}
 80053b0:	f2a7 4713 	subw	r7, r7, #1043	; 0x413
 80053b4:	f04f 3cff 	mov.w	ip, #4294967295
 80053b8:	fa2c f707 	lsr.w	r7, ip, r7
 80053bc:	4207      	tst	r7, r0
 80053be:	d0f3      	beq.n	80053a8 <floor+0x60>
 80053c0:	a31d      	add	r3, pc, #116	; (adr r3, 8005438 <floor+0xf0>)
 80053c2:	e9d3 2300 	ldrd	r2, r3, [r3]
 80053c6:	f000 fa33 	bl	8005830 <__adddf3>
 80053ca:	2200      	movs	r2, #0
 80053cc:	2300      	movs	r3, #0
 80053ce:	f000 fe75 	bl	80060bc <__aeabi_dcmpgt>
 80053d2:	b198      	cbz	r0, 80053fc <floor+0xb4>
 80053d4:	2c00      	cmp	r4, #0
 80053d6:	db21      	blt.n	800541c <floor+0xd4>
 80053d8:	ea26 0607 	bic.w	r6, r6, r7
 80053dc:	4644      	mov	r4, r8
 80053de:	e00d      	b.n	80053fc <floor+0xb4>
 80053e0:	a315      	add	r3, pc, #84	; (adr r3, 8005438 <floor+0xf0>)
 80053e2:	e9d3 2300 	ldrd	r2, r3, [r3]
 80053e6:	f000 fa23 	bl	8005830 <__adddf3>
 80053ea:	2200      	movs	r2, #0
 80053ec:	2300      	movs	r3, #0
 80053ee:	f000 fe65 	bl	80060bc <__aeabi_dcmpgt>
 80053f2:	b118      	cbz	r0, 80053fc <floor+0xb4>
 80053f4:	2c00      	cmp	r4, #0
 80053f6:	db08      	blt.n	800540a <floor+0xc2>
 80053f8:	2600      	movs	r6, #0
 80053fa:	4634      	mov	r4, r6
 80053fc:	4621      	mov	r1, r4
 80053fe:	4630      	mov	r0, r6
 8005400:	e8bd 81f0 	ldmia.w	sp!, {r4, r5, r6, r7, r8, pc}
 8005404:	f000 fa14 	bl	8005830 <__adddf3>
 8005408:	e7d0      	b.n	80053ac <floor+0x64>
 800540a:	f024 4300 	bic.w	r3, r4, #2147483648	; 0x80000000
 800540e:	4a0d      	ldr	r2, [pc, #52]	; (8005444 <floor+0xfc>)
 8005410:	431e      	orrs	r6, r3
 8005412:	2e00      	cmp	r6, #0
 8005414:	bf18      	it	ne
 8005416:	4614      	movne	r4, r2
 8005418:	2600      	movs	r6, #0
 800541a:	e7ef      	b.n	80053fc <floor+0xb4>
 800541c:	2d14      	cmp	r5, #20
 800541e:	d008      	beq.n	8005432 <floor+0xea>
 8005420:	2301      	movs	r3, #1
 8005422:	f1c5 0534 	rsb	r5, r5, #52	; 0x34
 8005426:	fa03 f505 	lsl.w	r5, r3, r5
 800542a:	19ae      	adds	r6, r5, r6
 800542c:	bf28      	it	cs
 800542e:	4498      	addcs	r8, r3
 8005430:	e7d2      	b.n	80053d8 <floor+0x90>
 8005432:	f104 0801 	add.w	r8, r4, #1
 8005436:	e7cf      	b.n	80053d8 <floor+0x90>
 8005438:	8800759c 	.word	0x8800759c
 800543c:	7e37e43c 	.word	0x7e37e43c
 8005440:	000fffff 	.word	0x000fffff
 8005444:	bff00000 	.word	0xbff00000

08005448 <matherr>:
 8005448:	2000      	movs	r0, #0
 800544a:	4770      	bx	lr

0800544c <nan>:
 800544c:	2000      	movs	r0, #0
 800544e:	4901      	ldr	r1, [pc, #4]	; (8005454 <nan+0x8>)
 8005450:	4770      	bx	lr
 8005452:	bf00      	nop
 8005454:	7ff80000 	.word	0x7ff80000

08005458 <rint>:
 8005458:	e92d 41f0 	stmdb	sp!, {r4, r5, r6, r7, r8, lr}
 800545c:	f3c1 570a 	ubfx	r7, r1, #20, #11
 8005460:	f2a7 35ff 	subw	r5, r7, #1023	; 0x3ff
 8005464:	2d13      	cmp	r5, #19
 8005466:	b082      	sub	sp, #8
 8005468:	4602      	mov	r2, r0
 800546a:	460b      	mov	r3, r1
 800546c:	460c      	mov	r4, r1
 800546e:	ea4f 78d1 	mov.w	r8, r1, lsr #31
 8005472:	4606      	mov	r6, r0
 8005474:	dc33      	bgt.n	80054de <rint+0x86>
 8005476:	2d00      	cmp	r5, #0
 8005478:	db4e      	blt.n	8005518 <rint+0xc0>
 800547a:	493c      	ldr	r1, [pc, #240]	; (800556c <rint+0x114>)
 800547c:	4129      	asrs	r1, r5
 800547e:	ea03 0001 	and.w	r0, r3, r1
 8005482:	4310      	orrs	r0, r2
 8005484:	d026      	beq.n	80054d4 <rint+0x7c>
 8005486:	0849      	lsrs	r1, r1, #1
 8005488:	400b      	ands	r3, r1
 800548a:	ea52 0603 	orrs.w	r6, r2, r3
 800548e:	d00c      	beq.n	80054aa <rint+0x52>
 8005490:	f44f 2380 	mov.w	r3, #262144	; 0x40000
 8005494:	2d13      	cmp	r5, #19
 8005496:	ea24 0101 	bic.w	r1, r4, r1
 800549a:	fa43 f405 	asr.w	r4, r3, r5
 800549e:	ea44 0401 	orr.w	r4, r4, r1
 80054a2:	bf0c      	ite	eq
 80054a4:	f04f 4600 	moveq.w	r6, #2147483648	; 0x80000000
 80054a8:	2600      	movne	r6, #0
 80054aa:	4931      	ldr	r1, [pc, #196]	; (8005570 <rint+0x118>)
 80054ac:	eb01 08c8 	add.w	r8, r1, r8, lsl #3
 80054b0:	4623      	mov	r3, r4
 80054b2:	e9d8 4500 	ldrd	r4, r5, [r8]
 80054b6:	4632      	mov	r2, r6
 80054b8:	4620      	mov	r0, r4
 80054ba:	4629      	mov	r1, r5
 80054bc:	f000 f9b8 	bl	8005830 <__adddf3>
 80054c0:	e9cd 0100 	strd	r0, r1, [sp]
 80054c4:	4622      	mov	r2, r4
 80054c6:	462b      	mov	r3, r5
 80054c8:	e9dd 0100 	ldrd	r0, r1, [sp]
 80054cc:	f000 f9ae 	bl	800582c <__aeabi_dsub>
 80054d0:	4602      	mov	r2, r0
 80054d2:	460b      	mov	r3, r1
 80054d4:	4610      	mov	r0, r2
 80054d6:	4619      	mov	r1, r3
 80054d8:	b002      	add	sp, #8
 80054da:	e8bd 81f0 	ldmia.w	sp!, {r4, r5, r6, r7, r8, pc}
 80054de:	2d33      	cmp	r5, #51	; 0x33
 80054e0:	dd07      	ble.n	80054f2 <rint+0x9a>
 80054e2:	f5b5 6f80 	cmp.w	r5, #1024	; 0x400
 80054e6:	d1f5      	bne.n	80054d4 <rint+0x7c>
 80054e8:	f000 f9a2 	bl	8005830 <__adddf3>
 80054ec:	4602      	mov	r2, r0
 80054ee:	460b      	mov	r3, r1
 80054f0:	e7f0      	b.n	80054d4 <rint+0x7c>
 80054f2:	f2a7 4713 	subw	r7, r7, #1043	; 0x413
 80054f6:	f04f 31ff 	mov.w	r1, #4294967295
 80054fa:	40f9      	lsrs	r1, r7
 80054fc:	4208      	tst	r0, r1
 80054fe:	d0e9      	beq.n	80054d4 <rint+0x7c>
 8005500:	0849      	lsrs	r1, r1, #1
 8005502:	4208      	tst	r0, r1
 8005504:	d0d1      	beq.n	80054aa <rint+0x52>
 8005506:	f04f 4380 	mov.w	r3, #1073741824	; 0x40000000
 800550a:	ea20 0101 	bic.w	r1, r0, r1
 800550e:	fa43 f707 	asr.w	r7, r3, r7
 8005512:	ea41 0607 	orr.w	r6, r1, r7
 8005516:	e7c8      	b.n	80054aa <rint+0x52>
 8005518:	f021 4100 	bic.w	r1, r1, #2147483648	; 0x80000000
 800551c:	4301      	orrs	r1, r0
 800551e:	d0d9      	beq.n	80054d4 <rint+0x7c>
 8005520:	f3c3 0113 	ubfx	r1, r3, #0, #20
 8005524:	4301      	orrs	r1, r0
 8005526:	424e      	negs	r6, r1
 8005528:	430e      	orrs	r6, r1
 800552a:	4d11      	ldr	r5, [pc, #68]	; (8005570 <rint+0x118>)
 800552c:	0c5c      	lsrs	r4, r3, #17
 800552e:	0b36      	lsrs	r6, r6, #12
 8005530:	0464      	lsls	r4, r4, #17
 8005532:	f406 2300 	and.w	r3, r6, #524288	; 0x80000
 8005536:	eb05 02c8 	add.w	r2, r5, r8, lsl #3
 800553a:	ea43 0104 	orr.w	r1, r3, r4
 800553e:	e9d2 4500 	ldrd	r4, r5, [r2]
 8005542:	460b      	mov	r3, r1
 8005544:	4602      	mov	r2, r0
 8005546:	4629      	mov	r1, r5
 8005548:	4620      	mov	r0, r4
 800554a:	f000 f971 	bl	8005830 <__adddf3>
 800554e:	e9cd 0100 	strd	r0, r1, [sp]
 8005552:	4622      	mov	r2, r4
 8005554:	462b      	mov	r3, r5
 8005556:	e9dd 0100 	ldrd	r0, r1, [sp]
 800555a:	f000 f967 	bl	800582c <__aeabi_dsub>
 800555e:	f021 4100 	bic.w	r1, r1, #2147483648	; 0x80000000
 8005562:	4602      	mov	r2, r0
 8005564:	ea41 73c8 	orr.w	r3, r1, r8, lsl #31
 8005568:	e7b4      	b.n	80054d4 <rint+0x7c>
 800556a:	bf00      	nop
 800556c:	000fffff 	.word	0x000fffff
 8005570:	08006628 	.word	0x08006628
 8005574:	00000000 	.word	0x00000000

08005578 <scalbn>:
 8005578:	b5f8      	push	{r3, r4, r5, r6, r7, lr}
 800557a:	f3c1 530a 	ubfx	r3, r1, #20, #11
 800557e:	4604      	mov	r4, r0
 8005580:	460d      	mov	r5, r1
 8005582:	460e      	mov	r6, r1
 8005584:	4617      	mov	r7, r2
 8005586:	bb0b      	cbnz	r3, 80055cc <scalbn+0x54>
 8005588:	f021 4600 	bic.w	r6, r1, #2147483648	; 0x80000000
 800558c:	4603      	mov	r3, r0
 800558e:	4333      	orrs	r3, r6
 8005590:	d01b      	beq.n	80055ca <scalbn+0x52>
 8005592:	4b35      	ldr	r3, [pc, #212]	; (8005668 <scalbn+0xf0>)
 8005594:	2200      	movs	r2, #0
 8005596:	f000 fb01 	bl	8005b9c <__aeabi_dmul>
 800559a:	4b34      	ldr	r3, [pc, #208]	; (800566c <scalbn+0xf4>)
 800559c:	429f      	cmp	r7, r3
 800559e:	4604      	mov	r4, r0
 80055a0:	460d      	mov	r5, r1
 80055a2:	db35      	blt.n	8005610 <scalbn+0x98>
 80055a4:	f3c1 530a 	ubfx	r3, r1, #20, #11
 80055a8:	460e      	mov	r6, r1
 80055aa:	3b36      	subs	r3, #54	; 0x36
 80055ac:	443b      	add	r3, r7
 80055ae:	f240 72fe 	movw	r2, #2046	; 0x7fe
 80055b2:	4293      	cmp	r3, r2
 80055b4:	dc32      	bgt.n	800561c <scalbn+0xa4>
 80055b6:	2b00      	cmp	r3, #0
 80055b8:	dd11      	ble.n	80055de <scalbn+0x66>
 80055ba:	f026 46ff 	bic.w	r6, r6, #2139095040	; 0x7f800000
 80055be:	f426 06e0 	bic.w	r6, r6, #7340032	; 0x700000
 80055c2:	ea46 5503 	orr.w	r5, r6, r3, lsl #20
 80055c6:	4620      	mov	r0, r4
 80055c8:	4629      	mov	r1, r5
 80055ca:	bdf8      	pop	{r3, r4, r5, r6, r7, pc}
 80055cc:	f240 72ff 	movw	r2, #2047	; 0x7ff
 80055d0:	4293      	cmp	r3, r2
 80055d2:	d1eb      	bne.n	80055ac <scalbn+0x34>
 80055d4:	4602      	mov	r2, r0
 80055d6:	460b      	mov	r3, r1
 80055d8:	f000 f92a 	bl	8005830 <__adddf3>
 80055dc:	bdf8      	pop	{r3, r4, r5, r6, r7, pc}
 80055de:	f113 0f35 	cmn.w	r3, #53	; 0x35
 80055e2:	da28      	bge.n	8005636 <scalbn+0xbe>
 80055e4:	f24c 3350 	movw	r3, #50000	; 0xc350
 80055e8:	429f      	cmp	r7, r3
 80055ea:	4622      	mov	r2, r4
 80055ec:	462b      	mov	r3, r5
 80055ee:	dd0a      	ble.n	8005606 <scalbn+0x8e>
 80055f0:	a119      	add	r1, pc, #100	; (adr r1, 8005658 <scalbn+0xe0>)
 80055f2:	e9d1 0100 	ldrd	r0, r1, [r1]
 80055f6:	f000 f83d 	bl	8005674 <copysign>
 80055fa:	a317      	add	r3, pc, #92	; (adr r3, 8005658 <scalbn+0xe0>)
 80055fc:	e9d3 2300 	ldrd	r2, r3, [r3]
 8005600:	f000 facc 	bl	8005b9c <__aeabi_dmul>
 8005604:	bdf8      	pop	{r3, r4, r5, r6, r7, pc}
 8005606:	a116      	add	r1, pc, #88	; (adr r1, 8005660 <scalbn+0xe8>)
 8005608:	e9d1 0100 	ldrd	r0, r1, [r1]
 800560c:	f000 f832 	bl	8005674 <copysign>
 8005610:	a313      	add	r3, pc, #76	; (adr r3, 8005660 <scalbn+0xe8>)
 8005612:	e9d3 2300 	ldrd	r2, r3, [r3]
 8005616:	f000 fac1 	bl	8005b9c <__aeabi_dmul>
 800561a:	bdf8      	pop	{r3, r4, r5, r6, r7, pc}
 800561c:	4622      	mov	r2, r4
 800561e:	462b      	mov	r3, r5
 8005620:	a10d      	add	r1, pc, #52	; (adr r1, 8005658 <scalbn+0xe0>)
 8005622:	e9d1 0100 	ldrd	r0, r1, [r1]
 8005626:	f000 f825 	bl	8005674 <copysign>
 800562a:	a30b      	add	r3, pc, #44	; (adr r3, 8005658 <scalbn+0xe0>)
 800562c:	e9d3 2300 	ldrd	r2, r3, [r3]
 8005630:	f000 fab4 	bl	8005b9c <__aeabi_dmul>
 8005634:	bdf8      	pop	{r3, r4, r5, r6, r7, pc}
 8005636:	f026 46ff 	bic.w	r6, r6, #2139095040	; 0x7f800000
 800563a:	f426 06e0 	bic.w	r6, r6, #7340032	; 0x700000
 800563e:	3336      	adds	r3, #54	; 0x36
 8005640:	ea46 5503 	orr.w	r5, r6, r3, lsl #20
 8005644:	4620      	mov	r0, r4
 8005646:	4629      	mov	r1, r5
 8005648:	2200      	movs	r2, #0
 800564a:	4b09      	ldr	r3, [pc, #36]	; (8005670 <scalbn+0xf8>)
 800564c:	f000 faa6 	bl	8005b9c <__aeabi_dmul>
 8005650:	bdf8      	pop	{r3, r4, r5, r6, r7, pc}
 8005652:	bf00      	nop
 8005654:	f3af 8000 	nop.w
 8005658:	8800759c 	.word	0x8800759c
 800565c:	7e37e43c 	.word	0x7e37e43c
 8005660:	c2f8f359 	.word	0xc2f8f359
 8005664:	01a56e1f 	.word	0x01a56e1f
 8005668:	43500000 	.word	0x43500000
 800566c:	ffff3cb0 	.word	0xffff3cb0
 8005670:	3c900000 	.word	0x3c900000

08005674 <copysign>:
 8005674:	f003 4300 	and.w	r3, r3, #2147483648	; 0x80000000
 8005678:	f021 4200 	bic.w	r2, r1, #2147483648	; 0x80000000
 800567c:	ea42 0103 	orr.w	r1, r2, r3
 8005680:	4770      	bx	lr
 8005682:	bf00      	nop

08005684 <__errno>:
 8005684:	4b01      	ldr	r3, [pc, #4]	; (800568c <__errno+0x8>)
 8005686:	6818      	ldr	r0, [r3, #0]
 8005688:	4770      	bx	lr
 800568a:	bf00      	nop
 800568c:	20000020 	.word	0x20000020

08005690 <memcpy>:
 8005690:	b510      	push	{r4, lr}
 8005692:	1e43      	subs	r3, r0, #1
 8005694:	440a      	add	r2, r1
 8005696:	4291      	cmp	r1, r2
 8005698:	d100      	bne.n	800569c <memcpy+0xc>
 800569a:	bd10      	pop	{r4, pc}
 800569c:	f811 4b01 	ldrb.w	r4, [r1], #1
 80056a0:	f803 4f01 	strb.w	r4, [r3, #1]!
 80056a4:	e7f7      	b.n	8005696 <memcpy+0x6>
	...

080056a8 <rand>:
 80056a8:	b538      	push	{r3, r4, r5, lr}
 80056aa:	4b13      	ldr	r3, [pc, #76]	; (80056f8 <rand+0x50>)
 80056ac:	681c      	ldr	r4, [r3, #0]
 80056ae:	6ba3      	ldr	r3, [r4, #56]	; 0x38
 80056b0:	b97b      	cbnz	r3, 80056d2 <rand+0x2a>
 80056b2:	2018      	movs	r0, #24
 80056b4:	f000 f834 	bl	8005720 <malloc>
 80056b8:	4a10      	ldr	r2, [pc, #64]	; (80056fc <rand+0x54>)
 80056ba:	4b11      	ldr	r3, [pc, #68]	; (8005700 <rand+0x58>)
 80056bc:	63a0      	str	r0, [r4, #56]	; 0x38
 80056be:	e9c0 2300 	strd	r2, r3, [r0]
 80056c2:	4b10      	ldr	r3, [pc, #64]	; (8005704 <rand+0x5c>)
 80056c4:	6083      	str	r3, [r0, #8]
 80056c6:	230b      	movs	r3, #11
 80056c8:	8183      	strh	r3, [r0, #12]
 80056ca:	2201      	movs	r2, #1
 80056cc:	2300      	movs	r3, #0
 80056ce:	e9c0 2304 	strd	r2, r3, [r0, #16]
 80056d2:	6ba1      	ldr	r1, [r4, #56]	; 0x38
 80056d4:	480c      	ldr	r0, [pc, #48]	; (8005708 <rand+0x60>)
 80056d6:	690a      	ldr	r2, [r1, #16]
 80056d8:	694b      	ldr	r3, [r1, #20]
 80056da:	4c0c      	ldr	r4, [pc, #48]	; (800570c <rand+0x64>)
 80056dc:	4350      	muls	r0, r2
 80056de:	fb04 0003 	mla	r0, r4, r3, r0
 80056e2:	fba2 2304 	umull	r2, r3, r2, r4
 80056e6:	4403      	add	r3, r0
 80056e8:	1c54      	adds	r4, r2, #1
 80056ea:	f143 0500 	adc.w	r5, r3, #0
 80056ee:	e9c1 4504 	strd	r4, r5, [r1, #16]
 80056f2:	f025 4000 	bic.w	r0, r5, #2147483648	; 0x80000000
 80056f6:	bd38      	pop	{r3, r4, r5, pc}
 80056f8:	20000020 	.word	0x20000020
 80056fc:	abcd330e 	.word	0xabcd330e
 8005700:	e66d1234 	.word	0xe66d1234
 8005704:	0005deec 	.word	0x0005deec
 8005708:	5851f42d 	.word	0x5851f42d
 800570c:	4c957f2d 	.word	0x4c957f2d

08005710 <strlen>:
 8005710:	4603      	mov	r3, r0
 8005712:	f813 2b01 	ldrb.w	r2, [r3], #1
 8005716:	2a00      	cmp	r2, #0
 8005718:	d1fb      	bne.n	8005712 <strlen+0x2>
 800571a:	1a18      	subs	r0, r3, r0
 800571c:	3801      	subs	r0, #1
 800571e:	4770      	bx	lr

08005720 <malloc>:
 8005720:	4b02      	ldr	r3, [pc, #8]	; (800572c <malloc+0xc>)
 8005722:	4601      	mov	r1, r0
 8005724:	6818      	ldr	r0, [r3, #0]
 8005726:	f000 b803 	b.w	8005730 <_malloc_r>
 800572a:	bf00      	nop
 800572c:	20000020 	.word	0x20000020

08005730 <_malloc_r>:
 8005730:	b570      	push	{r4, r5, r6, lr}
 8005732:	1ccd      	adds	r5, r1, #3
 8005734:	f025 0503 	bic.w	r5, r5, #3
 8005738:	3508      	adds	r5, #8
 800573a:	2d0c      	cmp	r5, #12
 800573c:	bf38      	it	cc
 800573e:	250c      	movcc	r5, #12
 8005740:	2d00      	cmp	r5, #0
 8005742:	4606      	mov	r6, r0
 8005744:	db01      	blt.n	800574a <_malloc_r+0x1a>
 8005746:	42a9      	cmp	r1, r5
 8005748:	d903      	bls.n	8005752 <_malloc_r+0x22>
 800574a:	230c      	movs	r3, #12
 800574c:	6033      	str	r3, [r6, #0]
 800574e:	2000      	movs	r0, #0
 8005750:	bd70      	pop	{r4, r5, r6, pc}
 8005752:	f000 f857 	bl	8005804 <__malloc_lock>
 8005756:	4a21      	ldr	r2, [pc, #132]	; (80057dc <_malloc_r+0xac>)
 8005758:	6814      	ldr	r4, [r2, #0]
 800575a:	4621      	mov	r1, r4
 800575c:	b991      	cbnz	r1, 8005784 <_malloc_r+0x54>
 800575e:	4c20      	ldr	r4, [pc, #128]	; (80057e0 <_malloc_r+0xb0>)
 8005760:	6823      	ldr	r3, [r4, #0]
 8005762:	b91b      	cbnz	r3, 800576c <_malloc_r+0x3c>
 8005764:	4630      	mov	r0, r6
 8005766:	f000 f83d 	bl	80057e4 <_sbrk_r>
 800576a:	6020      	str	r0, [r4, #0]
 800576c:	4629      	mov	r1, r5
 800576e:	4630      	mov	r0, r6
 8005770:	f000 f838 	bl	80057e4 <_sbrk_r>
 8005774:	1c43      	adds	r3, r0, #1
 8005776:	d124      	bne.n	80057c2 <_malloc_r+0x92>
 8005778:	230c      	movs	r3, #12
 800577a:	6033      	str	r3, [r6, #0]
 800577c:	4630      	mov	r0, r6
 800577e:	f000 f842 	bl	8005806 <__malloc_unlock>
 8005782:	e7e4      	b.n	800574e <_malloc_r+0x1e>
 8005784:	680b      	ldr	r3, [r1, #0]
 8005786:	1b5b      	subs	r3, r3, r5
 8005788:	d418      	bmi.n	80057bc <_malloc_r+0x8c>
 800578a:	2b0b      	cmp	r3, #11
 800578c:	d90f      	bls.n	80057ae <_malloc_r+0x7e>
 800578e:	600b      	str	r3, [r1, #0]
 8005790:	50cd      	str	r5, [r1, r3]
 8005792:	18cc      	adds	r4, r1, r3
 8005794:	4630      	mov	r0, r6
 8005796:	f000 f836 	bl	8005806 <__malloc_unlock>
 800579a:	f104 000b 	add.w	r0, r4, #11
 800579e:	1d23      	adds	r3, r4, #4
 80057a0:	f020 0007 	bic.w	r0, r0, #7
 80057a4:	1ac3      	subs	r3, r0, r3
 80057a6:	d0d3      	beq.n	8005750 <_malloc_r+0x20>
 80057a8:	425a      	negs	r2, r3
 80057aa:	50e2      	str	r2, [r4, r3]
 80057ac:	e7d0      	b.n	8005750 <_malloc_r+0x20>
 80057ae:	428c      	cmp	r4, r1
 80057b0:	684b      	ldr	r3, [r1, #4]
 80057b2:	bf16      	itet	ne
 80057b4:	6063      	strne	r3, [r4, #4]
 80057b6:	6013      	streq	r3, [r2, #0]
 80057b8:	460c      	movne	r4, r1
 80057ba:	e7eb      	b.n	8005794 <_malloc_r+0x64>
 80057bc:	460c      	mov	r4, r1
 80057be:	6849      	ldr	r1, [r1, #4]
 80057c0:	e7cc      	b.n	800575c <_malloc_r+0x2c>
 80057c2:	1cc4      	adds	r4, r0, #3
 80057c4:	f024 0403 	bic.w	r4, r4, #3
 80057c8:	42a0      	cmp	r0, r4
 80057ca:	d005      	beq.n	80057d8 <_malloc_r+0xa8>
 80057cc:	1a21      	subs	r1, r4, r0
 80057ce:	4630      	mov	r0, r6
 80057d0:	f000 f808 	bl	80057e4 <_sbrk_r>
 80057d4:	3001      	adds	r0, #1
 80057d6:	d0cf      	beq.n	8005778 <_malloc_r+0x48>
 80057d8:	6025      	str	r5, [r4, #0]
 80057da:	e7db      	b.n	8005794 <_malloc_r+0x64>
 80057dc:	200002c4 	.word	0x200002c4
 80057e0:	200002c8 	.word	0x200002c8

080057e4 <_sbrk_r>:
 80057e4:	b538      	push	{r3, r4, r5, lr}
 80057e6:	4c06      	ldr	r4, [pc, #24]	; (8005800 <_sbrk_r+0x1c>)
 80057e8:	2300      	movs	r3, #0
 80057ea:	4605      	mov	r5, r0
 80057ec:	4608      	mov	r0, r1
 80057ee:	6023      	str	r3, [r4, #0]
 80057f0:	f000 f80a 	bl	8005808 <_sbrk>
 80057f4:	1c43      	adds	r3, r0, #1
 80057f6:	d102      	bne.n	80057fe <_sbrk_r+0x1a>
 80057f8:	6823      	ldr	r3, [r4, #0]
 80057fa:	b103      	cbz	r3, 80057fe <_sbrk_r+0x1a>
 80057fc:	602b      	str	r3, [r5, #0]
 80057fe:	bd38      	pop	{r3, r4, r5, pc}
 8005800:	200002d0 	.word	0x200002d0

08005804 <__malloc_lock>:
 8005804:	4770      	bx	lr

08005806 <__malloc_unlock>:
 8005806:	4770      	bx	lr

08005808 <_sbrk>:
 8005808:	4a04      	ldr	r2, [pc, #16]	; (800581c <_sbrk+0x14>)
 800580a:	4905      	ldr	r1, [pc, #20]	; (8005820 <_sbrk+0x18>)
 800580c:	6813      	ldr	r3, [r2, #0]
 800580e:	2b00      	cmp	r3, #0
 8005810:	bf08      	it	eq
 8005812:	460b      	moveq	r3, r1
 8005814:	4418      	add	r0, r3
 8005816:	6010      	str	r0, [r2, #0]
 8005818:	4618      	mov	r0, r3
 800581a:	4770      	bx	lr
 800581c:	200002cc 	.word	0x200002cc
 8005820:	200002d4 	.word	0x200002d4

08005824 <__aeabi_drsub>:
 8005824:	f081 4100 	eor.w	r1, r1, #2147483648	; 0x80000000
 8005828:	e002      	b.n	8005830 <__adddf3>
 800582a:	bf00      	nop

0800582c <__aeabi_dsub>:
 800582c:	f083 4300 	eor.w	r3, r3, #2147483648	; 0x80000000

08005830 <__adddf3>:
 8005830:	b530      	push	{r4, r5, lr}
 8005832:	ea4f 0441 	mov.w	r4, r1, lsl #1
 8005836:	ea4f 0543 	mov.w	r5, r3, lsl #1
 800583a:	ea94 0f05 	teq	r4, r5
 800583e:	bf08      	it	eq
 8005840:	ea90 0f02 	teqeq	r0, r2
 8005844:	bf1f      	itttt	ne
 8005846:	ea54 0c00 	orrsne.w	ip, r4, r0
 800584a:	ea55 0c02 	orrsne.w	ip, r5, r2
 800584e:	ea7f 5c64 	mvnsne.w	ip, r4, asr #21
 8005852:	ea7f 5c65 	mvnsne.w	ip, r5, asr #21
 8005856:	f000 80e2 	beq.w	8005a1e <__adddf3+0x1ee>
 800585a:	ea4f 5454 	mov.w	r4, r4, lsr #21
 800585e:	ebd4 5555 	rsbs	r5, r4, r5, lsr #21
 8005862:	bfb8      	it	lt
 8005864:	426d      	neglt	r5, r5
 8005866:	dd0c      	ble.n	8005882 <__adddf3+0x52>
 8005868:	442c      	add	r4, r5
 800586a:	ea80 0202 	eor.w	r2, r0, r2
 800586e:	ea81 0303 	eor.w	r3, r1, r3
 8005872:	ea82 0000 	eor.w	r0, r2, r0
 8005876:	ea83 0101 	eor.w	r1, r3, r1
 800587a:	ea80 0202 	eor.w	r2, r0, r2
 800587e:	ea81 0303 	eor.w	r3, r1, r3
 8005882:	2d36      	cmp	r5, #54	; 0x36
 8005884:	bf88      	it	hi
 8005886:	bd30      	pophi	{r4, r5, pc}
 8005888:	f011 4f00 	tst.w	r1, #2147483648	; 0x80000000
 800588c:	ea4f 3101 	mov.w	r1, r1, lsl #12
 8005890:	f44f 1c80 	mov.w	ip, #1048576	; 0x100000
 8005894:	ea4c 3111 	orr.w	r1, ip, r1, lsr #12
 8005898:	d002      	beq.n	80058a0 <__adddf3+0x70>
 800589a:	4240      	negs	r0, r0
 800589c:	eb61 0141 	sbc.w	r1, r1, r1, lsl #1
 80058a0:	f013 4f00 	tst.w	r3, #2147483648	; 0x80000000
 80058a4:	ea4f 3303 	mov.w	r3, r3, lsl #12
 80058a8:	ea4c 3313 	orr.w	r3, ip, r3, lsr #12
 80058ac:	d002      	beq.n	80058b4 <__adddf3+0x84>
 80058ae:	4252      	negs	r2, r2
 80058b0:	eb63 0343 	sbc.w	r3, r3, r3, lsl #1
 80058b4:	ea94 0f05 	teq	r4, r5
 80058b8:	f000 80a7 	beq.w	8005a0a <__adddf3+0x1da>
 80058bc:	f1a4 0401 	sub.w	r4, r4, #1
 80058c0:	f1d5 0e20 	rsbs	lr, r5, #32
 80058c4:	db0d      	blt.n	80058e2 <__adddf3+0xb2>
 80058c6:	fa02 fc0e 	lsl.w	ip, r2, lr
 80058ca:	fa22 f205 	lsr.w	r2, r2, r5
 80058ce:	1880      	adds	r0, r0, r2
 80058d0:	f141 0100 	adc.w	r1, r1, #0
 80058d4:	fa03 f20e 	lsl.w	r2, r3, lr
 80058d8:	1880      	adds	r0, r0, r2
 80058da:	fa43 f305 	asr.w	r3, r3, r5
 80058de:	4159      	adcs	r1, r3
 80058e0:	e00e      	b.n	8005900 <__adddf3+0xd0>
 80058e2:	f1a5 0520 	sub.w	r5, r5, #32
 80058e6:	f10e 0e20 	add.w	lr, lr, #32
 80058ea:	2a01      	cmp	r2, #1
 80058ec:	fa03 fc0e 	lsl.w	ip, r3, lr
 80058f0:	bf28      	it	cs
 80058f2:	f04c 0c02 	orrcs.w	ip, ip, #2
 80058f6:	fa43 f305 	asr.w	r3, r3, r5
 80058fa:	18c0      	adds	r0, r0, r3
 80058fc:	eb51 71e3 	adcs.w	r1, r1, r3, asr #31
 8005900:	f001 4500 	and.w	r5, r1, #2147483648	; 0x80000000
 8005904:	d507      	bpl.n	8005916 <__adddf3+0xe6>
 8005906:	f04f 0e00 	mov.w	lr, #0
 800590a:	f1dc 0c00 	rsbs	ip, ip, #0
 800590e:	eb7e 0000 	sbcs.w	r0, lr, r0
 8005912:	eb6e 0101 	sbc.w	r1, lr, r1
 8005916:	f5b1 1f80 	cmp.w	r1, #1048576	; 0x100000
 800591a:	d31b      	bcc.n	8005954 <__adddf3+0x124>
 800591c:	f5b1 1f00 	cmp.w	r1, #2097152	; 0x200000
 8005920:	d30c      	bcc.n	800593c <__adddf3+0x10c>
 8005922:	0849      	lsrs	r1, r1, #1
 8005924:	ea5f 0030 	movs.w	r0, r0, rrx
 8005928:	ea4f 0c3c 	mov.w	ip, ip, rrx
 800592c:	f104 0401 	add.w	r4, r4, #1
 8005930:	ea4f 5244 	mov.w	r2, r4, lsl #21
 8005934:	f512 0f80 	cmn.w	r2, #4194304	; 0x400000
 8005938:	f080 809a 	bcs.w	8005a70 <__adddf3+0x240>
 800593c:	f1bc 4f00 	cmp.w	ip, #2147483648	; 0x80000000
 8005940:	bf08      	it	eq
 8005942:	ea5f 0c50 	movseq.w	ip, r0, lsr #1
 8005946:	f150 0000 	adcs.w	r0, r0, #0
 800594a:	eb41 5104 	adc.w	r1, r1, r4, lsl #20
 800594e:	ea41 0105 	orr.w	r1, r1, r5
 8005952:	bd30      	pop	{r4, r5, pc}
 8005954:	ea5f 0c4c 	movs.w	ip, ip, lsl #1
 8005958:	4140      	adcs	r0, r0
 800595a:	eb41 0101 	adc.w	r1, r1, r1
 800595e:	f411 1f80 	tst.w	r1, #1048576	; 0x100000
 8005962:	f1a4 0401 	sub.w	r4, r4, #1
 8005966:	d1e9      	bne.n	800593c <__adddf3+0x10c>
 8005968:	f091 0f00 	teq	r1, #0
 800596c:	bf04      	itt	eq
 800596e:	4601      	moveq	r1, r0
 8005970:	2000      	moveq	r0, #0
 8005972:	fab1 f381 	clz	r3, r1
 8005976:	bf08      	it	eq
 8005978:	3320      	addeq	r3, #32
 800597a:	f1a3 030b 	sub.w	r3, r3, #11
 800597e:	f1b3 0220 	subs.w	r2, r3, #32
 8005982:	da0c      	bge.n	800599e <__adddf3+0x16e>
 8005984:	320c      	adds	r2, #12
 8005986:	dd08      	ble.n	800599a <__adddf3+0x16a>
 8005988:	f102 0c14 	add.w	ip, r2, #20
 800598c:	f1c2 020c 	rsb	r2, r2, #12
 8005990:	fa01 f00c 	lsl.w	r0, r1, ip
 8005994:	fa21 f102 	lsr.w	r1, r1, r2
 8005998:	e00c      	b.n	80059b4 <__adddf3+0x184>
 800599a:	f102 0214 	add.w	r2, r2, #20
 800599e:	bfd8      	it	le
 80059a0:	f1c2 0c20 	rsble	ip, r2, #32
 80059a4:	fa01 f102 	lsl.w	r1, r1, r2
 80059a8:	fa20 fc0c 	lsr.w	ip, r0, ip
 80059ac:	bfdc      	itt	le
 80059ae:	ea41 010c 	orrle.w	r1, r1, ip
 80059b2:	4090      	lslle	r0, r2
 80059b4:	1ae4      	subs	r4, r4, r3
 80059b6:	bfa2      	ittt	ge
 80059b8:	eb01 5104 	addge.w	r1, r1, r4, lsl #20
 80059bc:	4329      	orrge	r1, r5
 80059be:	bd30      	popge	{r4, r5, pc}
 80059c0:	ea6f 0404 	mvn.w	r4, r4
 80059c4:	3c1f      	subs	r4, #31
 80059c6:	da1c      	bge.n	8005a02 <__adddf3+0x1d2>
 80059c8:	340c      	adds	r4, #12
 80059ca:	dc0e      	bgt.n	80059ea <__adddf3+0x1ba>
 80059cc:	f104 0414 	add.w	r4, r4, #20
 80059d0:	f1c4 0220 	rsb	r2, r4, #32
 80059d4:	fa20 f004 	lsr.w	r0, r0, r4
 80059d8:	fa01 f302 	lsl.w	r3, r1, r2
 80059dc:	ea40 0003 	orr.w	r0, r0, r3
 80059e0:	fa21 f304 	lsr.w	r3, r1, r4
 80059e4:	ea45 0103 	orr.w	r1, r5, r3
 80059e8:	bd30      	pop	{r4, r5, pc}
 80059ea:	f1c4 040c 	rsb	r4, r4, #12
 80059ee:	f1c4 0220 	rsb	r2, r4, #32
 80059f2:	fa20 f002 	lsr.w	r0, r0, r2
 80059f6:	fa01 f304 	lsl.w	r3, r1, r4
 80059fa:	ea40 0003 	orr.w	r0, r0, r3
 80059fe:	4629      	mov	r1, r5
 8005a00:	bd30      	pop	{r4, r5, pc}
 8005a02:	fa21 f004 	lsr.w	r0, r1, r4
 8005a06:	4629      	mov	r1, r5
 8005a08:	bd30      	pop	{r4, r5, pc}
 8005a0a:	f094 0f00 	teq	r4, #0
 8005a0e:	f483 1380 	eor.w	r3, r3, #1048576	; 0x100000
 8005a12:	bf06      	itte	eq
 8005a14:	f481 1180 	eoreq.w	r1, r1, #1048576	; 0x100000
 8005a18:	3401      	addeq	r4, #1
 8005a1a:	3d01      	subne	r5, #1
 8005a1c:	e74e      	b.n	80058bc <__adddf3+0x8c>
 8005a1e:	ea7f 5c64 	mvns.w	ip, r4, asr #21
 8005a22:	bf18      	it	ne
 8005a24:	ea7f 5c65 	mvnsne.w	ip, r5, asr #21
 8005a28:	d029      	beq.n	8005a7e <__adddf3+0x24e>
 8005a2a:	ea94 0f05 	teq	r4, r5
 8005a2e:	bf08      	it	eq
 8005a30:	ea90 0f02 	teqeq	r0, r2
 8005a34:	d005      	beq.n	8005a42 <__adddf3+0x212>
 8005a36:	ea54 0c00 	orrs.w	ip, r4, r0
 8005a3a:	bf04      	itt	eq
 8005a3c:	4619      	moveq	r1, r3
 8005a3e:	4610      	moveq	r0, r2
 8005a40:	bd30      	pop	{r4, r5, pc}
 8005a42:	ea91 0f03 	teq	r1, r3
 8005a46:	bf1e      	ittt	ne
 8005a48:	2100      	movne	r1, #0
 8005a4a:	2000      	movne	r0, #0
 8005a4c:	bd30      	popne	{r4, r5, pc}
 8005a4e:	ea5f 5c54 	movs.w	ip, r4, lsr #21
 8005a52:	d105      	bne.n	8005a60 <__adddf3+0x230>
 8005a54:	0040      	lsls	r0, r0, #1
 8005a56:	4149      	adcs	r1, r1
 8005a58:	bf28      	it	cs
 8005a5a:	f041 4100 	orrcs.w	r1, r1, #2147483648	; 0x80000000
 8005a5e:	bd30      	pop	{r4, r5, pc}
 8005a60:	f514 0480 	adds.w	r4, r4, #4194304	; 0x400000
 8005a64:	bf3c      	itt	cc
 8005a66:	f501 1180 	addcc.w	r1, r1, #1048576	; 0x100000
 8005a6a:	bd30      	popcc	{r4, r5, pc}
 8005a6c:	f001 4500 	and.w	r5, r1, #2147483648	; 0x80000000
 8005a70:	f045 41fe 	orr.w	r1, r5, #2130706432	; 0x7f000000
 8005a74:	f441 0170 	orr.w	r1, r1, #15728640	; 0xf00000
 8005a78:	f04f 0000 	mov.w	r0, #0
 8005a7c:	bd30      	pop	{r4, r5, pc}
 8005a7e:	ea7f 5c64 	mvns.w	ip, r4, asr #21
 8005a82:	bf1a      	itte	ne
 8005a84:	4619      	movne	r1, r3
 8005a86:	4610      	movne	r0, r2
 8005a88:	ea7f 5c65 	mvnseq.w	ip, r5, asr #21
 8005a8c:	bf1c      	itt	ne
 8005a8e:	460b      	movne	r3, r1
 8005a90:	4602      	movne	r2, r0
 8005a92:	ea50 3401 	orrs.w	r4, r0, r1, lsl #12
 8005a96:	bf06      	itte	eq
 8005a98:	ea52 3503 	orrseq.w	r5, r2, r3, lsl #12
 8005a9c:	ea91 0f03 	teqeq	r1, r3
 8005aa0:	f441 2100 	orrne.w	r1, r1, #524288	; 0x80000
 8005aa4:	bd30      	pop	{r4, r5, pc}
 8005aa6:	bf00      	nop

08005aa8 <__aeabi_ui2d>:
 8005aa8:	f090 0f00 	teq	r0, #0
 8005aac:	bf04      	itt	eq
 8005aae:	2100      	moveq	r1, #0
 8005ab0:	4770      	bxeq	lr
 8005ab2:	b530      	push	{r4, r5, lr}
 8005ab4:	f44f 6480 	mov.w	r4, #1024	; 0x400
 8005ab8:	f104 0432 	add.w	r4, r4, #50	; 0x32
 8005abc:	f04f 0500 	mov.w	r5, #0
 8005ac0:	f04f 0100 	mov.w	r1, #0
 8005ac4:	e750      	b.n	8005968 <__adddf3+0x138>
 8005ac6:	bf00      	nop

08005ac8 <__aeabi_i2d>:
 8005ac8:	f090 0f00 	teq	r0, #0
 8005acc:	bf04      	itt	eq
 8005ace:	2100      	moveq	r1, #0
 8005ad0:	4770      	bxeq	lr
 8005ad2:	b530      	push	{r4, r5, lr}
 8005ad4:	f44f 6480 	mov.w	r4, #1024	; 0x400
 8005ad8:	f104 0432 	add.w	r4, r4, #50	; 0x32
 8005adc:	f010 4500 	ands.w	r5, r0, #2147483648	; 0x80000000
 8005ae0:	bf48      	it	mi
 8005ae2:	4240      	negmi	r0, r0
 8005ae4:	f04f 0100 	mov.w	r1, #0
 8005ae8:	e73e      	b.n	8005968 <__adddf3+0x138>
 8005aea:	bf00      	nop

08005aec <__aeabi_f2d>:
 8005aec:	0042      	lsls	r2, r0, #1
 8005aee:	ea4f 01e2 	mov.w	r1, r2, asr #3
 8005af2:	ea4f 0131 	mov.w	r1, r1, rrx
 8005af6:	ea4f 7002 	mov.w	r0, r2, lsl #28
 8005afa:	bf1f      	itttt	ne
 8005afc:	f012 437f 	andsne.w	r3, r2, #4278190080	; 0xff000000
 8005b00:	f093 4f7f 	teqne	r3, #4278190080	; 0xff000000
 8005b04:	f081 5160 	eorne.w	r1, r1, #939524096	; 0x38000000
 8005b08:	4770      	bxne	lr
 8005b0a:	f032 427f 	bics.w	r2, r2, #4278190080	; 0xff000000
 8005b0e:	bf08      	it	eq
 8005b10:	4770      	bxeq	lr
 8005b12:	f093 4f7f 	teq	r3, #4278190080	; 0xff000000
 8005b16:	bf04      	itt	eq
 8005b18:	f441 2100 	orreq.w	r1, r1, #524288	; 0x80000
 8005b1c:	4770      	bxeq	lr
 8005b1e:	b530      	push	{r4, r5, lr}
 8005b20:	f44f 7460 	mov.w	r4, #896	; 0x380
 8005b24:	f001 4500 	and.w	r5, r1, #2147483648	; 0x80000000
 8005b28:	f021 4100 	bic.w	r1, r1, #2147483648	; 0x80000000
 8005b2c:	e71c      	b.n	8005968 <__adddf3+0x138>
 8005b2e:	bf00      	nop

08005b30 <__aeabi_ul2d>:
 8005b30:	ea50 0201 	orrs.w	r2, r0, r1
 8005b34:	bf08      	it	eq
 8005b36:	4770      	bxeq	lr
 8005b38:	b530      	push	{r4, r5, lr}
 8005b3a:	f04f 0500 	mov.w	r5, #0
 8005b3e:	e00a      	b.n	8005b56 <__aeabi_l2d+0x16>

08005b40 <__aeabi_l2d>:
 8005b40:	ea50 0201 	orrs.w	r2, r0, r1
 8005b44:	bf08      	it	eq
 8005b46:	4770      	bxeq	lr
 8005b48:	b530      	push	{r4, r5, lr}
 8005b4a:	f011 4500 	ands.w	r5, r1, #2147483648	; 0x80000000
 8005b4e:	d502      	bpl.n	8005b56 <__aeabi_l2d+0x16>
 8005b50:	4240      	negs	r0, r0
 8005b52:	eb61 0141 	sbc.w	r1, r1, r1, lsl #1
 8005b56:	f44f 6480 	mov.w	r4, #1024	; 0x400
 8005b5a:	f104 0432 	add.w	r4, r4, #50	; 0x32
 8005b5e:	ea5f 5c91 	movs.w	ip, r1, lsr #22
 8005b62:	f43f aed8 	beq.w	8005916 <__adddf3+0xe6>
 8005b66:	f04f 0203 	mov.w	r2, #3
 8005b6a:	ea5f 0cdc 	movs.w	ip, ip, lsr #3
 8005b6e:	bf18      	it	ne
 8005b70:	3203      	addne	r2, #3
 8005b72:	ea5f 0cdc 	movs.w	ip, ip, lsr #3
 8005b76:	bf18      	it	ne
 8005b78:	3203      	addne	r2, #3
 8005b7a:	eb02 02dc 	add.w	r2, r2, ip, lsr #3
 8005b7e:	f1c2 0320 	rsb	r3, r2, #32
 8005b82:	fa00 fc03 	lsl.w	ip, r0, r3
 8005b86:	fa20 f002 	lsr.w	r0, r0, r2
 8005b8a:	fa01 fe03 	lsl.w	lr, r1, r3
 8005b8e:	ea40 000e 	orr.w	r0, r0, lr
 8005b92:	fa21 f102 	lsr.w	r1, r1, r2
 8005b96:	4414      	add	r4, r2
 8005b98:	e6bd      	b.n	8005916 <__adddf3+0xe6>
 8005b9a:	bf00      	nop

08005b9c <__aeabi_dmul>:
 8005b9c:	b570      	push	{r4, r5, r6, lr}
 8005b9e:	f04f 0cff 	mov.w	ip, #255	; 0xff
 8005ba2:	f44c 6ce0 	orr.w	ip, ip, #1792	; 0x700
 8005ba6:	ea1c 5411 	ands.w	r4, ip, r1, lsr #20
 8005baa:	bf1d      	ittte	ne
 8005bac:	ea1c 5513 	andsne.w	r5, ip, r3, lsr #20
 8005bb0:	ea94 0f0c 	teqne	r4, ip
 8005bb4:	ea95 0f0c 	teqne	r5, ip
 8005bb8:	f000 f8de 	bleq	8005d78 <__aeabi_dmul+0x1dc>
 8005bbc:	442c      	add	r4, r5
 8005bbe:	ea81 0603 	eor.w	r6, r1, r3
 8005bc2:	ea21 514c 	bic.w	r1, r1, ip, lsl #21
 8005bc6:	ea23 534c 	bic.w	r3, r3, ip, lsl #21
 8005bca:	ea50 3501 	orrs.w	r5, r0, r1, lsl #12
 8005bce:	bf18      	it	ne
 8005bd0:	ea52 3503 	orrsne.w	r5, r2, r3, lsl #12
 8005bd4:	f441 1180 	orr.w	r1, r1, #1048576	; 0x100000
 8005bd8:	f443 1380 	orr.w	r3, r3, #1048576	; 0x100000
 8005bdc:	d038      	beq.n	8005c50 <__aeabi_dmul+0xb4>
 8005bde:	fba0 ce02 	umull	ip, lr, r0, r2
 8005be2:	f04f 0500 	mov.w	r5, #0
 8005be6:	fbe1 e502 	umlal	lr, r5, r1, r2
 8005bea:	f006 4200 	and.w	r2, r6, #2147483648	; 0x80000000
 8005bee:	fbe0 e503 	umlal	lr, r5, r0, r3
 8005bf2:	f04f 0600 	mov.w	r6, #0
 8005bf6:	fbe1 5603 	umlal	r5, r6, r1, r3
 8005bfa:	f09c 0f00 	teq	ip, #0
 8005bfe:	bf18      	it	ne
 8005c00:	f04e 0e01 	orrne.w	lr, lr, #1
 8005c04:	f1a4 04ff 	sub.w	r4, r4, #255	; 0xff
 8005c08:	f5b6 7f00 	cmp.w	r6, #512	; 0x200
 8005c0c:	f564 7440 	sbc.w	r4, r4, #768	; 0x300
 8005c10:	d204      	bcs.n	8005c1c <__aeabi_dmul+0x80>
 8005c12:	ea5f 0e4e 	movs.w	lr, lr, lsl #1
 8005c16:	416d      	adcs	r5, r5
 8005c18:	eb46 0606 	adc.w	r6, r6, r6
 8005c1c:	ea42 21c6 	orr.w	r1, r2, r6, lsl #11
 8005c20:	ea41 5155 	orr.w	r1, r1, r5, lsr #21
 8005c24:	ea4f 20c5 	mov.w	r0, r5, lsl #11
 8005c28:	ea40 505e 	orr.w	r0, r0, lr, lsr #21
 8005c2c:	ea4f 2ece 	mov.w	lr, lr, lsl #11
 8005c30:	f1b4 0cfd 	subs.w	ip, r4, #253	; 0xfd
 8005c34:	bf88      	it	hi
 8005c36:	f5bc 6fe0 	cmphi.w	ip, #1792	; 0x700
 8005c3a:	d81e      	bhi.n	8005c7a <__aeabi_dmul+0xde>
 8005c3c:	f1be 4f00 	cmp.w	lr, #2147483648	; 0x80000000
 8005c40:	bf08      	it	eq
 8005c42:	ea5f 0e50 	movseq.w	lr, r0, lsr #1
 8005c46:	f150 0000 	adcs.w	r0, r0, #0
 8005c4a:	eb41 5104 	adc.w	r1, r1, r4, lsl #20
 8005c4e:	bd70      	pop	{r4, r5, r6, pc}
 8005c50:	f006 4600 	and.w	r6, r6, #2147483648	; 0x80000000
 8005c54:	ea46 0101 	orr.w	r1, r6, r1
 8005c58:	ea40 0002 	orr.w	r0, r0, r2
 8005c5c:	ea81 0103 	eor.w	r1, r1, r3
 8005c60:	ebb4 045c 	subs.w	r4, r4, ip, lsr #1
 8005c64:	bfc2      	ittt	gt
 8005c66:	ebd4 050c 	rsbsgt	r5, r4, ip
 8005c6a:	ea41 5104 	orrgt.w	r1, r1, r4, lsl #20
 8005c6e:	bd70      	popgt	{r4, r5, r6, pc}
 8005c70:	f441 1180 	orr.w	r1, r1, #1048576	; 0x100000
 8005c74:	f04f 0e00 	mov.w	lr, #0
 8005c78:	3c01      	subs	r4, #1
 8005c7a:	f300 80ab 	bgt.w	8005dd4 <__aeabi_dmul+0x238>
 8005c7e:	f114 0f36 	cmn.w	r4, #54	; 0x36
 8005c82:	bfde      	ittt	le
 8005c84:	2000      	movle	r0, #0
 8005c86:	f001 4100 	andle.w	r1, r1, #2147483648	; 0x80000000
 8005c8a:	bd70      	pople	{r4, r5, r6, pc}
 8005c8c:	f1c4 0400 	rsb	r4, r4, #0
 8005c90:	3c20      	subs	r4, #32
 8005c92:	da35      	bge.n	8005d00 <__aeabi_dmul+0x164>
 8005c94:	340c      	adds	r4, #12
 8005c96:	dc1b      	bgt.n	8005cd0 <__aeabi_dmul+0x134>
 8005c98:	f104 0414 	add.w	r4, r4, #20
 8005c9c:	f1c4 0520 	rsb	r5, r4, #32
 8005ca0:	fa00 f305 	lsl.w	r3, r0, r5
 8005ca4:	fa20 f004 	lsr.w	r0, r0, r4
 8005ca8:	fa01 f205 	lsl.w	r2, r1, r5
 8005cac:	ea40 0002 	orr.w	r0, r0, r2
 8005cb0:	f001 4200 	and.w	r2, r1, #2147483648	; 0x80000000
 8005cb4:	f021 4100 	bic.w	r1, r1, #2147483648	; 0x80000000
 8005cb8:	eb10 70d3 	adds.w	r0, r0, r3, lsr #31
 8005cbc:	fa21 f604 	lsr.w	r6, r1, r4
 8005cc0:	eb42 0106 	adc.w	r1, r2, r6
 8005cc4:	ea5e 0e43 	orrs.w	lr, lr, r3, lsl #1
 8005cc8:	bf08      	it	eq
 8005cca:	ea20 70d3 	biceq.w	r0, r0, r3, lsr #31
 8005cce:	bd70      	pop	{r4, r5, r6, pc}
 8005cd0:	f1c4 040c 	rsb	r4, r4, #12
 8005cd4:	f1c4 0520 	rsb	r5, r4, #32
 8005cd8:	fa00 f304 	lsl.w	r3, r0, r4
 8005cdc:	fa20 f005 	lsr.w	r0, r0, r5
 8005ce0:	fa01 f204 	lsl.w	r2, r1, r4
 8005ce4:	ea40 0002 	orr.w	r0, r0, r2
 8005ce8:	f001 4100 	and.w	r1, r1, #2147483648	; 0x80000000
 8005cec:	eb10 70d3 	adds.w	r0, r0, r3, lsr #31
 8005cf0:	f141 0100 	adc.w	r1, r1, #0
 8005cf4:	ea5e 0e43 	orrs.w	lr, lr, r3, lsl #1
 8005cf8:	bf08      	it	eq
 8005cfa:	ea20 70d3 	biceq.w	r0, r0, r3, lsr #31
 8005cfe:	bd70      	pop	{r4, r5, r6, pc}
 8005d00:	f1c4 0520 	rsb	r5, r4, #32
 8005d04:	fa00 f205 	lsl.w	r2, r0, r5
 8005d08:	ea4e 0e02 	orr.w	lr, lr, r2
 8005d0c:	fa20 f304 	lsr.w	r3, r0, r4
 8005d10:	fa01 f205 	lsl.w	r2, r1, r5
 8005d14:	ea43 0302 	orr.w	r3, r3, r2
 8005d18:	fa21 f004 	lsr.w	r0, r1, r4
 8005d1c:	f001 4100 	and.w	r1, r1, #2147483648	; 0x80000000
 8005d20:	fa21 f204 	lsr.w	r2, r1, r4
 8005d24:	ea20 0002 	bic.w	r0, r0, r2
 8005d28:	eb00 70d3 	add.w	r0, r0, r3, lsr #31
 8005d2c:	ea5e 0e43 	orrs.w	lr, lr, r3, lsl #1
 8005d30:	bf08      	it	eq
 8005d32:	ea20 70d3 	biceq.w	r0, r0, r3, lsr #31
 8005d36:	bd70      	pop	{r4, r5, r6, pc}
 8005d38:	f094 0f00 	teq	r4, #0
 8005d3c:	d10f      	bne.n	8005d5e <__aeabi_dmul+0x1c2>
 8005d3e:	f001 4600 	and.w	r6, r1, #2147483648	; 0x80000000
 8005d42:	0040      	lsls	r0, r0, #1
 8005d44:	eb41 0101 	adc.w	r1, r1, r1
 8005d48:	f411 1f80 	tst.w	r1, #1048576	; 0x100000
 8005d4c:	bf08      	it	eq
 8005d4e:	3c01      	subeq	r4, #1
 8005d50:	d0f7      	beq.n	8005d42 <__aeabi_dmul+0x1a6>
 8005d52:	ea41 0106 	orr.w	r1, r1, r6
 8005d56:	f095 0f00 	teq	r5, #0
 8005d5a:	bf18      	it	ne
 8005d5c:	4770      	bxne	lr
 8005d5e:	f003 4600 	and.w	r6, r3, #2147483648	; 0x80000000
 8005d62:	0052      	lsls	r2, r2, #1
 8005d64:	eb43 0303 	adc.w	r3, r3, r3
 8005d68:	f413 1f80 	tst.w	r3, #1048576	; 0x100000
 8005d6c:	bf08      	it	eq
 8005d6e:	3d01      	subeq	r5, #1
 8005d70:	d0f7      	beq.n	8005d62 <__aeabi_dmul+0x1c6>
 8005d72:	ea43 0306 	orr.w	r3, r3, r6
 8005d76:	4770      	bx	lr
 8005d78:	ea94 0f0c 	teq	r4, ip
 8005d7c:	ea0c 5513 	and.w	r5, ip, r3, lsr #20
 8005d80:	bf18      	it	ne
 8005d82:	ea95 0f0c 	teqne	r5, ip
 8005d86:	d00c      	beq.n	8005da2 <__aeabi_dmul+0x206>
 8005d88:	ea50 0641 	orrs.w	r6, r0, r1, lsl #1
 8005d8c:	bf18      	it	ne
 8005d8e:	ea52 0643 	orrsne.w	r6, r2, r3, lsl #1
 8005d92:	d1d1      	bne.n	8005d38 <__aeabi_dmul+0x19c>
 8005d94:	ea81 0103 	eor.w	r1, r1, r3
 8005d98:	f001 4100 	and.w	r1, r1, #2147483648	; 0x80000000
 8005d9c:	f04f 0000 	mov.w	r0, #0
 8005da0:	bd70      	pop	{r4, r5, r6, pc}
 8005da2:	ea50 0641 	orrs.w	r6, r0, r1, lsl #1
 8005da6:	bf06      	itte	eq
 8005da8:	4610      	moveq	r0, r2
 8005daa:	4619      	moveq	r1, r3
 8005dac:	ea52 0643 	orrsne.w	r6, r2, r3, lsl #1
 8005db0:	d019      	beq.n	8005de6 <__aeabi_dmul+0x24a>
 8005db2:	ea94 0f0c 	teq	r4, ip
 8005db6:	d102      	bne.n	8005dbe <__aeabi_dmul+0x222>
 8005db8:	ea50 3601 	orrs.w	r6, r0, r1, lsl #12
 8005dbc:	d113      	bne.n	8005de6 <__aeabi_dmul+0x24a>
 8005dbe:	ea95 0f0c 	teq	r5, ip
 8005dc2:	d105      	bne.n	8005dd0 <__aeabi_dmul+0x234>
 8005dc4:	ea52 3603 	orrs.w	r6, r2, r3, lsl #12
 8005dc8:	bf1c      	itt	ne
 8005dca:	4610      	movne	r0, r2
 8005dcc:	4619      	movne	r1, r3
 8005dce:	d10a      	bne.n	8005de6 <__aeabi_dmul+0x24a>
 8005dd0:	ea81 0103 	eor.w	r1, r1, r3
 8005dd4:	f001 4100 	and.w	r1, r1, #2147483648	; 0x80000000
 8005dd8:	f041 41fe 	orr.w	r1, r1, #2130706432	; 0x7f000000
 8005ddc:	f441 0170 	orr.w	r1, r1, #15728640	; 0xf00000
 8005de0:	f04f 0000 	mov.w	r0, #0
 8005de4:	bd70      	pop	{r4, r5, r6, pc}
 8005de6:	f041 41fe 	orr.w	r1, r1, #2130706432	; 0x7f000000
 8005dea:	f441 0178 	orr.w	r1, r1, #16252928	; 0xf80000
 8005dee:	bd70      	pop	{r4, r5, r6, pc}

08005df0 <__aeabi_ddiv>:
 8005df0:	b570      	push	{r4, r5, r6, lr}
 8005df2:	f04f 0cff 	mov.w	ip, #255	; 0xff
 8005df6:	f44c 6ce0 	orr.w	ip, ip, #1792	; 0x700
 8005dfa:	ea1c 5411 	ands.w	r4, ip, r1, lsr #20
 8005dfe:	bf1d      	ittte	ne
 8005e00:	ea1c 5513 	andsne.w	r5, ip, r3, lsr #20
 8005e04:	ea94 0f0c 	teqne	r4, ip
 8005e08:	ea95 0f0c 	teqne	r5, ip
 8005e0c:	f000 f8a7 	bleq	8005f5e <__aeabi_ddiv+0x16e>
 8005e10:	eba4 0405 	sub.w	r4, r4, r5
 8005e14:	ea81 0e03 	eor.w	lr, r1, r3
 8005e18:	ea52 3503 	orrs.w	r5, r2, r3, lsl #12
 8005e1c:	ea4f 3101 	mov.w	r1, r1, lsl #12
 8005e20:	f000 8088 	beq.w	8005f34 <__aeabi_ddiv+0x144>
 8005e24:	ea4f 3303 	mov.w	r3, r3, lsl #12
 8005e28:	f04f 5580 	mov.w	r5, #268435456	; 0x10000000
 8005e2c:	ea45 1313 	orr.w	r3, r5, r3, lsr #4
 8005e30:	ea43 6312 	orr.w	r3, r3, r2, lsr #24
 8005e34:	ea4f 2202 	mov.w	r2, r2, lsl #8
 8005e38:	ea45 1511 	orr.w	r5, r5, r1, lsr #4
 8005e3c:	ea45 6510 	orr.w	r5, r5, r0, lsr #24
 8005e40:	ea4f 2600 	mov.w	r6, r0, lsl #8
 8005e44:	f00e 4100 	and.w	r1, lr, #2147483648	; 0x80000000
 8005e48:	429d      	cmp	r5, r3
 8005e4a:	bf08      	it	eq
 8005e4c:	4296      	cmpeq	r6, r2
 8005e4e:	f144 04fd 	adc.w	r4, r4, #253	; 0xfd
 8005e52:	f504 7440 	add.w	r4, r4, #768	; 0x300
 8005e56:	d202      	bcs.n	8005e5e <__aeabi_ddiv+0x6e>
 8005e58:	085b      	lsrs	r3, r3, #1
 8005e5a:	ea4f 0232 	mov.w	r2, r2, rrx
 8005e5e:	1ab6      	subs	r6, r6, r2
 8005e60:	eb65 0503 	sbc.w	r5, r5, r3
 8005e64:	085b      	lsrs	r3, r3, #1
 8005e66:	ea4f 0232 	mov.w	r2, r2, rrx
 8005e6a:	f44f 1080 	mov.w	r0, #1048576	; 0x100000
 8005e6e:	f44f 2c00 	mov.w	ip, #524288	; 0x80000
 8005e72:	ebb6 0e02 	subs.w	lr, r6, r2
 8005e76:	eb75 0e03 	sbcs.w	lr, r5, r3
 8005e7a:	bf22      	ittt	cs
 8005e7c:	1ab6      	subcs	r6, r6, r2
 8005e7e:	4675      	movcs	r5, lr
 8005e80:	ea40 000c 	orrcs.w	r0, r0, ip
 8005e84:	085b      	lsrs	r3, r3, #1
 8005e86:	ea4f 0232 	mov.w	r2, r2, rrx
 8005e8a:	ebb6 0e02 	subs.w	lr, r6, r2
 8005e8e:	eb75 0e03 	sbcs.w	lr, r5, r3
 8005e92:	bf22      	ittt	cs
 8005e94:	1ab6      	subcs	r6, r6, r2
 8005e96:	4675      	movcs	r5, lr
 8005e98:	ea40 005c 	orrcs.w	r0, r0, ip, lsr #1
 8005e9c:	085b      	lsrs	r3, r3, #1
 8005e9e:	ea4f 0232 	mov.w	r2, r2, rrx
 8005ea2:	ebb6 0e02 	subs.w	lr, r6, r2
 8005ea6:	eb75 0e03 	sbcs.w	lr, r5, r3
 8005eaa:	bf22      	ittt	cs
 8005eac:	1ab6      	subcs	r6, r6, r2
 8005eae:	4675      	movcs	r5, lr
 8005eb0:	ea40 009c 	orrcs.w	r0, r0, ip, lsr #2
 8005eb4:	085b      	lsrs	r3, r3, #1
 8005eb6:	ea4f 0232 	mov.w	r2, r2, rrx
 8005eba:	ebb6 0e02 	subs.w	lr, r6, r2
 8005ebe:	eb75 0e03 	sbcs.w	lr, r5, r3
 8005ec2:	bf22      	ittt	cs
 8005ec4:	1ab6      	subcs	r6, r6, r2
 8005ec6:	4675      	movcs	r5, lr
 8005ec8:	ea40 00dc 	orrcs.w	r0, r0, ip, lsr #3
 8005ecc:	ea55 0e06 	orrs.w	lr, r5, r6
 8005ed0:	d018      	beq.n	8005f04 <__aeabi_ddiv+0x114>
 8005ed2:	ea4f 1505 	mov.w	r5, r5, lsl #4
 8005ed6:	ea45 7516 	orr.w	r5, r5, r6, lsr #28
 8005eda:	ea4f 1606 	mov.w	r6, r6, lsl #4
 8005ede:	ea4f 03c3 	mov.w	r3, r3, lsl #3
 8005ee2:	ea43 7352 	orr.w	r3, r3, r2, lsr #29
 8005ee6:	ea4f 02c2 	mov.w	r2, r2, lsl #3
 8005eea:	ea5f 1c1c 	movs.w	ip, ip, lsr #4
 8005eee:	d1c0      	bne.n	8005e72 <__aeabi_ddiv+0x82>
 8005ef0:	f411 1f80 	tst.w	r1, #1048576	; 0x100000
 8005ef4:	d10b      	bne.n	8005f0e <__aeabi_ddiv+0x11e>
 8005ef6:	ea41 0100 	orr.w	r1, r1, r0
 8005efa:	f04f 0000 	mov.w	r0, #0
 8005efe:	f04f 4c00 	mov.w	ip, #2147483648	; 0x80000000
 8005f02:	e7b6      	b.n	8005e72 <__aeabi_ddiv+0x82>
 8005f04:	f411 1f80 	tst.w	r1, #1048576	; 0x100000
 8005f08:	bf04      	itt	eq
 8005f0a:	4301      	orreq	r1, r0
 8005f0c:	2000      	moveq	r0, #0
 8005f0e:	f1b4 0cfd 	subs.w	ip, r4, #253	; 0xfd
 8005f12:	bf88      	it	hi
 8005f14:	f5bc 6fe0 	cmphi.w	ip, #1792	; 0x700
 8005f18:	f63f aeaf 	bhi.w	8005c7a <__aeabi_dmul+0xde>
 8005f1c:	ebb5 0c03 	subs.w	ip, r5, r3
 8005f20:	bf04      	itt	eq
 8005f22:	ebb6 0c02 	subseq.w	ip, r6, r2
 8005f26:	ea5f 0c50 	movseq.w	ip, r0, lsr #1
 8005f2a:	f150 0000 	adcs.w	r0, r0, #0
 8005f2e:	eb41 5104 	adc.w	r1, r1, r4, lsl #20
 8005f32:	bd70      	pop	{r4, r5, r6, pc}
 8005f34:	f00e 4e00 	and.w	lr, lr, #2147483648	; 0x80000000
 8005f38:	ea4e 3111 	orr.w	r1, lr, r1, lsr #12
 8005f3c:	eb14 045c 	adds.w	r4, r4, ip, lsr #1
 8005f40:	bfc2      	ittt	gt
 8005f42:	ebd4 050c 	rsbsgt	r5, r4, ip
 8005f46:	ea41 5104 	orrgt.w	r1, r1, r4, lsl #20
 8005f4a:	bd70      	popgt	{r4, r5, r6, pc}
 8005f4c:	f441 1180 	orr.w	r1, r1, #1048576	; 0x100000
 8005f50:	f04f 0e00 	mov.w	lr, #0
 8005f54:	3c01      	subs	r4, #1
 8005f56:	e690      	b.n	8005c7a <__aeabi_dmul+0xde>
 8005f58:	ea45 0e06 	orr.w	lr, r5, r6
 8005f5c:	e68d      	b.n	8005c7a <__aeabi_dmul+0xde>
 8005f5e:	ea0c 5513 	and.w	r5, ip, r3, lsr #20
 8005f62:	ea94 0f0c 	teq	r4, ip
 8005f66:	bf08      	it	eq
 8005f68:	ea95 0f0c 	teqeq	r5, ip
 8005f6c:	f43f af3b 	beq.w	8005de6 <__aeabi_dmul+0x24a>
 8005f70:	ea94 0f0c 	teq	r4, ip
 8005f74:	d10a      	bne.n	8005f8c <__aeabi_ddiv+0x19c>
 8005f76:	ea50 3401 	orrs.w	r4, r0, r1, lsl #12
 8005f7a:	f47f af34 	bne.w	8005de6 <__aeabi_dmul+0x24a>
 8005f7e:	ea95 0f0c 	teq	r5, ip
 8005f82:	f47f af25 	bne.w	8005dd0 <__aeabi_dmul+0x234>
 8005f86:	4610      	mov	r0, r2
 8005f88:	4619      	mov	r1, r3
 8005f8a:	e72c      	b.n	8005de6 <__aeabi_dmul+0x24a>
 8005f8c:	ea95 0f0c 	teq	r5, ip
 8005f90:	d106      	bne.n	8005fa0 <__aeabi_ddiv+0x1b0>
 8005f92:	ea52 3503 	orrs.w	r5, r2, r3, lsl #12
 8005f96:	f43f aefd 	beq.w	8005d94 <__aeabi_dmul+0x1f8>
 8005f9a:	4610      	mov	r0, r2
 8005f9c:	4619      	mov	r1, r3
 8005f9e:	e722      	b.n	8005de6 <__aeabi_dmul+0x24a>
 8005fa0:	ea50 0641 	orrs.w	r6, r0, r1, lsl #1
 8005fa4:	bf18      	it	ne
 8005fa6:	ea52 0643 	orrsne.w	r6, r2, r3, lsl #1
 8005faa:	f47f aec5 	bne.w	8005d38 <__aeabi_dmul+0x19c>
 8005fae:	ea50 0441 	orrs.w	r4, r0, r1, lsl #1
 8005fb2:	f47f af0d 	bne.w	8005dd0 <__aeabi_dmul+0x234>
 8005fb6:	ea52 0543 	orrs.w	r5, r2, r3, lsl #1
 8005fba:	f47f aeeb 	bne.w	8005d94 <__aeabi_dmul+0x1f8>
 8005fbe:	e712      	b.n	8005de6 <__aeabi_dmul+0x24a>

08005fc0 <__gedf2>:
 8005fc0:	f04f 3cff 	mov.w	ip, #4294967295
 8005fc4:	e006      	b.n	8005fd4 <__cmpdf2+0x4>
 8005fc6:	bf00      	nop

08005fc8 <__ledf2>:
 8005fc8:	f04f 0c01 	mov.w	ip, #1
 8005fcc:	e002      	b.n	8005fd4 <__cmpdf2+0x4>
 8005fce:	bf00      	nop

08005fd0 <__cmpdf2>:
 8005fd0:	f04f 0c01 	mov.w	ip, #1
 8005fd4:	f84d cd04 	str.w	ip, [sp, #-4]!
 8005fd8:	ea4f 0c41 	mov.w	ip, r1, lsl #1
 8005fdc:	ea7f 5c6c 	mvns.w	ip, ip, asr #21
 8005fe0:	ea4f 0c43 	mov.w	ip, r3, lsl #1
 8005fe4:	bf18      	it	ne
 8005fe6:	ea7f 5c6c 	mvnsne.w	ip, ip, asr #21
 8005fea:	d01b      	beq.n	8006024 <__cmpdf2+0x54>
 8005fec:	b001      	add	sp, #4
 8005fee:	ea50 0c41 	orrs.w	ip, r0, r1, lsl #1
 8005ff2:	bf0c      	ite	eq
 8005ff4:	ea52 0c43 	orrseq.w	ip, r2, r3, lsl #1
 8005ff8:	ea91 0f03 	teqne	r1, r3
 8005ffc:	bf02      	ittt	eq
 8005ffe:	ea90 0f02 	teqeq	r0, r2
 8006002:	2000      	moveq	r0, #0
 8006004:	4770      	bxeq	lr
 8006006:	f110 0f00 	cmn.w	r0, #0
 800600a:	ea91 0f03 	teq	r1, r3
 800600e:	bf58      	it	pl
 8006010:	4299      	cmppl	r1, r3
 8006012:	bf08      	it	eq
 8006014:	4290      	cmpeq	r0, r2
 8006016:	bf2c      	ite	cs
 8006018:	17d8      	asrcs	r0, r3, #31
 800601a:	ea6f 70e3 	mvncc.w	r0, r3, asr #31
 800601e:	f040 0001 	orr.w	r0, r0, #1
 8006022:	4770      	bx	lr
 8006024:	ea4f 0c41 	mov.w	ip, r1, lsl #1
 8006028:	ea7f 5c6c 	mvns.w	ip, ip, asr #21
 800602c:	d102      	bne.n	8006034 <__cmpdf2+0x64>
 800602e:	ea50 3c01 	orrs.w	ip, r0, r1, lsl #12
 8006032:	d107      	bne.n	8006044 <__cmpdf2+0x74>
 8006034:	ea4f 0c43 	mov.w	ip, r3, lsl #1
 8006038:	ea7f 5c6c 	mvns.w	ip, ip, asr #21
 800603c:	d1d6      	bne.n	8005fec <__cmpdf2+0x1c>
 800603e:	ea52 3c03 	orrs.w	ip, r2, r3, lsl #12
 8006042:	d0d3      	beq.n	8005fec <__cmpdf2+0x1c>
 8006044:	f85d 0b04 	ldr.w	r0, [sp], #4
 8006048:	4770      	bx	lr
 800604a:	bf00      	nop

0800604c <__aeabi_cdrcmple>:
 800604c:	4684      	mov	ip, r0
 800604e:	4610      	mov	r0, r2
 8006050:	4662      	mov	r2, ip
 8006052:	468c      	mov	ip, r1
 8006054:	4619      	mov	r1, r3
 8006056:	4663      	mov	r3, ip
 8006058:	e000      	b.n	800605c <__aeabi_cdcmpeq>
 800605a:	bf00      	nop

0800605c <__aeabi_cdcmpeq>:
 800605c:	b501      	push	{r0, lr}
 800605e:	f7ff ffb7 	bl	8005fd0 <__cmpdf2>
 8006062:	2800      	cmp	r0, #0
 8006064:	bf48      	it	mi
 8006066:	f110 0f00 	cmnmi.w	r0, #0
 800606a:	bd01      	pop	{r0, pc}

0800606c <__aeabi_dcmpeq>:
 800606c:	f84d ed08 	str.w	lr, [sp, #-8]!
 8006070:	f7ff fff4 	bl	800605c <__aeabi_cdcmpeq>
 8006074:	bf0c      	ite	eq
 8006076:	2001      	moveq	r0, #1
 8006078:	2000      	movne	r0, #0
 800607a:	f85d fb08 	ldr.w	pc, [sp], #8
 800607e:	bf00      	nop

08006080 <__aeabi_dcmplt>:
 8006080:	f84d ed08 	str.w	lr, [sp, #-8]!
 8006084:	f7ff ffea 	bl	800605c <__aeabi_cdcmpeq>
 8006088:	bf34      	ite	cc
 800608a:	2001      	movcc	r0, #1
 800608c:	2000      	movcs	r0, #0
 800608e:	f85d fb08 	ldr.w	pc, [sp], #8
 8006092:	bf00      	nop

08006094 <__aeabi_dcmple>:
 8006094:	f84d ed08 	str.w	lr, [sp, #-8]!
 8006098:	f7ff ffe0 	bl	800605c <__aeabi_cdcmpeq>
 800609c:	bf94      	ite	ls
 800609e:	2001      	movls	r0, #1
 80060a0:	2000      	movhi	r0, #0
 80060a2:	f85d fb08 	ldr.w	pc, [sp], #8
 80060a6:	bf00      	nop

080060a8 <__aeabi_dcmpge>:
 80060a8:	f84d ed08 	str.w	lr, [sp, #-8]!
 80060ac:	f7ff ffce 	bl	800604c <__aeabi_cdrcmple>
 80060b0:	bf94      	ite	ls
 80060b2:	2001      	movls	r0, #1
 80060b4:	2000      	movhi	r0, #0
 80060b6:	f85d fb08 	ldr.w	pc, [sp], #8
 80060ba:	bf00      	nop

080060bc <__aeabi_dcmpgt>:
 80060bc:	f84d ed08 	str.w	lr, [sp, #-8]!
 80060c0:	f7ff ffc4 	bl	800604c <__aeabi_cdrcmple>
 80060c4:	bf34      	ite	cc
 80060c6:	2001      	movcc	r0, #1
 80060c8:	2000      	movcs	r0, #0
 80060ca:	f85d fb08 	ldr.w	pc, [sp], #8
 80060ce:	bf00      	nop

080060d0 <__aeabi_dcmpun>:
 80060d0:	ea4f 0c41 	mov.w	ip, r1, lsl #1
 80060d4:	ea7f 5c6c 	mvns.w	ip, ip, asr #21
 80060d8:	d102      	bne.n	80060e0 <__aeabi_dcmpun+0x10>
 80060da:	ea50 3c01 	orrs.w	ip, r0, r1, lsl #12
 80060de:	d10a      	bne.n	80060f6 <__aeabi_dcmpun+0x26>
 80060e0:	ea4f 0c43 	mov.w	ip, r3, lsl #1
 80060e4:	ea7f 5c6c 	mvns.w	ip, ip, asr #21
 80060e8:	d102      	bne.n	80060f0 <__aeabi_dcmpun+0x20>
 80060ea:	ea52 3c03 	orrs.w	ip, r2, r3, lsl #12
 80060ee:	d102      	bne.n	80060f6 <__aeabi_dcmpun+0x26>
 80060f0:	f04f 0000 	mov.w	r0, #0
 80060f4:	4770      	bx	lr
 80060f6:	f04f 0001 	mov.w	r0, #1
 80060fa:	4770      	bx	lr

080060fc <__aeabi_d2iz>:
 80060fc:	ea4f 0241 	mov.w	r2, r1, lsl #1
 8006100:	f512 1200 	adds.w	r2, r2, #2097152	; 0x200000
 8006104:	d215      	bcs.n	8006132 <__aeabi_d2iz+0x36>
 8006106:	d511      	bpl.n	800612c <__aeabi_d2iz+0x30>
 8006108:	f46f 7378 	mvn.w	r3, #992	; 0x3e0
 800610c:	ebb3 5262 	subs.w	r2, r3, r2, asr #21
 8006110:	d912      	bls.n	8006138 <__aeabi_d2iz+0x3c>
 8006112:	ea4f 23c1 	mov.w	r3, r1, lsl #11
 8006116:	f043 4300 	orr.w	r3, r3, #2147483648	; 0x80000000
 800611a:	ea43 5350 	orr.w	r3, r3, r0, lsr #21
 800611e:	f011 4f00 	tst.w	r1, #2147483648	; 0x80000000
 8006122:	fa23 f002 	lsr.w	r0, r3, r2
 8006126:	bf18      	it	ne
 8006128:	4240      	negne	r0, r0
 800612a:	4770      	bx	lr
 800612c:	f04f 0000 	mov.w	r0, #0
 8006130:	4770      	bx	lr
 8006132:	ea50 3001 	orrs.w	r0, r0, r1, lsl #12
 8006136:	d105      	bne.n	8006144 <__aeabi_d2iz+0x48>
 8006138:	f011 4000 	ands.w	r0, r1, #2147483648	; 0x80000000
 800613c:	bf08      	it	eq
 800613e:	f06f 4000 	mvneq.w	r0, #2147483648	; 0x80000000
 8006142:	4770      	bx	lr
 8006144:	f04f 0000 	mov.w	r0, #0
 8006148:	4770      	bx	lr
 800614a:	bf00      	nop

0800614c <__aeabi_d2uiz>:
 800614c:	004a      	lsls	r2, r1, #1
 800614e:	d211      	bcs.n	8006174 <__aeabi_d2uiz+0x28>
 8006150:	f512 1200 	adds.w	r2, r2, #2097152	; 0x200000
 8006154:	d211      	bcs.n	800617a <__aeabi_d2uiz+0x2e>
 8006156:	d50d      	bpl.n	8006174 <__aeabi_d2uiz+0x28>
 8006158:	f46f 7378 	mvn.w	r3, #992	; 0x3e0
 800615c:	ebb3 5262 	subs.w	r2, r3, r2, asr #21
 8006160:	d40e      	bmi.n	8006180 <__aeabi_d2uiz+0x34>
 8006162:	ea4f 23c1 	mov.w	r3, r1, lsl #11
 8006166:	f043 4300 	orr.w	r3, r3, #2147483648	; 0x80000000
 800616a:	ea43 5350 	orr.w	r3, r3, r0, lsr #21
 800616e:	fa23 f002 	lsr.w	r0, r3, r2
 8006172:	4770      	bx	lr
 8006174:	f04f 0000 	mov.w	r0, #0
 8006178:	4770      	bx	lr
 800617a:	ea50 3001 	orrs.w	r0, r0, r1, lsl #12
 800617e:	d102      	bne.n	8006186 <__aeabi_d2uiz+0x3a>
 8006180:	f04f 30ff 	mov.w	r0, #4294967295
 8006184:	4770      	bx	lr
 8006186:	f04f 0000 	mov.w	r0, #0
 800618a:	4770      	bx	lr

0800618c <dev>:
 800618c:	0112 0200 0002 4000 0483 5740 0200 0201     .......@..@W....
 800619c:	0103 0000 7566 6b72 6e61 732e 6170 6563     ....furkan.space
 80061ac:	0000 0000 5453 334d 2032 6956 7472 6175     ....STM32 Virtua
 80061bc:	206c 4f43 204d 6f50 7472 0000 0031 0000     l COM Port..1...
 80061cc:	2028 2031 6f74 0020 2920 0000 0d0a 6953     ( 1 to . )....Si
 80061dc:	656e 5720 7661 0a65 000d 0000 0d0a 7153     ne Wave.......Sq
 80061ec:	6175 6572 5720 7661 0a65 000d 0d0a 6153     uare Wave.....Sa
 80061fc:	7477 6f6f 6874 5720 7661 0a65 000d 0000     wtooth Wave.....
 800620c:	0d0a 7254 6169 676e 6c75 7261 5720 7661     ..Triangular Wav
 800621c:	0a65 000d 0d0a 6857 7469 2065 6f4e 7369     e.....White Nois
 800622c:	0a65 000d 0d0a 0000 6953 6e67 6c61 005b     e.......Signal[.
 800623c:	205d 203d 0000 0000                         ] = ....

08006244 <comm_endp>:
 8006244:	0507 0383 0010 00ff 0000 0000 0000 0000     ................

08006254 <data_endp>:
 8006254:	0507 0201 0040 0001 0000 0000 0000 0700     ....@...........
 8006264:	8205 4002 0100 0000 0000 0000 0000 0000     ...@............

08006274 <cdcacm_functional_descriptors>:
 8006274:	2405 1000 0501 0124 0100 2404 0002 2405     .$....$....$...$
 8006284:	0006 0001                                   ....

08006288 <comm_iface>:
 8006288:	0409 0000 0201 0102 4400 0062 7408 0062     .........Db..tb.
 8006298:	1308 0000 0000 0000                         ........

080062a0 <data_iface>:
 80062a0:	0409 0001 0a02 0000 5400 0062 0008 0000     .........Tb.....
	...

080062b8 <ifaces>:
 80062b8:	0000 0000 0001 0000 0000 0000 6288 0800     .............b..
 80062c8:	0000 0000 0001 0000 0000 0000 62a0 0800     .............b..

080062d8 <config>:
 80062d8:	0209 0000 0102 8000 b832 0062 0008 0000     ........2.b.....

080062e8 <m1>:
 80062e8:	0d0a 6843 6f6f 6573 7720 7661 6665 726f     ..Choose wavefor
 80062f8:	3a6d 0d0a 315b 205d 6953 656e 0d0a 325b     m:..[1] Sine..[2
 8006308:	205d 7153 6175 6572 0d0a 335b 205d 6153     ] Square..[3] Sa
 8006318:	7477 6f6f 6874 0000                         wtooth..

08006320 <m2>:
 8006320:	0d0a 345b 205d 7254 6169 676e 6c75 7261     ..[4] Triangular
 8006330:	0d0a 355b 205d 6857 7469 2065 6f4e 7369     ..[5] White Nois
 8006340:	0065 0000                                   e...

08006344 <m3>:
 8006344:	0d0a 6341 6563 7470 6465 202c 7270 7365     ..Accepted, pres
 8006354:	2073 4e45 4554 0052                         s ENTER.

0800635c <m4>:
 800635c:	0d0a 6e49 6176 696c 2064 6177 6576 6f66     ..Invalid wavefo
 800636c:	6d72 7320 6c65 6365 6974 6e6f 2121 0021     rm selection!!!.

0800637c <m5>:
 800637c:	0d0a 7355 7265 3e20 0000 0000               ..User >....

08006388 <m6>:
 8006388:	0d0a 754e 626d 7265 6f20 2066 6964 6967     ..Number of digi
 8006398:	7374 6520 6378 6565 6564 2064 696c 696d     ts exceeded limi
 80063a8:	2174 2121 0000 0000                         t!!!....

080063b0 <m7>:
 80063b0:	0d0a 6553 2074 7266 7165 6575 636e 0079     ..Set frequency.

080063c0 <m8>:
 80063c0:	0d0a 6156 756c 2065 7865 6563 6465 6465     ..Value exceeded
 80063d0:	6c20 6d69 7469 2173 2121 0000                limits!!!..

080063dc <m9>:
 80063dc:	0d0a 6553 2074 6d61 6c70 7469 6475 2065     ..Set amplitude 
 80063ec:	3128 7420 206f 2c33 3030 2030 566d 0029     (1 to 3,000 mV).

080063fc <m10>:
 80063fc:	0d0a 6547 656e 6172 6974 676e 5320 6769     ..Generating Sig
 800640c:	616e 206c 213c 003e                         nal <!>.

08006414 <stm32f107_usb_driver>:
 8006414:	30c9 0800 2403 0800 243d 0800 272f 0800     .0...$..=$../'..
 8006424:	27f1 0800 2a29 0800 29c3 0800 2ac3 0800     .'..)*...)...*..
 8006434:	2b97 0800 2d1d 0800 306f 0800 0000 5000     .+...-..o0.....P
 8006444:	0001 0080 6f70 0077 0000 0000               ....pow.....

08006450 <npio2_hw>:
 8006450:	21fb 3ff9 21fb 4009 d97c 4012 21fb 4019     .!.?.!.@|..@.!.@
 8006460:	6a7a 401f d97c 4022 fdbb 4025 21fb 4029     zj.@|."@..%@.!)@
 8006470:	463a 402c 6a7a 402f 475c 4031 d97c 4032     :F,@zj/@\G1@|.2@
 8006480:	6b9c 4034 fdbb 4035 8fdb 4037 21fb 4039     .k4@..5@..7@.!9@
 8006490:	b41b 403a 463a 403c d85a 403d 6a7a 403f     ..:@:F<@Z.=@zj?@
 80064a0:	7e4c 4040 475c 4041 106c 4042 d97c 4042     L~@@\GA@l.B@|.B@
 80064b0:	a28c 4043 6b9c 4044 34ac 4045 fdbb 4045     ..C@.kD@.4E@..E@
 80064c0:	c6cb 4046 8fdb 4047 58eb 4048 21fb 4049     ..F@..G@.XH@.!I@

080064d0 <two_over_pi>:
 80064d0:	f983 00a2 4e44 006e 29fc 0015 57d1 0027     ....DNn..)...W'.
 80064e0:	34dd 00f5 db62 00c0 993c 0095 9041 0043     .4..b...<...A.C.
 80064f0:	5163 00fe debb 00ab 61b7 00c5 6e3a 0024     cQ.......a..:n$.
 8006500:	4dd2 0042 0649 00e0 ea09 002e 921c 00d1     .MB.I...........
 8006510:	1deb 00fe b129 001c 3ee8 00a7 35f5 0082     ....)....>...5..
 8006520:	bb44 002e e99c 0084 26b4 0070 7e41 005f     D........&p.A~_.
 8006530:	91d6 0039 8353 0039 f49c 0039 5f8b 0084     ..9.S.9...9.._..
 8006540:	f928 00bd 1ff8 003b ffde 0097 980f 0005     (.....;.........
 8006550:	2f11 00ef 5a0a 008b 1f6d 006d 7ecf 0036     ./...Z..m.m..~6.
 8006560:	cb09 0027 4f46 00b7 669e 003f ea2d 005f     ..'.FO...f?.-._.
 8006570:	27ba 0075 ebe5 00c7 7b3d 00f1 39f7 0007     .'u.....={...9..
 8006580:	5292 008a 6bfb 00ea b11f 005f 5d08 008d     .R...k...._..]..
 8006590:	0330 0056 fc7b 0046 abf0 006b bc20 00cf     0.V.{.F...k. ...
 80065a0:	f436 009a a9e3 001d 615e 0091 1b08 00e6     6.......^a......
 80065b0:	9985 0065 14a0 005f 408d 0068 d880 00ff     ..e..._..@h.....
 80065c0:	7327 004d 0606 0031 56ca 0015 a8c9 0073     'sM...1..V....s.
 80065d0:	e27b 0060 8c6b 00c0                         {.`.k...

080065d8 <PIo2>:
 80065d8:	0000 4000 21fb 3ff9 0000 0000 442d 3e74     ...@.!.?....-Dt>
 80065e8:	0000 8000 4698 3cf8 0000 6000 cc51 3b78     .....F.<...`Q.x;
 80065f8:	0000 8000 1b83 39f0 0000 4000 2520 387a     .......9...@ %z8
 8006608:	0000 8000 8222 36e3 0000 0000 f31d 3569     ...."..6......i5

08006618 <init_jk>:
 8006618:	0002 0000 0003 0000 0004 0000 0006 0000     ................

08006628 <TWO52>:
 8006628:	0000 0000 0000 4330 0000 0000 0000 c330     ......0C......0.
